
build/program.elf:     file format elf32-littleriscv

Contents of section .text:
 0000 97110000 938101ee 17550000 1305c5b5  .........U......
 0010 17560000 130646b5 3306a640 93050000  .V....F.3..@....
 0020 ef004040 17050000 1305c52f ef00c02a  ..@@......./...*
 0030 ef00c034 03250100 93054100 13060000  ...4.%....A.....
 0040 ef00006a 6f00802a 67800000 37550000  ...jo..*g...7U..
 0050 b7570000 130785b6 938787b6 638ce700  .W..........c...
 0060 37030000 13030300 63060300 130585b6  7.......c.......
 0070 67000300 67800000 b7570000 37550000  g...g....W..7U..
 0080 938587b6 930785b6 b385f540 93d52540  ...........@..%@
 0090 93d7f501 b385b700 93d51540 638c0500  ...........@c...
 00a0 37030000 13030300 63060300 130585b6  7.......c.......
 00b0 67000300 67800000 03470071 63160704  g...g....G.qc...
 00c0 130101ff 23248100 23261100 13840700  ....#$..#&......
 00d0 eff0dff7 b7070000 93870700 638a0700  ............c...
 00e0 37550000 130545b6 97000000 e7000000  7U....E.........
 00f0 93071000 2308f070 8320c100 03248100  ....#..p. ...$..
 0100 13010101 67800000 67800000 b7070000  ....g...g.......
 0110 93870700 63840702 37550000 130101ff  ....c...7U......
 0120 93054071 130545b6 23261100 97000000  ..@q..E.#&......
 0130 e7000000 8320c100 13010101 6ff0dff3  ..... ......o...
 0140 130101f3 13152500 130f8100 b70f0040  ......%........@
 0150 338ea500 13030f00 13854500 930e4002  3.........E...@.
 0160 938fffff b307ae40 63ccfe04 93f7c7ff  .......@c.......
 0170 3308f500 1306c5ff 63780503 83260500  3.......cx...&..
 0180 93070500 6f000001 23a0e700 9387c7ff  ....o...#.......
 0190 6306f600 03a7c7ff e3c8e6fe 23a0d700  c...........#...
 01a0 13054500 e36c05fd 6304e313 032e0300  ..E..l..c.......
 01b0 0325c3ff 130383ff b307ae40 e3d8fefa  .%.........@....
 01c0 b307b540 3307be40 93d72740 13572740  ...@3..@..'@.W'@
 01d0 3387e700 9357f701 b387e700 93d71740  3....W.........@
 01e0 b387f701 93972700 b387f500 03270500  ......'......'..
 01f0 03a60700 23a0e700 2320c500 0327c5ff  ....#...# ...'..
 0200 8327ceff 63dae700 232ef5fe 232eeefe  .'..c...#...#...
 0210 03260500 93070700 63d8c700 2320f500  .&......c...# ..
 0220 232ecefe 03260500 8327c5ff 6358f600  #....&...'..cX..
 0230 232ec5fe 2320f500 13860700 13084500  #...# ........E.
 0240 93060e00 13084800 8328c8ff e3ccc8fe  ......H..(......
 0250 9387c6ff 03a7c7ff 635ae600 93860700  ........cZ......
 0260 9387c6ff 03a7c7ff e34ae6fe 63ea0701  .........J..c...
 0270 232ee8fe 23ae17ff 93860700 6ff09ffc  #...#.......o...
 0280 b3080e41 2320e500 13d72840 b388a740  ...A# ....(@...@
 0290 23aec7fe 93071700 13d72840 13068300  #.........(@....
 02a0 938686ff 63cce700 2324c301 23220301  ....c...#$..#"..
 02b0 138e0600 13030600 6ff0dfea 2322a300  ........o...#"..
 02c0 2324d300 13050800 13030600 6ff09fe9  #$..........o...
 02d0 1301010d 67800000 93050500 93060000  ....g...........
 02e0 13060000 13050000 6f008021 130101ff  ........o..!....
 02f0 93050000 23248100 23261100 13040500  ....#$..#&......
 0300 ef000028 b7570000 03a507b6 8327c503  ...(.W.......'..
 0310 63840700 e7800700 13050400 ef004037  c.............@7
 0320 130101ff b7070000 23248100 37040000  ........#$..7...
 0330 13870700 13040400 3304e440 23229100  ........3..@#"..
 0340 23261100 13542440 93840700 631c0400  #&...T$@....c...
 0350 03248100 8320c100 83244100 13010101  .$... ...$A.....
 0360 6ff09fce 1304f4ff 93172400 b387f400  o.........$.....
 0370 83a70700 e7800700 6ff05ffd 130101ff  ........o._.....
 0380 b7070000 23248100 37040000 13870700  ....#$..7.......
 0390 13040400 3304e440 23229100 23202101  ....3..@#"..# !.
 03a0 23261100 13542440 93040000 13890700  #&...T$@........
 03b0 63928404 eff05fc9 b7070000 37040000  c....._.....7...
 03c0 13870700 13040400 3304e440 13542440  ........3..@.T$@
 03d0 93040000 13890700 639a8402 8320c100  ........c.... ..
 03e0 03248100 83244100 03290100 13010101  .$...$A..)......
 03f0 67800000 93972400 b307f900 83a70700  g.....$.........
 0400 93841400 e7800700 6ff09ffa 93972400  ........o.....$.
 0410 b307f900 83a70700 93841400 e7800700  ................
 0420 6ff09ffb 1303f000 13070500 637ec302  o...........c~..
 0430 9377f700 6390070a 63920508 937606ff  .w..c...c....v..
 0440 1376f600 b386e600 2320b700 2322b700  .v......# ..#"..
 0450 2324b700 2326b700 13070701 e366d7fe  #$..#&.......f..
 0460 63140600 67800000 b306c340 93962600  c...g......@..&.
 0470 97020000 b3865600 6780c600 2307b700  ......V.g...#...
 0480 a306b700 2306b700 a305b700 2305b700  ....#.......#...
 0490 a304b700 2304b700 a303b700 2303b700  ....#.......#...
 04a0 a302b700 2302b700 a301b700 2301b700  ....#.......#...
 04b0 a300b700 2300b700 67800000 93f5f50f  ....#...g.......
 04c0 93968500 b3e5d500 93960501 b3e5d500  ................
 04d0 6ff0dff6 93962700 97020000 b3865600  o.....'.......V.
 04e0 93820000 e78006fa 93800200 938707ff  ................
 04f0 3307f740 3306f600 e378c3f6 6ff0dff3  3..@3....x..o...
 0500 b7570000 03a707b6 13030500 83278714  .W...........'..
 0510 63960700 9307c714 2324f714 03a74700  c.......#$....G.
 0520 1308f001 1305f0ff 634ae804 93182700  ........cJ....'.
 0530 630c0302 33851701 2324c508 03a88718  c...3...#$......
 0540 13061000 3316e600 3368c800 23a40719  ....3...3h..#...
 0550 2324d510 93062000 6318d300 83a6c718  #$.... .c.......
 0560 33e6c600 23a6c718 13071700 23a2e700  3...#.......#...
 0570 b3871701 23a4b700 13050000 67800000  ....#.......g...
 0580 130101fd b7570000 232e3101 83a907b6  .....W..#.1.....
 0590 232c4101 232a5101 23286101 23261102  #,A.#*Q.#(a.#&..
 05a0 23248102 23229102 23202103 23267101  #$..#"..# !.#&q.
 05b0 930a0500 138a0500 130b1000 83a48914  ................
 05c0 638c0400 03a44400 1309f4ff 13142400  c.....D.......$.
 05d0 33848400 63580902 8320c102 03248102  3...cX... ...$..
 05e0 83244102 03290102 8329c101 032a8101  .$A..)...)...*..
 05f0 832a4101 032b0101 832bc100 13010103  .*A..+...+......
 0600 67800000 630c0a00 83274410 63884701  g...c....'D.c.G.
 0610 1309f9ff 1304c4ff 6ff0dffb 03a74400  ........o.....D.
 0620 83274400 1307f7ff 631c2703 23a22401  .'D.....c.'.#.$.
 0630 e38007fe 83a68418 33172b01 83ab4400  ........3.+...D.
 0640 b376d700 63920602 e7800700 83a74400  .v..c.........D.
 0650 e39677f7 83a78914 e38c97fa 6ff01ff6  ..w.........o...
 0660 23220400 6ff0dffc 83a6c418 83254408  #"..o........%D.
 0670 3377d700 63180700 13850a00 e7800700  3w..c...........
 0680 6ff0dffc 13850500 e7800700 6ff01ffc  o...........o...
 0690 93050000 13060000 93060000 13070000  ................
 06a0 93070000 9308d005 73000000 63520502  ........s...cR..
 06b0 130101ff 23248100 13040500 23261100  ....#$......#&..
 06c0 33048040 ef000001 23208500 6f000000  3..@....# ..o...
 06d0 6f000000 b7570000 03a5c7b5 67800000  o....W......g...
Contents of section .text.startup:
 06e0 37150000 b7250000 130101ff 13050580  7....%..........
 06f0 9385c572 23261100 eff09fa4 8320c100  ...r#&....... ..
 0700 13050000 13010101 67800000           ........g...    
Contents of section .data:
 0710 00000000 00000000 00000000 00000000  ................
 0720 00000000 00000000 00000000 278b0a00  ............'...
 0730 f4be0d00 c4832100 629b2600 6f353000  ......!.b.&.o50.
 0740 92be3500 efe53900 bc823d00 d6025100  ..5...9...=...Q.
 0750 04d75100 33909400 f91daf00 9677c200  ..Q.3........w..
 0760 4010c400 536ac500 1d1fc900 bbe7d300  @...Sj..........
 0770 4c8bd700 9545d900 d86bfa00 0f632501  L....E...k...c%.
 0780 b9ff3a01 32d94401 f5c75101 ee545b01  ..:.2.D...Q..T[.
 0790 5b5b6301 ad007401 95fa8a01 b0309101  [[c...t......0..
 07a0 cb369701 febea101 1894a401 852aaf01  .6...........*..
 07b0 2453b701 c7e9d801 d75cdb01 a5c8e101  $S.......\......
 07c0 3421e201 42241f02 342b2302 fcd63402  4!..B$..4+#...4.
 07d0 adbd3602 364c4d02 66827c02 ca318102  ..6.6LM.f.|..1..
 07e0 deb69e02 a6b6cd02 7d12d402 023ed402  ........}....>..
 07f0 a72ee102 5842e802 e35c0603 02b80903  ....XB...\......
 0800 25c31403 86f63503 2e474e03 5c707703  %.....5..GN.\pw.
 0810 e0557803 82238a03 cdb69b03 22b9ad03  .Ux..#......"...
 0820 1f3eb503 ea08c503 10b4dc03 69eaf703  .>..........i...
 0830 07a10e04 f4aa1e04 586f2a04 932c2c04  ........Xo*..,,.
 0840 c2c43904 a8824f04 31e25604 c6f65804  ..9...O.1.V...X.
 0850 dab27604 247e8604 b6869804 b6499e04  ..v.$~.......I..
 0860 f280ab04 1c9cc904 eadeca04 4b73d204  ............Ks..
 0870 8b19da04 28a4f004 81d90f05 71353d05  ....(.......q5=.
 0880 52554b05 a4245405 5f415e05 a4416f05  RUK..$T._A^..Ao.
 0890 5cf27f05 bf458505 daef8805 67fb8d05  \....E......g...
 08a0 07efa505 2012b505 116eee05 eda43c06  .... ....n....<.
 08b0 40033e06 1f094806 d4d55406 b7845a06  @.>...H...T...Z.
 08c0 83276206 22246306 c4477006 d63a7506  .'b."$c..Gp..:u.
 08d0 7f417606 5f897906 00c17f06 e43e8706  .Av._.y......>..
 08e0 4886ad06 9de1b606 8b4bc306 7018c506  H........K..p...
 08f0 2896ce06 e202db06 c3b7f506 c03ffd06  (............?..
 0900 218ffd06 9ff70407 d6251c07 eed12107  !........%....!.
 0910 3f7a4707 93345a07 bf676207 3f199f07  ?zG..4Z..gb.?...
 0920 e9afa107 fca8bf07 4515d507 387bf907  ........E...8{..
 0930 73980308 15220c08 ca491608 172a2b08  s...."...I...*+.
 0940 689b3608 69845008 9b6c6008 71daad08  h.6.i.P..l`.q...
 0950 dbd3b308 fd09d408 6b5bda08 112ce408  ........k[...,..
 0960 5737fe08 306d0609 85811309 e5034a09  W7..0m........J.
 0970 c1f95309 4ff95709 60899f09 b654a009  ..S.O.W.`....T..
 0980 b6b5bc09 7730fe09 30410f0a 9b37170a  ....w0..0A...7..
 0990 45d31d0a 154a260a 1a2f420a 03ba500a  E....J&../B...P.
 09a0 d9535c0a d248600a 4fc46d0a 7fc9790a  .S\..H`.O.m...y.
 09b0 30297b0a 25ea7d0a 74588e0a 99d0a90a  0){.%.}.tX......
 09c0 91f5c20a a3bcc30a 4281d20a ae3ae20a  ........B....:..
 09d0 5abaf20a 33e90f0b e8ea100b 60d3150b  Z...3.......`...
 09e0 e0db170b d0dc180b 92e8340b e376560b  ..........4..vV.
 09f0 9a5a5b0b 267c5f0b 14488e0b 663fa50b  .Z[.&|_..H..f?..
 0a00 0adbb40b 20b4cc0b b916d00b 60cdd00b  .... .......`...
 0a10 1909ed0b 169fef0b eaf2110c 57a6300c  ............W.0.
 0a20 ec2c380c 6349510c e245680c c06f6c0c  .,8.cIQ..Eh..ol.
 0a30 28d9850c ffc48f0c 6e36920c c090a30c  (.......n6......
 0a40 9165af0c 0975cc0c 80ead00c a18ae60c  .e...u..........
 0a50 ec68e80c 9fccfa0c e9a7080d 0a3b310d  .h...........;1.
 0a60 4b49360d d188430d 8b9e6a0d cd18770d  KI6...C...j...w.
 0a70 037e770d 1485830d d490830d 7c50860d  .~w.........|P..
 0a80 af89870d d3438e0d ac05950d 11a9a50d  .....C..........
 0a90 0015b40d cab6ba0d 3a32bf0d 118dc70d  ........:2......
 0aa0 55a4d60d b127f30d 4f121e0e 1ba5200e  U....'..O..... .
 0ab0 e0d8330e 243b380e 98f64d0e e38c570e  ..3.$;8...M...W.
 0ac0 31b6640e 8a93650e 1d3a680e 48f8950e  1.d...e..:h.H...
 0ad0 c9069a0e b2839f0e 4ba1bc0e 14bebf0e  ........K.......
 0ae0 68c3bf0e c71ee20e 530be70e 91abe80e  h.......S.......
 0af0 66dbf10e dacff30e 00cdfd0e 3e2f220f  f...........>/".
 0b00 da73360f 0e76450f f6614f0f b79e5c0f  .s6..vE..aO...\.
 0b10 737b630f b1c17b0f bddc7b0f c45f830f  s{c...{...{.._..
 0b20 b782890f 3893890f bf5f8b0f 6e09970f  ....8...._..n...
 0b30 fe1ed10f dcc2ec0f dcb0fa0f 4e2d0b10  ............N-..
 0b40 3d231e10 234d2410 1ff83410 254c6010  =#..#M$...4.%L`.
 0b50 f5458a10 290f9110 b20da510 9a8fc410  .E..)...........
 0b60 afcee410 7989f710 e6dd2211 0f5d2b11  ....y....."..]+.
 0b70 c8434411 36dc5c11 ec7e7811 02008911  .CD.6.\..~x.....
 0b80 27829f11 c84fcf11 2618da11 e88de411  '....O..&.......
 0b90 e012eb11 a63ff611 bd04fb11 612bfb11  .....?......a+..
 0ba0 42820312 f6511c12 b4ac2012 74e42112  B....Q.... .t.!.
 0bb0 1c322512 1f673512 43633912 95c85b12  .2%..g5.Cc9...[.
 0bc0 be636612 46676812 20c96812 08647e12  .cf.Fgh. .h..d~.
 0bd0 b56d8b12 4417dd12 8300f412 aabfff12  .m..D...........
 0be0 41e71413 acc03c13 41245313 9b0e6413  A.....<.A$S...d.
 0bf0 cb486913 d84d9513 b2e49c13 86dba713  .Hi..M..........
 0c00 6aa2b213 c700bf13 2ffecc13 36b4e513  j......./...6...
 0c10 e302e713 3801e913 94a7fe13 77370a14  ....8.......w7..
 0c20 ae982d14 55864714 d6bd4a14 a2815a14  ..-.U.G...J...Z.
 0c30 d78b5d14 a34f6214 5e5a7214 27967314  ..]..Ob.^Zr.'.s.
 0c40 082e7c14 2ae28814 30268e14 a7aca814  ..|.*...0&......
 0c50 8a10c014 331fd114 eb5bdf14 d626f714  ....3....[...&..
 0c60 aeca1815 1e3f3215 42774015 dbdf4115  .....?2.Bw@...A.
 0c70 a5634215 e21f7115 f1d17e15 e0189f15  .cB...q...~.....
 0c80 40b4aa15 e72fbb15 d0a9bb15 d1a7c515  @..../..........
 0c90 167fce15 b268db15 890fee15 e77ef715  .....h.......~..
 0ca0 2fcefc15 d6122916 c18d3016 2d5f3316  /.....)...0.-_3.
 0cb0 5feb3316 61fd3e16 f22f4016 9a376716  _.3.a.>../@..7g.
 0cc0 42397516 1fbf9516 fc429e16 d26aa716  B9u......B...j..
 0cd0 d60ab716 4b53be16 e5d8c316 ab4ecb16  ....KS.......N..
 0ce0 81090017 92160d17 21161217 47541517  ........!...GT..
 0cf0 357b1a17 a3752d17 263a3317 e3464a17  5{...u-.&:3..FJ.
 0d00 4b185317 d5b79017 4c39bc17 4abbbc17  K.S.....L9..J...
 0d10 dae6c617 59ffc917 bd3acf17 c661d717  ....Y....:...a..
 0d20 4097ed17 ecee0218 d2100b18 ef1a4e18  @.............N.
 0d30 8d8e8c18 56c69e18 cea1d218 7596e318  ....V.......u...
 0d40 fe3dfa18 de19fb18 80b20019 f04f0a19  .=...........O..
 0d50 cbfa1a19 44ed2719 530a3b19 bfb14e19  ....D.'.S.;...N.
 0d60 8bb5a219 c95cc119 8019c919 6be9ce19  .....\......k...
 0d70 f159d519 f14aeb19 6d30f119 f2f8f119  .Y...J..m0......
 0d80 8618041a 00af051a 4773061a e9ef161a  ........Gs......
 0d90 a234261a 8066721a 3e6a7c1a 3f199b1a  .4&..fr.>j|.?...
 0da0 a145b81a 74c1be1a 998fe81a d588fe1a  .E..t...........
 0db0 b4fb141b 782e161b d3e01a1b 52d22b1b  ....x.......R.+.
 0dc0 bf0f351b 86fb601b 6375711b 66ab781b  ..5...`.cuq.f.x.
 0dd0 160f811b f35a821b 3ee8941b 32a6961b  .....Z..>...2...
 0de0 77b1aa1b 3f38b41b d528b91b 0903051c  w...?8...(......
 0df0 d0842d1c ab742f1c 5543361c 004b731c  ..-..t/.UC6..Ks.
 0e00 60a9741c a9b4881c c50ab41c d412b41c  `.t.............
 0e10 55bbc81c 3b4ecf1c 0d00f51c 054cfa1c  U...;N.......L..
 0e20 a188fa1c 6595141d 5fda421d 82105b1d  ....e..._.B...[.
 0e30 bc71771d 0997821d eadaac1d 2998b91d  .qw.........)...
 0e40 5fd7cb1d 2425d31d f59ad81d 448aef1d  _...$%......D...
 0e50 f9daf01d 486ef41d c9c9001e 1dd5081e  ....Hn..........
 0e60 6b0f301e de25451e 6280461e 2b19481e  k.0..%E.b.F.+.H.
 0e70 467f581e 4116621e e8476d1e 2c936d1e  F.X.A.b..Gm.,.m.
 0e80 6e0b8c1e 11e9931e 0d549c1e 63a79c1e  n........T..c...
 0e90 c449a61e 7df8b01e ac98b81e 50a9be1e  .I..}.......P...
 0ea0 1081dc1e 322de11e 5548f21e c390f41e  ....2-..UH......
 0eb0 23fdf91e 0699031f 7e5e061f 393d091f  #.......~^..9=..
 0ec0 05891f1f 7150231f e77d401f 491c541f  ....qP#..}@.I.T.
 0ed0 3902791f b7778b1f fd96981f eeb1b71f  9.y..w..........
 0ee0 53cdbc1f 617bc61f de0dda1f f916f01f  S...a{..........
 0ef0 c6adf31f bb731f20 4c0c2720 a7dd2e20  .....s. L.' ... 
 0f00 d7d72f20 8c2c3120 f4463e20 d18e5720  ../ .,1 .F> ..W 
 0f10 b80d6c20 d87f7a20 300d7d20 ed3a8520  ..l ..z 0.} .:. 
 0f20 c97f9020 d478b320 1df3bc20 1875d020  ... .x. ... .u. 
 0f30 61cffb20 03e52821 78705921 520b6b21  a.. ..(!xpY!R.k!
 0f40 309d8e21 de81af21 af03bf21 5da1d721  0..!...!...!]..!
 0f50 6ef1e421 e7bbf821 7d751222 f3b11b22  n..!...!}u."..."
 0f60 e4273a22 30e36222 a72e6a22 62956a22  .':"0.b"..j"b.j"
 0f70 f7967f22 0a818522 4b2e9922 91aa9c22  ..."..."K.."..."
 0f80 0896c122 81fbe022 60abea22 a92f1c23  ..."..."`.."./.#
 0f90 df393523 2b4e4923 4ac94c23 3b8f6823  .95#+NI#J.L#;.h#
 0fa0 8e277423 70ed8123 c5049c23 4d03a523  .'t#p..#...#M..#
 0fb0 306ae723 f2a2ef23 a67cf323 c1e3fe23  0j.#...#.|.#...#
 0fc0 ab810424 ea370f24 1c493524 4ab43924  ...$.7.$.I5$J.9$
 0fd0 3ecd7e24 0d499c24 cd3ea224 b55cb324  >.~$.I.$.>.$.\.$
 0fe0 c366d224 8bddd524 fd81d824 7653e024  .f.$...$...$vS.$
 0ff0 fabbeb24 363aec24 f905f424 3d0bfc24  ...$6:.$...$=..$
 1000 bdc31125 85b61425 ea901525 c0762c25  ...%...%...%.v,%
 1010 b0183025 48dc3a25 5f623c25 83d03f25  ..0%H.:%_b<%..?%
 1020 d6e04f25 03527525 f00a9325 9ea39c25  ..O%.Ru%...%...%
 1030 8d64a225 9b97aa25 78e3b425 07f9bb25  .d.%...%x..%...%
 1040 4a7bbe25 86ffef25 4feb0126 bda90926  J{.%...%O..&...&
 1050 ae5f3226 40256726 a9836f26 c1af8b26  ._2&@%g&..o&...&
 1060 e978ba26 600bc626 e2a9d526 86edd826  .x.&`..&...&...&
 1070 c4ebdd26 48e8e226 3fc4ec26 dd8af526  ...&H..&?..&...&
 1080 d82a0927 80920d27 ba4f1127 c2532827  .*.'...'.O.'.S('
 1090 c7db2c27 5cec6a27 b6bf9927 3b47ac27  ..,'\.j'...';G.'
 10a0 fde2bb27 d0dff827 c7980b28 add61228  ...'...'...(...(
 10b0 27bd1b28 11fe2828 a5493528 f8104428  '..(..((.I5(..D(
 10c0 5bd04528 89915d28 6fb67028 4da38028  [.E(..](o.p(M..(
 10d0 fd9b8a28 f0c5a628 b4c1bb28 53f1bd28  ...(...(...(S..(
 10e0 555dd428 31b4ef28 ea250129 e7370729  U].(1..(.%.).7.)
 10f0 646c0929 03682b29 5dde2c29 37c62d29  dl.).h+)].,)7.-)
 1100 90413129 5dfc4b29 57985929 ae287c29  .A1)].K)W.Y).(|)
 1110 5bfd7e29 32f48229 15d59529 a0da9729  [.~)2..)...)...)
 1120 6b989829 7bb6a429 a739c429 330ed729  k..){..).9.)3..)
 1130 227add29 e5eae829 ba350d2a 8f71122a  "z.)...).5.*.q.*
 1140 85281a2a da4e212a e3a5222a c26a4c2a  .(.*.N!*.."*.jL*
 1150 6f6b8f2a 82bc952a 5163ac2a f274ca2a  ok.*...*Qc.*.t.*
 1160 2c83ef2a 284dfa2a 1997012b 27540b2b  ,..*(M.*...+'T.+
 1170 edd00c2b 1f260e2b ecde162b 2a0b1d2b  ...+.&.+...+*..+
 1180 be4d262b 120c482b 8824532b 4b1c5e2b  .M&+..H+.$S+K.^+
 1190 8de57a2b a26f7b2b 814d842b c870872b  ..z+.o{+.M.+.p.+
 11a0 0d5d892b e1d18f2b a06c9b2b 4ed29d2b  .].+...+.l.+N..+
 11b0 495da72b dc35a82b 496ae52b 207df32b  I].+.5.+Ij.+ }.+
 11c0 05a3f52b c064072c 6758152c ccae232c  ...+.d.,gX.,..#,
 11d0 57f52b2c b8942d2c abda3c2c 7903522c  W.+,..-,..<,y.R,
 11e0 03a8542c 3d986a2c adaa732c ab5c8f2c  ..T,=.j,..s,.\.,
 11f0 229f9d2c 452cab2c 8ab8bd2c ab1ec22c  "..,E,.,...,...,
 1200 c4ddd02c 4988d82c 2766e62c 726bf42c  ...,I..,'f.,rk.,
 1210 84e5f42c eacefe2c 21d9082d 06900c2d  ...,...,!..-...-
 1220 73ea2a2d 8c8c2d2d 26d4302d a1ed682d  s.*-..--&.0-..h-
 1230 5bd1732d b67c972d 49fe972d dedd9e2d  [.s-.|.-I..-...-
 1240 55aca32d 760fbb2d 89ecc42d c495c92d  U..-v..-...-...-
 1250 e017d62d bf91eb2d cbdff32d 47b2042e  ...-...-...-G...
 1260 b69d072e ef770b2e bb0d162e 7fb0562e  .....w........V.
 1270 7c0f6a2e 3b136c2e 8a07702e e226b22e  |.j.;.l...p..&..
 1280 b43bd02e 4040d92e c1f2dd2e f80de22e  .;..@@..........
 1290 4b49ea2e f5def02e 4687f52e d89bf62e  KI......F.......
 12a0 1f5b1a2f 269f242f 5992282f a6912b2f  .[./&.$/Y.(/..+/
 12b0 64ef4b2f 64b4702f 502c822f 2650972f  d.K/d.p/P,./&P./
 12c0 cbd1a72f d4b6aa2f d70fb82f dc21b92f  .../.../.../.!./
 12d0 13febe2f eb9ac72f 4fdeca2f 66b3d82f  .../.../O../f../
 12e0 fbaff12f 33731030 e7531430 b7db1430  .../3s.0.S.0...0
 12f0 ee944130 c8864d30 e5814f30 fd936730  ..A0..M0..O0..g0
 1300 64896a30 09286b30 01347d30 b2468930  d.j0.(k0.4}0.F.0
 1310 14999530 5fcdb830 5e73ee30 d4d0f630  ...0_..0^s.0...0
 1320 f46a0831 651d1631 73995231 4b697031  .j.1e..1s.R1Kip1
 1330 3f6a7631 5ee08131 a32e8c31 e7398c31  ?jv1^..1...1.9.1
 1340 7a8c9831 c5dfa631 8316bc31 ec0fc631  z..1...1...1...1
 1350 96d1cc31 740ad931 ee58e331 47fae331  ...1t..1.X.1G..1
 1360 0a10ec31 75de0932 4b001332 716e4a32  ...1u..2K..2qnJ2
 1370 f7494f32 76566832 84e06e32 86dd7632  .IO2vVh2..n2..v2
 1380 a6198032 1e9e8d32 83999132 de2da232  ...2...2...2.-.2
 1390 ff24be32 b629c432 65a5cd32 746ace32  .$.2.).2e..2tj.2
 13a0 323dd532 7e12e032 1b43ee32 15e8f732  2=.2~..2.C.2...2
 13b0 d4ff0e33 8a4b1233 3b6d2233 69bb2433  ...3.K.3;m"3i.$3
 13c0 fc572633 85303933 bca33c33 0b104833  .W&3.093..<3..H3
 13d0 5fbf7833 b1377a33 44999f33 aa69a533  _.x3.7z3D..3.i.3
 13e0 c926ab33 70d5ac33 1df6b633 96e7d833  .&.3p..3...3...3
 13f0 cb42f833 47701234 3bd41734 a9861a34  .B.3Gp.4;..4...4
 1400 87c92e34 1db03834 7ac75f34 5e936034  ...4..84z._4^.`4
 1410 4eb76234 ff476a34 98e76c34 a8e07134  N.b4.Gj4..l4..q4
 1420 4eb37a34 973b7e34 3ffb9134 938f9634  N.z4.;~4?..4...4
 1430 07a79934 285bcd34 4436de34 4163eb34  ...4([.4D6.4Ac.4
 1440 ce5c1335 956b2635 c5993335 882e3935  .\.5.k&5..35..95
 1450 9fb73e35 c6364335 8bb64835 2c1a5535  ..>5.6C5..H5,.U5
 1460 eda85735 58d75935 50316135 a2059435  ..W5X.Y5P1a5...5
 1470 ae35c035 1154e635 132f0e36 bfd71536  .5.5.T.5./.6...6
 1480 7f2d1836 d9693236 c9933436 20d44736  .-.6.i26..46 .G6
 1490 ded56136 945b8836 ad429836 512b9a36  ..a6.[.6.B.6Q+.6
 14a0 ae10b036 9357bd36 9711d236 1a18ee36  ...6.W.6...6...6
 14b0 2a71f736 f72a0b37 3f950f37 19621b37  *q.6.*.7?..7.b.7
 14c0 ac992b37 b9423137 6eb43437 b8f73f37  ..+7.B17n.47..?7
 14d0 ff984137 55e54837 c7e65237 43ed5c37  ..A7U.H7..R7C.\7
 14e0 8ec86437 9b477437 b1a89337 27a7a537  ..d7.Gt7...7'..7
 14f0 03bca637 e574ac37 c066b637 7475c237  ...7.t.7.f.7tu.7
 1500 f7b8c337 a57dc537 b34ec937 58b9da37  ...7.}.7.N.7X..7
 1510 6c62e837 398ce837 3498ff37 eab61d38  lb.79..74..7...8
 1520 cdb33438 8e574238 f1204a38 2d096238  ..48.WB8. J8-.b8
 1530 67916738 024d6938 274a6a38 c9cf8b38  g.g8.Mi8'Jj8...8
 1540 45c19038 2ffc9338 daff9f38 d105b338  E..8/..8...8...8
 1550 733cb938 3df2ca38 467bd338 3102db38  s<.8=..8F{.81..8
 1560 7ca0e338 9cdbea38 9242eb38 033b0b39  |..8...8.B.8.;.9
 1570 26bd2539 61952e39 d46c4739 d6c97a39  &.%9a..9.lG9..z9
 1580 c4358c39 73508d39 cf879939 7c73bf39  .5.9sP.9...9|s.9
 1590 c3eec239 686dc639 7f3bc739 4367c939  ...9hm.9.;.9Cg.9
 15a0 f6fdd339 8e70f039 3568043a 3e49063a  ...9.p.95h.:>I.:
 15b0 e256063a 2b8c0a3a f4ce2c3a 868a2d3a  .V.:+..:..,:..-:
 15c0 58c6423a bbae493a 5cde4e3a ec56743a  X.B:..I:\.N:.Vt:
 15d0 85c9763a 8b0e983a eb90ba3a 3bd4c83a  ..v:...:...:;..:
 15e0 fe0ae03a 6143ea3a b7e5133b f1ce1e3b  ...:aC.:...;...;
 15f0 fdfa263b c5fd373b 5cfc3b3b 76af433b  ..&;..7;\.;;v.C;
 1600 02ed763b ce7c8a3b e4078f3b ded0903b  ..v;.|.;...;...;
 1610 8f40993b b03e063c c1e4393c ec02493c  .@.;.>.<..9<..I<
 1620 19de493c bdbd4b3c 763a5b3c 6be86e3c  ..I<..K<v:[<k.n<
 1630 5217963c 1752983c 6a8bcc3c b971db3c  R..<.R.<j..<.q.<
 1640 41a1f73c 010d1a3d e5bf2c3d be542d3d  A..<...=..,=.T-=
 1650 e15a423d f762423d 741d4e3d 0c8d523d  .ZB=.bB=t.N=..R=
 1660 d656543d 3afb573d 2a745a3d fc00623d  .VT=:.W=*tZ=..b=
 1670 2a597d3d c47f8e3d a305913d e638a03d  *Y}=...=...=.8.=
 1680 a0ffb13d 5371bf3d ad50d73d 28e9de3d  ...=Sq.=.P.=(..=
 1690 2e4ceb3d 77b7273e 4d0a2a3e 7ff6383e  .L.=w.'>M.*>..8>
 16a0 43873b3e f703533e d179533e 14176d3e  C.;>..S>.yS>..m>
 16b0 ec99853e b0b88d3e e86c9b3e 758b9d3e  ...>...>.l.>u..>
 16c0 adcca73e 72c5d33e 2699003f 7f221a3f  ...>r..>&..?.".?
 16d0 751b1e3f eec54a3f 4c20663f 6871673f  u..?..J?L f?hqg?
 16e0 7cd1673f 3ce5683f 1eb17c3f 25f4813f  |.g?<.h?..|?%..?
 16f0 6e158a3f 4be3953f 7df6a43f a85ab13f  n..?K..?}..?.Z.?
 1700 b191b43f ba83be3f fd4aff3f 46fa0140  ...?...?.J.?F..@
 1710 29120740 c8d51e40 407e2540 5bfd4340  )..@...@@~%@[.C@
 1720 9b5a5d40 50a08540 5c348b40 51768b40  .Z]@P..@\4.@Qv.@
 1730 ffc4b040 8548cd40 2d0dce40 f224ce40  ...@.H.@-..@.$.@
 1740 41ccd240 7aa1d540 ea0def40 5ea9f340  A..@z..@...@^..@
 1750 38adf940 65f8fd40 47d8fe40 636f1c41  8..@e..@G..@co.A
 1760 870a2441 6a6f3941 b23a3d41 ae884a41  ..$Ajo9A.:=A..JA
 1770 f0588e41 a04b9141 d4079241 eff2aa41  .X.A.K.A...A...A
 1780 e42bae41 64a7b541 ff65b841 14a5be41  .+.Ad..A.e.A...A
 1790 ba94f641 97292f42 26c73b42 e2a04842  ...A.)/B&.;B..HB
 17a0 95f05242 809e6142 868dd042 a3b4d742  ..RB..aB...B...B
 17b0 1350dd42 afc0df42 6416ec42 a1acf442  .P.B...Bd..B...B
 17c0 3619f842 e7bc0f43 f5b11a43 a4ab1d43  6..B...C...C...C
 17d0 994d2f43 d18f3a43 88944943 81676743  .M/C..:C..IC.ggC
 17e0 abc77343 3a0f8243 15708f43 f2199643  ..sC:..C.p.C...C
 17f0 dc4a9a43 5fd6b243 5403ba43 746dbb43  .J.C_..CT..Ctm.C
 1800 e40bcd43 b709e443 3432e643 7f24f343  ...C...C42.C.$.C
 1810 f922fe43 125c2344 ca992844 32d02d44  .".C.\#D..(D2.-D
 1820 18513044 3a463a44 a30b6344 61ef6944  .Q0D:F:D..cDa.iD
 1830 07c27744 02147e44 a8829744 f23caf44  ..wD..~D...D.<.D
 1840 ab79b044 d57ed544 86e8de44 f334e044  .y.D.~.D...D.4.D
 1850 30bef344 0f980045 f53e1f45 254e2045  0..D...E.>.E%N E
 1860 a0a52245 66bf2445 a7082745 a38e2845  .."Ef.$E..'E..(E
 1870 fb472945 38672c45 904f3c45 c2144d45  .G)E8g,E.O<E..ME
 1880 414f7745 da398345 ac2d9245 335ea545  AOwE.9.E.-.E3^.E
 1890 7585b245 ea91c445 1e60c845 78d3cc45  u..E...E.`.Ex..E
 18a0 4b2bda45 e3badf45 d860f745 c222f845  K+.E...E.`.E.".E
 18b0 88c60246 49240946 2d951646 822b3846  ...FI$.F-..F.+8F
 18c0 8cd53a46 ae204e46 58555646 9b645d46  ..:F. NFXUVF.d]F
 18d0 b48d6746 7a3a8a46 54fa9a46 ff42ae46  ..gFz:.FT..F.B.F
 18e0 139dd046 13ddda46 78dbe046 b8a1e346  ...F...Fx..F...F
 18f0 9e8afb46 836cfe46 380e0547 e5da0e47  ...F.l.F8..G...G
 1900 7d9f2b47 aad03547 c5476b47 d3ea6b47  }.+G..5G.GkG..kG
 1910 491b7547 9c227c47 0fb69747 a3209847  I.uG."|G...G. .G
 1920 b4dd9f47 4037a547 d58aa747 5415ba47  ...G@7.G...GT..G
 1930 2405c247 f5b8d247 5fd0da47 8682e047  $..G...G_..G...G
 1940 32b7e647 f3d91b48 25011f48 b33d4748  2..G...H%..H.=GH
 1950 51854c48 eef46148 b0ad6a48 59656c48  Q.LH..aH..jHYelH
 1960 41036d48 b7f28148 f5369648 612da148  A.mH...H.6.Ha-.H
 1970 efb5bf48 6db0c548 c4a2c848 4f10d248  ...Hm..H...HO..H
 1980 b3b2de48 1ec1ec48 d33bee48 2c66ee48  ...H...H.;.H,f.H
 1990 6f453e49 3c2b5749 f2446149 2dd96149  oE>I<+WI.DaI-.aI
 19a0 535f6349 3d526949 f5cc6d49 6b7d7749  S_cI=RiI..mIk}wI
 19b0 54f77d49 b96f7e49 39c18f49 42c39b49  T.}I.o~I9..IB..I
 19c0 a1cbe349 b049ed49 abb0414a 23a05b4a  ...I.I.I..AJ#.[J
 19d0 9f8c734a 3506754a 96fd864a 59cad54a  ..sJ5.uJ...JY..J
 19e0 9946dd4a 105cdf4a d6bae24a 4e0af44a  .F.J.\.J...JN..J
 19f0 8b31274b 6daf3e4b af86874b 7233ae4b  .1'Km.>K...Kr3.K
 1a00 ec91c74b bbd9e34b 8c05ef4b 839bf24b  ...K...K...K...K
 1a10 1f5cf64b 0c04044c d297064c c258114c  .\.K...L...L.X.L
 1a20 ce8c2d4c 3f98384c b4da384c c7ee3c4c  ..-L?.8L..8L..<L
 1a30 9ef64a4c 5f46614c b27d9b4c 00e8b54c  ..JL_FaL.}.L...L
 1a40 daacb84c 0bbbc24c 36c2cf4c 6847d94c  ...L...L6..LhG.L
 1a50 4371ed4c 49a0f24c 647bf34c a02bf44c  Cq.LI..Ld{.L.+.L
 1a60 d2caf94c 4c1e034d dbaa084d 3303134d  ...LL..M...M3..M
 1a70 5f342e4d 9b794c4d 48f8604d b85b774d  _4.M.yLMH.`M.[wM
 1a80 901a9f4d 51fea54d 296fb54d c0cec94d  ...MQ..M)o.M...M
 1a90 67cf034e a4b8174e 0482344e 50b83a4e  g..N...N..4NP.:N
 1aa0 a78d444e 07914c4e 0818504e 6169724e  ..DN..LN..PNairN
 1ab0 7602814e 29e7824e d2948f4e 14d29c4e  v..N)..N...N...N
 1ac0 4f87aa4e 858fca4e 7e68d04e e3bed64e  O..N...N~h.N...N
 1ad0 2491e74e ea85ec4e b6aef54e 3b05fa4e  $..N...N...N;..N
 1ae0 0a2dfb4e 086b094f 9fd42b4f 2c2e354f  .-.N.k.O..+O,.5O
 1af0 144c5b4f e3825e4f 0c7e6a4f f6d66b4f  .L[O..^O.~jO..kO
 1b00 642e6e4f 3701734f 6106804f 444e904f  d.nO7.sOa..ODN.O
 1b10 7e17964f d908974f ff6e9c4f 109f9f4f  ~..O...O.n.O...O
 1b20 8164a34f c694a94f 7132b74f 94a3c14f  .d.O...Oq2.O...O
 1b30 a0fdd34f 3144ed4f adb91d50 5f492b50  ...O1D.O...P_I+P
 1b40 acd83050 b3663850 9f253a50 35ed4d50  ..0P.f8P.%:P5.MP
 1b50 0d5c5e50 a58d5e50 15568150 d69aa250  .\^P..^P.V.P...P
 1b60 9658a750 6663b450 05fcc450 aea0c950  .X.Pfc.P...P...P
 1b70 efdadf50 d5671f51 62672051 62b56251  ...P.g.Qbg Qb.bQ
 1b80 98eb8551 7b9d8d51 3299b051 3aa6c951  ...Q{..Q2..Q:..Q
 1b90 a13fe551 827ce751 9e04fc51 7a8b2252  .?.Q.|.Q...Qz."R
 1ba0 87d23552 41e63852 ed104152 f5346652  ..5RA.8R..AR.4fR
 1bb0 23086752 d70f6852 06496d52 3e9a7352  #.gR..hR.ImR>.sR
 1bc0 f3ad7852 aff68252 a9b99752 de9ea052  ..xR...R...R...R
 1bd0 ea47a252 688cac52 9023b952 54cbc652  .G.Rh..R.#.RT..R
 1be0 3b79d652 1b06d952 6354da52 d4e6dd52  ;y.R...RcT.R...R
 1bf0 4966de52 a102e152 78bce352 bb70ea52  If.R...Rx..R.p.R
 1c00 9298f552 66b7fa52 f7ee2453 0f612853  ...Rf..R..$S.a(S
 1c10 6c6e2a53 7c5f3f53 f6506d53 7d167053  ln*S|_?S.PmS}.pS
 1c20 cf617353 377c8053 d3758253 80879053  .asS7|.S.u.S...S
 1c30 9e099c53 ef3aa353 66daab53 b570ba53  ...S.:.Sf..S.p.S
 1c40 9bcbc853 2f3eca53 408dde53 8ba8f853  ...S/>.S@..S...S
 1c50 d0a9fb53 88a83154 4cce4554 8d144a54  ...S..1TL.ET..JT
 1c60 75604a54 16245d54 000c7c54 3ce17e54  u`JT.$]T..|T<.~T
 1c70 42d7af54 9cafec54 b4a2ed54 df6a0655  B..T...T...T.j.U
 1c80 8efc1555 01f62055 089b4855 afd85255  ...U.. U..HU..RU
 1c90 07c05755 a7cf7955 97c68255 2e7b9555  ..WU..yU...U.{.U
 1ca0 9c1fa955 2ae1d655 624cf055 876e1256  ...U*..UbL.U.n.V
 1cb0 b0dd1256 7f652456 e2352556 c2542656  ...V.e$V.5%V.T&V
 1cc0 3fa04656 80d74c56 38dc7a56 3fbd8056  ?.FV..LV8.zV?..V
 1cd0 90428356 e617a156 f35fbe56 b216c556  .B.V...V._.V...V
 1ce0 3e26df56 4d1cf856 b9b0f856 6834fe56  >&.VM..V...Vh4.V
 1cf0 c10b0057 38482757 11022c57 003a3057  ...W8H'W..,W.:0W
 1d00 816a3257 e3b93757 ff086b57 49c16b57  .j2W..7W..kWI.kW
 1d10 83647657 11558757 5dc6a257 6eb0af57  .dvW.U.W]..Wn..W
 1d20 2bb8b457 b2ceb657 3c97c557 73bcce57  +..W...W<..Ws..W
 1d30 2e6ad757 e673f457 9a2e3b58 56f53b58  .j.W.s.W..;XV.;X
 1d40 c8b03d58 a0866458 50988e58 eaa09b58  ..=X..dXP..X...X
 1d50 e34aab58 ab01cb58 6f23e658 3434ef58  .J.X...Xo#.X44.X
 1d60 7d91f558 4b582c59 d6622f59 9bca4459  }..XKX,Y.b/Y..DY
 1d70 dd8a4859 e21f5259 bfbf6959 f0357a59  ..HY..RY..iY.5zY
 1d80 12c48a59 c4098e59 9a358f59 0e93a559  ...Y...Y.5.Y...Y
 1d90 40d1b459 97babb59 26adce59 459ad959  @..Y...Y&..YE..Y
 1da0 9204ed59 14ce025a 315c215a 46ca215a  ...Y...Z1\!ZF.!Z
 1db0 7172325a 8e0f425a c3b2465a 4ce4495a  qr2Z..BZ..FZL.IZ
 1dc0 fa11515a 2022555a ec505b5a 345d8a5a  ..QZ "UZ.P[Z4].Z
 1dd0 fd8ba35a a2e4a65a 43f6ad5a 8cb3bc5a  ...Z...ZC..Z...Z
 1de0 bd7ed65a 52e6dd5a 1a8aec5a 7285045b  .~.ZR..Z...Zr..[
 1df0 4be8135b 238c665b 8e4e675b 5b08745b  K..[#.f[.Ng[[.t[
 1e00 3ac3905b 54c5a35b 9813ad5b a1feb15b  :..[T..[...[...[
 1e10 3bd4c35b 57b7db5b 85d2db5b 6220e25b  ;..[W..[...[b .[
 1e20 e14f1f5c b7f7265c 74ae275c 4a753f5c  .O.\..&\t.'\Ju?\
 1e30 b3964d5c 40e1505c 7e4f635c 188f655c  ..M\@.P\~Oc\..e\
 1e40 e3236b5c b4216e5c e77a7c5c 7442995c  .#k\.!n\.z|\tB.\
 1e50 24c9a15c 5162b45c fd7db95c f0ece05c  $..\Qb.\.}.\...\
 1e60 1dcfe75c f0e2fd5c db340e5d 00cf0e5d  ...\...\.4.]...]
 1e70 b96b115d a71e165d 3370345d 3bae395d  .k.]...]3p4];.9]
 1e80 b652515d 8fb0525d bdac645d 1e79785d  .RQ]..R]..d].yx]
 1e90 49d07b5d 1e86835d f85c8c5d 34259e5d  I.{]...].\.]4%.]
 1ea0 35afac5d 7f10b65d 0467e65d b2a3ff5d  5..]...].g.]...]
 1eb0 aab10d5e a2b1285e 01183d5e 49f43d5e  ...^..(^..=^I.=^
 1ec0 295f485e 4026705e 86f2795e ce58aa5e  )_H^@&p^..y^.X.^
 1ed0 abdeb15e 602fb95e 9f85cc5e 983dd15e  ...^`/.^...^.=.^
 1ee0 bebaf85e 2707005f e2fe0b5f 28ae215f  ...^'.._..._(.!_
 1ef0 878e2d5f 3002385f 3536465f ab70575f  ..-_0.8_56F_.pW_
 1f00 f22d5c5f a26a5e5f 3197655f a05e6f5f  .-\_.j^_1.e_.^o_
 1f10 3e18715f 85bf765f 6a79845f 9534895f  >.q_..v_jy._.4._
 1f20 6b588b5f d65e925f c225a05f 1a8ea05f  kX._.^._.%._..._
 1f30 77d8ae5f affcaf5f c5fdcb5f b6bed05f  w.._..._..._..._
 1f40 7276d25f 8e37d35f 55f9f55f 5760fa5f  rv._.7._U.._W`._
 1f50 46e2fe5f 4e8c0d60 546f0e60 404a1060  F.._N..`To.`@J.`
 1f60 493b1e60 bb791e60 10993f60 1ef56460  I;.`.y.`..?`..d`
 1f70 4f807660 781c8960 3ac68960 00d29760  O.v`x..`:..`...`
 1f80 f87e9b60 0c54b860 a152b960 993dd660  .~.`.T.`.R.`.=.`
 1f90 9e7aff60 283a0f61 7d400f61 ea3b2261  .z.`(:.a}@.a.;"a
 1fa0 e0862661 c44e2c61 8bac3361 69453d61  ..&a.N,a..3aiE=a
 1fb0 085b4561 a96c5d61 0da86b61 aba68261  .[Ea.l]a..ka...a
 1fc0 c87c8661 22839061 c1f3ce61 ad19e461  .|.a"..a...a...a
 1fd0 646dec61 ca52fd61 48d90262 0e801b62  dm.a.R.aH..b...b
 1fe0 1db62662 80434362 03fe4e62 e0b94f62  ..&b.CCb..Nb..Ob
 1ff0 78bb6662 f92a7962 13d98b62 eb86a962  x.fb.*yb...b...b
 2000 3299bc62 07d6c362 45a5d362 ab8be362  2..b...bE..b...b
 2010 6f6de462 9cf0fb62 d2e62063 97f22c63  om.b...b.. c..,c
 2020 9dd64b63 3a464e63 58f65d63 ddc36663  ..Kc:FNcX.]c..fc
 2030 31a1ab63 23c1bc63 59e7c763 b10cdb63  1..c#..cY..c...c
 2040 2603de63 45dafb63 6f031364 8b741864  &..cE..co..d.t.d
 2050 b25e1f64 259a2664 16422764 dd3f3f64  .^.d%.&d.B'd.??d
 2060 eff94b64 b4835e64 29166064 41697464  ..Kd..^d).`dAitd
 2070 c87c7c64 dc9c8164 ffa08564 1f078764  .||d...d...d...d
 2080 ead29564 a0f09b64 7dc9a664 6a8bba64  ...d...d}..dj..d
 2090 f0e9bd64 2409d264 6eefd464 8e930a65  ...d$..dn..d...e
 20a0 21111165 b8a23065 a1f27865 c28a9965  !..e..0e..xe...e
 20b0 8702a665 150fae65 028fb765 4c0ece65  ...e...e...eL..e
 20c0 71a3cf65 3eefcf65 4f92dd65 55ebe765  q..e>..eO..eU..e
 20d0 48d5e965 f231f165 c3790466 86c00666  H..e.1.e.y.f...f
 20e0 77660766 b2770766 53270f66 6d431066  wf.f.w.fS'.fmC.f
 20f0 272f1d66 368e2166 f4122e66 0e163d66  '/.f6.!f...f..=f
 2100 e59b3e66 8bf63e66 2a195566 a2027666  ..>f..>f*.Uf..vf
 2110 b39c7e66 5716a066 2e15b566 6eacd966  ..~fW..f...fn..f
 2120 fcbcef66 4cd4f866 7aca2267 d9b52867  ...fL..fz."g..(g
 2130 c2723b67 b0a63c67 66125167 cd795a67  .r;g..<gf.Qg.yZg
 2140 67bc9667 ce2a9d67 efceb767 dd2dc267  g..g.*.g...g.-.g
 2150 fd3fc267 cb4dd567 8c6fdb67 245d0668  .?.g.M.g.o.g$].h
 2160 cd960868 6be00a68 43031668 9a1e1968  ...hk..hC..h...h
 2170 64a61f68 293f2e68 8c774e68 c8e65168  d..h)?.h.wNh..Qh
 2180 baa45568 c3775d68 97be6e68 d6427268  ..Uh.w]h..nh.Brh
 2190 aa867668 09927e68 83be9268 b04c9e68  ..vh..~h...h.L.h
 21a0 5a1fba68 4160d468 9776f468 b924fb68  Z..hA`.h.v.h.$.h
 21b0 4f3a2169 f1292b69 d12d3969 7e6e4069  O:!i.)+i.-9i~n@i
 21c0 26145869 82ac6d69 3aa58769 3ab09869  &.Xi..mi:..i:..i
 21d0 326b9d69 a42daa69 736cc069 c00ac769  2k.i.-.isl.i...i
 21e0 4840c969 9c67d169 29a2d569 f9a2d869  H@.i.g.i)..i...i
 21f0 72cfe269 2abbe769 266e026a 50782b6a  r..i*..i&n.jPx+j
 2200 9e80356a 95fa496a e1cf546a 2e18606a  ..5j..Ij..Tj..`j
 2210 9f9f886a 2a6f896a bba6986a bcbdb96a  ...j*o.j...j...j
 2220 644adb6a 2cece16a 986aea6a 6ed3256b  dJ.j,..j.j.jn.%k
 2230 fcc53d6b 4da94c6b 4fcb516b 47596b6b  ..=kM.LkO.QkGYkk
 2240 e2566d6b 22657a6b 7150a66b 50f1b56b  .Vmk"ezkqP.kP..k
 2250 cb44b76b 5e84c76b a002f36b eef0346c  .D.k^..k...k..4l
 2260 4bc0476c 269a4f6c 884a7f6c e89d916c  K.Gl&.Ol.J.l...l
 2270 9dcb926c 54c89d6c 28daa26c 0295a96c  ...lT..l(..l...l
 2280 328edf6c 2822e06c 13fce36c 29c1ef6c  2..l(".l...l)..l
 2290 14a8496d 9f924a6d f714536d 8282546d  ..Im..Jm..Sm..Tm
 22a0 fbfa546d 0979556d 9f8b566d 05a15d6d  ..Tm.yUm..Vm..]m
 22b0 38fa626d 3e006d6d b2cc6e6d eef5706d  8.bm>.mm..nm..pm
 22c0 1fac826d d7fb906d 0fe29d6d c7d8b96d  ...m...m...m...m
 22d0 a0f7106e ebd8246e eaa2306e eb0e3d6e  ...n..$n..0n..=n
 22e0 0b8a3f6e 51d03f6e c00d666e 1889966e  ..?nQ.?n..fn...n
 22f0 2e8fc86e 8112cd6e f582d86e a4fee36e  ...n...n...n...n
 2300 0328ea6e 643c096f 4eec286f 57563a6f  .(.nd<.oN.(oWV:o
 2310 8dbc596f 41d55b6f 92b56a6f 3334796f  ..YoA.[o..jo34yo
 2320 c20e836f 7a1d866f d2a38f6f bb73b16f  ...oz..o...o.s.o
 2330 db60b36f 1708c06f 4162d56f 88e1f36f  .`.o...oAb.o...o
 2340 aca4f66f cbf70870 fae71570 cb551770  ...o...p...p.U.p
 2350 dea72170 a1e03e70 1c8c4b70 6ced6e70  ..!p..>p..Kpl.np
 2360 37afb470 0e6fb570 69fcbf70 c12dc470  7..p.o.pi..p.-.p
 2370 2e48cb70 4058d670 81331171 5b781c71  .H.p@X.p.3.q[x.q
 2380 00c51f71 ec122a71 0f2f4271 bf0d4971  ...q..*q./Bq..Iq
 2390 1f295771 4cdf6571 824d6771 f4748071  .)WqL.eq.Mgq.t.q
 23a0 e1948471 e1888571 307f8871 0c429071  ...q...q0..q.B.q
 23b0 fc86a071 529eb671 8d32bb71 2a6cd371  ...qR..q.2.q*l.q
 23c0 4436e771 aecef771 7a880d72 24ee0e72  D6.q...qz..r$..r
 23d0 b5321472 73fd2072 c9ad2172 50392b72  .2.rs. r..!rP9+r
 23e0 f2063d72 8dc55772 25a97372 641fb772  ..=r..Wr%.srd..r
 23f0 ea5fd772 6149e172 02acef72 a258f372  ._.raI.r...r.X.r
 2400 f0901373 28e61673 55061d73 38402073  ...s(..sU..s8@ s
 2410 25a42973 d45c3f73 ad534573 70e65973  %.)s.\?s.SEsp.Ys
 2420 b7356f73 fb7a8773 8b379d73 b2eec173  .5os.z.s.7.s...s
 2430 10eed173 c7c2d973 0b75e973 6007f073  ...s...s.u.s`..s
 2440 e2aafd73 75fa1d74 86103974 09893c74  ...su..t..9t..<t
 2450 97634d74 6add5b74 29b75e74 65746574  .cMtj.[t).^tetet
 2460 c04b6f74 98737674 13968d74 fa8fb074  .Kot.svt...t...t
 2470 c8d7b274 d7c3ba74 d85bc774 ec6dc874  ...t...t.[.t.m.t
 2480 14f2eb74 835cec74 cd43fc74 10d00175  ...t.\.t.C.t...u
 2490 5dff2475 ec912c75 a2ce4875 9b935675  ].$u..,u..Hu..Vu
 24a0 81ce5675 6eae6775 5ffa7775 de768275  ..Vun.gu_.wu.v.u
 24b0 d0108575 b4d4e375 3b801276 e6011b76  ...u...u;..v...v
 24c0 91f83776 50a04376 1bc44376 325c5e76  ..7vP.Cv..Cv2\^v
 24d0 9c036e76 c4669176 3bdec976 872be076  ..nv.f.v;..v.+.v
 24e0 979d0d77 d1b44577 608a6177 05c07c77  ...w..Ew`.aw..|w
 24f0 bc5d7e77 59318277 11d78b77 c3568e77  .]~wY1.w...w.V.w
 2500 36079677 eb339e77 f9a4c277 1a8bd677  6..w.3.w...w...w
 2510 b60dea77 b1960c78 8c2c0d78 07632778  ...w...x.,.x.c'x
 2520 12302c78 41d03078 67e63b78 bc5e4d78  .0,xA.0xg.;x.^Mx
 2530 65b88978 551f9478 fa239c78 8ad0b078  e..xU..x.#.x...x
 2540 ae5dd878 24fddd78 aa35de78 7171df78  .].x$..x.5.xqq.x
 2550 079ae278 af20f278 86f7fd78 442c2d79  ...x. .x...xD,-y
 2560 59c43979 98174879 30d55b79 4d576679  Y.9y..Hy0.[yMWfy
 2570 36ee6c79 e9898779 27de8879 3b93b579  6.ly...y'..y;..y
 2580 7799c379 d035d579 4f71ea79 22c1f079  w..y.5.yOq.y"..y
 2590 5a13ff79 ffd7027a 577c0e7a 9923157a  Z..y...zW|.z.#.z
 25a0 0d8d1a7a 61ec2b7a f9f0537a 120e547a  ...za.+z..Sz..Tz
 25b0 8b48547a 9a036c7a d4cb707a 42c4887a  .HTz..lz..pzB..z
 25c0 46e5d77a 9c93da7a d31cfd7a 905c087b  F..z...z...z.\.{
 25d0 16d90a7b 8b5f2b7b 31de317b 3f73357b  ...{._+{1.1{?s5{
 25e0 e98a3b7b d269487b c1844e7b e926557b  ..;{.iH{..N{.&U{
 25f0 15d2687b f3ef867b 76d6967b 3a8dab7b  ..h{...{v..{:..{
 2600 8e67ac7b fb97c67b 08b1d67b d7d2e37b  .g.{...{...{...{
 2610 2c8af27b f580057c 01da117c a467247c  ,..{...|...|.g$|
 2620 3bdf457c 34824b7c ab2d6f7c d6277d7c  ;.E|4.K|.-o|.'}|
 2630 e85b807c 66ee827c e396927c 5b42937c  .[.|f..|...|[B.|
 2640 ad299b7c 20919b7c e14e9d7c 2caeab7c  .).| ..|.N.|,..|
 2650 26dac77c 8335d17c 3155d27c 64edd87c  &..|.5.|1U.|d..|
 2660 2d17dd7c d08efe7c 3399197d 940d337d  -..|...|3..}..3}
 2670 76d95c7d 26a87c7d c17d817d c8b7827d  v.\}&.|}.}.}...}
 2680 962f847d 663bac7d d697b57d f7e1bc7d  ./.}f;.}...}...}
 2690 51c7c17d 5875f87d 8f0b0a7e f723177e  Q..}Xu.}...~.#.~
 26a0 7c28277e c7483c7e 8838417e eeb8447e  |('~.H<~.8A~..D~
 26b0 c4694a7e bda64a7e 88de537e 2b287f7e  .iJ~..J~..S~+(.~
 26c0 5f2a887e 1433907e 691ba57e b98eb77e  _*.~.3.~i..~...~
 26d0 f8a1b87e 3e8bc67e 97e3c67e 5ee5d77e  ...~>..~...~^..~
 26e0 6850e37e 31cced7e 5429f47e b712f97e  hP.~1..~T).~...~
 26f0 cda5027f 3118107f 05a6107f 3404247f  ....1.......4.$.
 2700 5ec94b7f 1f738d7f 85338f7f 9958997f  ^.K..s...3...X..
 2710 1517a67f f2c8b17f 7689c07f d0d2c07f  ........v.......
 2720 7f5dca7f 0039db7f 464ee87f a4245405  .]...9..FN...$T.
 2730 f4ce2c3a 644adb6a 1997012b eef46148  ..,:dJ.j...+..aH
 2740 efe53900 ecee0218 3e8bc67e 404a1060  ..9.....>..~@J.`
 2750 f80de22e 726bf42c 535f6349 7989f710  ....rk.,S_cIy...
 2760 689b3608 3b93b579 86dba713 59cad54a  h.6.;..y....Y..J
 2770 d528b91b c2723b67 bd04fb11 109f9f4f  .(...r;g.......O
 2780 d588fe1a 4c8bd700 2dd96149 608a6177  ....L...-.aI`.aw
 2790 e1d18f2b 24ee0e72 0c04044c 716e4a32  ...+$..r...LqnJ2
 27a0 55061d73 7d91f558 5fda421d 31de317b  U..s}..X_.B.1.1{
 27b0 95fa8a01 e0d8330e ec122a71 66dbf10e  ......3...*qf...
 27c0 493b1e60 4feb0126 54cbc652 512b9a36  I;.`O..&T..RQ+.6
 27d0 c8d51e40 f8104428 398ce837 000c7c54  ...@..D(9..7..|T
 27e0 9204ed59 97f22c63 9a1e1968 31b4ef28  ...Y..,c...h1..(
 27f0 f7e1bc7d 6834fe56 41245313 dea72170  ...}h4.VA$S...!p
 2800 d6622f59 c8864d30 51854c48 6a8bcc3c  .b/Y..M0Q.LHj..<
 2810 81fbe022 67e63b78 03e52821 66bf2445  ..."g.;x..(!f.$E
 2820 bb70ea52 2c66ee48 6a6f3941 00af051a  .p.R,f.Hjo9A....
 2830 e376560b a67cf323 7172325a 085b4561  .vV..|.#qr2Z.[Ea
 2840 2ae1d655 296fb54d e7531430 a04b9141  *..U)o.M.S.0.K.A
 2850 ff42ae46 8d144a54 b1960c78 80b20019  .B.F..JT...x....
 2860 8c05ef4b 7fc9790a 1ec1ec48 e4273a22  ...K..y....H.':"
 2870 5a13ff79 82105b1d 5716a066 120c482b  Z..y..[.W..f..H+
 2880 105cdf4a 86f7fd78 f5346652 8b379d73  .\.J...x.4fR.7.s
 2890 5992282f 23fdf91e adcca73e cd43fc74  Y.(/#......>.C.t
 28a0 e3a5222a 72cfe269 27bd1b28 c3568e77  .."*r..i'..(.V.w
 28b0 839bf24b 88de537e ec0fc631 cbfa1a19  ...K..S~...1....
 28c0 7585b245 905c087b 7c5f3f53 612da148  u..E.\.{|_?Sa-.H
 28d0 c17d817d 84e5f42c 7f5dca7f 6c6e2a53  .}.}...,.]..ln*S
 28e0 baa45568 88a83154 154a260a 263a3317  ..Uh..1T.J&.&:3.
 28f0 a145b81a e38c570e 464ee87f a0f7106e  .E....W.FN.....n
 2900 6663b450 9b6c6008 9dcb926c f905f424  fc.P.l`....l...$
 2910 8e0f425a ab1ec22c d0d2c07f 1c322512  ..BZ...,.....2%.
 2920 300d7d20 e2aafd73 9813ad5b 307f8871  0.} ...s...[0..q
 2930 19621b37 5da1d721 9fb73e35 a1cbe349  .b.7]..!..>5...I
 2940 0f980045 962f847d 97babb59 c87c8661  ...E./.}...Y.|.a
 2950 33909400 322de11e 6871673f 3afb573d  3...2-..hqg?:.W=
 2960 80ead00c 46fa0140 8112cd6e aa69a533  ....F..@...n.i.3
 2970 6f23e658 60a9741c 50316135 7ca0e338  o#.X`.t.P1a5|..8
 2980 bda90926 188f655c cd3ea224 e617a156  ...&..e\.>.$...V
 2990 444e904f 53f1bd28 30410f0a c50ab41c  DN.OS..(0A......
 29a0 06900c2d 12302c78 c2144d45 fabbeb24  ...-.0,x..ME...$
 29b0 4966de52 f6614f0f d1a7c515 7e68d04e  If.R.aO.....~h.N
 29c0 dc4a9a43 51fea54d bdc31125 0a10ec31  .J.CQ..M...%...1
 29d0 77660766 eacefe2c 2e15b566 5cde4e3a  wf.f...,...f\.N:
 29e0 40e1505c 4d03a523 69453d61 269f242f  @.P\M..#iE=a&.$/
 29f0 6a79845f cbdff32d b916d00b 9946dd4a  jy._...-.....F.J
 2a00 f8a1b87e 15220c08 0896c122 8838417e  ...~.".....".8A~
 2a10 9f8b566d 70d5ac33 8e930a65 3d986a2c  ..Vmp..3...e=.j,
 2a20 ca992844 95f05242 a9b4881c d58aa747  ..(D..RB.......G
 2a30 b7e5133b 29b75e74 c390f41e 58f65d63  ...;).^t....X.]c
 2a40 bf91eb2d d478b320 6f6b8f2a 59e7c763  ...-.x. ok.*Y..c
 2a50 b2ceb657 00e8b54c 983dd15e 46676812  ...W...L.=.^Fgh.
 2a60 61952e39 31e25604 d0dff827 4e2d0b10  a..91.V....'N-..
 2a70 3536465f fa239c78 c5476b47 eb339e77  56F_.#.x.GkG.3.w
 2a80 fc00623d a2027666 d3ea6b47 13ddda46  ..b=..vf..kG...F
 2a90 c4669176 55e54837 b2770766 f7ee2453  .f.vU.H7.w.f..$S
 2aa0 e017d62d ffd7027a 50392b72 7653e024  ...-...zP9+rvS.$
 2ab0 07c05755 ca318102 ba94f641 22246306  ..WU.1.....A"$c.
 2ac0 9c227c47 33e90f0b 3334796f ec2c380c  ."|G3...34yo.,8.
 2ad0 0979556d c9cf8b38 67916738 6daf3e4b  .yUm...8g.g8m.>K
 2ae0 4515d507 858fca4e b9b0f856 d4d0f630  E......N...V...0
 2af0 746ace32 c1e3fe23 b9ff3a01 67bc9667  tj.2...#..:.g..g
 2b00 adbd3602 d6277d7c b268db15 b924fb68  ..6..'}|.h...$.h
 2b10 d6e04f25 57f52b2c 5fcdb830 686dc639  ..O%W.+,_..0hm.9
 2b20 ab79b044 e42bae41 bd3acf17 8e67ac7b  .y.D.+.A.:...g.{
 2b30 de768275 ab5c8f2c fb472945 ce2a9d67  .v.u.\.,.G)E.*.g
 2b40 5875f87d 81331171 8d32bb71 f334e044  Xu.}.3.q.2.q.4.D
 2b50 9ff70407 98174879 6169724e 459ad959  ......HyairNE..Y
 2b60 4f71ea79 dedd9e2d 2a597d3d 6db0c548  Oq.y...-*Y}=m..H
 2b70 cb486913 f2063d72 d86bfa00 023ed402  .Hi...=r.k...>..
 2b80 ed104152 c4a2c848 284dfa2a afd85255  ..AR...H(M.*..RU
 2b90 f85c8c5d c9933436 57a6300c 03bca637  .\.]..46W.0....7
 2ba0 8fb0525d d78b5d14 f2a2ef23 d6025100  ..R]..]....#..Q.
 2bb0 de2da232 a3bcc30a c8b03d58 53cdbc1f  .-.2......=XS...
 2bc0 d7c3ba74 d4d55406 010d1a3d a57dc537  ...t..T....=.}.7
 2bd0 97be6e68 c28a9965 49d07b5d 41d55b6f  ..nh...eI.{]A.[o
 2be0 e7bbf821 d179533e 254c6010 ce5c1335  ...!.yS>%L`..\.5
 2bf0 de25451e 64ef4b2f 66ab781b ae204e46  .%E.d.K/f.x.. NF
 2c00 a3752d17 809e6142 bbe7d300 2a6cd371  .u-...aB....*l.q
 2c10 50a08540 ff086b57 5f46614c 3ecd7e24  P..@..kW_FaL>.~$
 2c20 f22f4016 6ef1e421 f3ad7852 fd4aff3f  ./@.n..!..xR.J.?
 2c30 adaa732c 83d03f25 6847d94c a258f372  ..s,..?%hG.L.X.r
 2c40 fd09d408 3ee8941b 13fce36c 35afac5d  ....>......l5..]
 2c50 16245d54 9a2e3b58 e3825e4f d7d72f20  .$]T..;X..^O../ 
 2c60 6e09970f f0e9bd64 afcee410 aad03547  n......d......5G
 2c70 50782b6a e978ba26 a7cf7955 5fd6b243  Px+j.x.&..yU_..C
 2c80 b1a89337 1e60c845 ec99853e 5dfc4b29  ...7.`.E...>].K)
 2c90 00d29760 4d576679 3d231e10 8bddd524  ...`MWfy=#.....$
 2ca0 35ed4d50 3ab09869 c7e9d801 ba4f1127  5.MP:..i.....O.'
 2cb0 ee545b01 21111165 1df6b633 b2a3ff5d  .T[.!..e...3...]
 2cc0 ac05950d d31cfd7a 46ca215a d89bf62e  .......zF.!Z....
 2cd0 4160d468 7442995c f3ef867b 78e3b425  A`.htB.\...{x..%
 2ce0 47701234 d08efe7c cbf70870 b570ba53  Gp.4...|...p.p.S
 2cf0 c7d8b96d 55f9f55f e0db170b 0adbb40b  ...mU.._........
 2d00 fca8bf07 b2468930 42d7af54 7c50860d  .....F.0B..T|P..
 2d10 2e7b9555 0a3b310d b2e49c13 5e73ee30  .{.U.;1.....^s.0
 2d20 bf5f8b0f d3758253 6e36920c c00ac769  ._...u.Sn6.....i
 2d30 4436de34 50f1b56b 2b19481e 760fbb2d  D6.4P..k+.H.v..-
 2d40 cb369701 aabfff12 20d44736 c03ffd06  .6...... .G6.?..
 2d50 3a8dab7b a63ff611 3f38b41b 9a036c7a  :..{.?..?8....lz
 2d60 d908974f 05a3f52b 7fb0562e a30b6344  ...O...+..V...cD
 2d70 e6011b76 7d400f61 54c5a35b a3b4d742  ...v}@.aT..[...B
 2d80 66b7fa52 4fcb516b 40256726 bbd9e34b  f..RO.Qk@%g&...K
 2d90 fc86a071 852aaf01 83647657 2d5f3316  ...q.*...dvW-_3.
 2da0 f280ab04 ca491608 eec54a3f c45f830f  .....I....J?._..
 2db0 54fa9a46 e6dd2211 d57ed544 e0862661  T..F.."..~.D..&a
 2dc0 3bdf457c d4b6aa2f 23086752 22c1f079  ;.E|.../#.gR"..y
 2dd0 27a7a537 81d90f05 882e3935 b20da510  '..7......95....
 2de0 86edd826 243b380e cdb33438 28daa26c  ...&$;8...48(..l
 2df0 51d03f6e 3498ff37 4773061a 1df3bc20  Q.?n4..7Gs..... 
 2e00 d656543d 0a818522 691ba57e 4eb37a34  .VT=..."i..~N.z4
 2e10 90428356 15568150 74ae275c 69bb2433  .B.V.V.Pt.'\i.$3
 2e20 31cced7e b48d6746 4b1c5e2b 781c8960  1..~..gFK.^+x..`
 2e30 c3eec239 b33d4748 62672051 e77ef715  ...9.=GHbg Q.~..
 2e40 e302e713 66827c02 d4e6dd52 3370345d  ....f.|....R3p4]
 2e50 2b8c0a3a 5bfd4340 9357bd36 31a1ab63  +..:[.C@.W.61..c
 2e60 b23a3d41 bf458505 b98eb77e f87e9b60  .:=A.E.....~.~.`
 2e70 ad429836 4fc46d0a febea101 6d30f119  .B.6O.m.....m0..
 2e80 2e4ceb3d f714536d 43633912 6aa2b213  .L.=..SmCc9.j...
 2e90 0d5d892b 0da86b61 4b001332 89ecc42d  .].+..kaK..2...-
 2ea0 e43e8706 24fddd78 890fee15 91f83776  .>..$..x......7v
 2eb0 3303134d 8f71122a 1485830d 7df6a43f  3..M.q.*....}..?
 2ec0 a467247c 733cb938 b782890f 26c73b42  .g$|s<.8....&.;B
 2ed0 69fcbf70 87d23552 25ea7d0a 8e277423  i..p..5R%.}..'t#
 2ee0 c20e836f 6a8bba64 49a0f24c c9069a0e  ...oj..dI..L....
 2ef0 9b794c4d a002f36b bb73b16f 86103974  .yLM...k.s.o..9t
 2f00 529eb671 2b4e4923 50b83a4e 4116621e  R..q+NI#P.:NA.b.
 2f10 96e7d833 c2c43904 c9c9001e ffa08564  ...3..9........d
 2f20 6b588b5f b0ad6a48 abc77343 c495c92d  kX._..jH..sC...-
 2f30 4ac94c23 4cd4f866 2ffc9338 9776f468  J.L#L..f/..8.v.h
 2f40 6595141d 10993f60 4f807660 306ae723  e.....?`O.v`0j.#
 2f50 079ae278 5abaf20a 00cf0e5d 3bd4c83a  ...xZ......];..:
 2f60 1a8aec5a bbae493a 8019c919 4be8135b  ...Z..I:....K..[
 2f70 c3b7f506 fe0ae03a c44e2c61 5f415e05  .......:.N,a_A^.
 2f80 2896ce06 b80d6c20 15e8f732 09286b30  (.....l ...2.(k0
 2f90 52554b05 870a2441 b4ac2012 40d1b459  RUK...$A.. .@..Y
 2fa0 2c1a5535 eb0e3d6e b6bed05f c47f8e3d  ,.U5..=n..._...=
 2fb0 ab742f1c bebaf85e f762423d 29120740  .t/....^.bB=)..@
 2fc0 07d6c362 52e6dd5a 21161217 83276206  ...bR..Z!....'b.
 2fd0 28e9de3d 2650972f eaa09b58 aca4f66f  (..=&P./...X...o
 2fe0 1dcfe75c 442c2d79 61fd3e16 3404247f  ...\D,-ya.>.4.$.
 2ff0 c661d717 3a0f8243 5dff2475 e77a7c5c  .a..:..C].$u.z|\
 3000 92be3500 b34ec937 15d2687b f59ad81d  ..5..N.7..h{....
 3010 617bc61f b191b43f ce7c8a3b bfbf6959  a{.....?.|.;..iY
 3020 8a07702e 69eaf703 afc0df42 452cab2c  ..p.i......BE,.,
 3030 f9daf01d bb731f20 b1c17b0f 2766e62c  .....s. ..{.'f.,
 3040 71353d05 4c0c2720 b10cdb63 54f77d49  q5=.L.' ...cT.}I
 3050 f04f0a19 41697464 a7aca814 5760fa5f  .O..Aitd....W`._
 3060 3002385f 9b5a5d40 f1204a38 3aa58769  0.8_.Z]@. J8:..i
 3070 49fe972d 2abbe769 c926ab33 167fce15  I..-*..i.&.3....
 3080 74e42112 30268e14 d5671f51 38dc7a56  t.!.0&...g.Q8.zV
 3090 ea901525 932c2c04 dd3f3f64 f2f8f119  ...%.,,..??d....
 30a0 ea250129 be636612 98eb8551 fbfa546d  .%.).cf....Q..Tm
 30b0 da73360f 14488e0b 9f924a6d 83999132  .s6..H....Jm...2
 30c0 85811309 118dc70d 83be9268 d7fb906d  ...........h...m
 30d0 8316bc31 0015b40d f9f0537a ae982d14  ...1......Sz..-.
 30e0 b6499e04 536ac500 342b2302 0e801b62  .I..Sj..4+#....b
 30f0 f0357a59 a234261a 4b582c59 de19fb18  .5zY.4&.KX,Y....
 3100 b216c556 42c39b49 daacb84c 0903051c  ...VB..I...L....
 3110 0f2f4271 81676743 a42daa69 4b53be16  ./Bq.ggC.-.iKS..
 3120 affcaf5f 7df8b01e 76af433b 9a358f59  ..._}...v.C;.5.Y
 3130 f0588e41 9e7aff60 07c27744 345d8a5a  .X.A.z.`..wD4].Z
 3140 274a6a38 b7845a06 1a18ee36 4281d20a  'Jj8..Z....6B...
 3150 0467e65d b39c7e66 a71e165d 25a97372  .g.]..~f...]%.sr
 3160 14ce025a ff65b841 2d951646 66b3d82f  ...Z.e.A-..Ff../
 3170 60d3150b 751b1e3f 2a195566 3421e201  `...u..?*.Uf4!..
 3180 32a6961b ff6e9c4f a6b6cd02 99d0a90a  2....n.O........
 3190 f6506d53 d188430d e9afa107 3eefcf65  .PmS..C.....>..e
 31a0 3f950f37 3b801276 4cce4554 d70f6852  ?..7;..vL.ET..hR
 31b0 e245680c 2e48cb70 2caeab7c 2cece16a  .Eh..H.p,..|,..j
 31c0 3ce17e54 50a9be1e fb97c67b c5fd373b  <.~TP......{..7;
 31d0 994d2f43 b2839f0e 73980308 32b7e647  .M/C....s...2..G
 31e0 adb91d50 3432e643 e2a9d526 f5c75101  ...P42.C...&..Q.
 31f0 3ac3905b 7689c07f a8e07134 0b75e973  :..[v.....q4.u.s
 3200 d6251c07 7a8c9831 bdac645d 1db03834  .%..z..1..d]..84
 3210 c2532827 d490830d 6c62e837 4037a547  .S('....lb.7@7.G
 3220 fb7a8773 8c2c0d78 1f5cf64b 64a7b541  .z.s.,.x.\.Kd..A
 3230 50988e58 98e76c34 53270f66 600bc626  P..X..l4S'.f`..&
 3240 a85ab13f f14aeb19 ab4ecb16 9711d236  .Z.?.J...N.....6
 3250 65b88978 4f87aa4e 1f738d7f 47b2042e  e..xO..N.s..G...
 3260 e638a03d 868dd042 55864714 6eb0af57  .8.=...BU.G.n..W
 3270 26145869 7d12d402 0818504e 59ffc917  &.Xi}.....PNY...
 3280 816a3257 c7980b28 a5c8e101 cab6ba0d  .j2W...(........
 3290 98f64d0e df393523 f4122e66 c5dfa631  ..M..95#...f...1
 32a0 4abbbc17 05891f1f f4be0d00 f703533e  J.............S>
 32b0 e14f1f5c af89870d c06f6c0c c4098e59  .O.\.....ol....Y
 32c0 4e8c0d60 ad534573 abdeb15e eb86a962  N..`.SEs...^...b
 32d0 8c774e68 de9ea052 7475c237 d9535c0a  .wNh...Rtu.7.S\.
 32e0 227add29 8a10c014 8b19da04 87c92e34  "z.)...........4
 32f0 c6f65804 59c43979 901a9f4d 10b4dc03  ..X.Y.9y...M....
 3300 1a8bd677 f92a7962 e0557803 d2a38f6f  ...w.*yb.Ux....o
 3310 9a5a5b0b 48f8950e 45c19038 41e71413  .Z[.H...E..8A...
 3320 8de57a2b 387bf907 ccae232c 4417dd12  ..z+8{....#,D...
 3330 380e0547 47596b6b b43bd02e 4bc0476c  8..GGYkk.;..K.Gl
 3340 120e547a 9b477437 827ce751 f6511c12  ..Tz.Gt7.|.Q.Q..
 3350 323dd532 b4fb141b 3118107f 5a1fba68  2=.2....1...Z..h
 3360 c6adf31f d12d3969 8824532b f3d91b48  .....-9i.$S+...H
 3370 bcbdb96a e226b22e 8335d17c 2491e74e  ...j.&...5.|$..N
 3380 84e06e32 25f4813f f3b11b22 6be00a68  ..n2%..?..."k..h
 3390 ec02493c 5ffa7775 229f9d2c 27967314  ..I<_.wu"..,'.s.
 33a0 2a0b1d2b b9423137 ae35c035 fcbcef66  *..+.B17.5.5...f
 33b0 f916f01f 357b1a17 77b1aa1b ea91c445  ....5{..w......E
 33c0 da398345 cb44b76b b2eec173 eb90ba3a  .9.E.D.k...s...:
 33d0 7b9d8d51 2409d264 1e86835d 4162d56f  {..Q$..d...]Ab.o
 33e0 3506754a f231f165 4f3a2169 66125167  5.uJ.1.eO:!if.Qg
 33f0 b0dd1256 ea3b2261 26a87c7d 8b9e6a0d  ...V.;"a&.|}..j.
 3400 a2059435 5fbf7833 624cf055 c97f9020  ...5_.x3bL.U... 
 3410 b4d4e375 7c28277e 4f10d248 ec7e7811  ...u|('~O..H.~x.
 3420 85bf765f 1e79785d 9cafec54 d6bae24a  ..v_.yx]...T...J
 3430 c84fcf11 4c0ece65 4b697031 956b2635  .O..L..eKip1.k&5
 3440 872be076 5403ba43 c18d3016 fd8ba35a  .+.vT..C..0....Z
 3450 8b0e983a 836cfe46 fd9b8a28 01347d30  ...:.l.F...(.4}0
 3460 d5b79017 80434362 e5bf2c3d 940d337d  .....CCb..,=..3}
 3470 44ed2719 467f581e bca33c33 36ee6c79  D.'.F.X...<36.ly
 3480 58d75935 bc71771d b0a63c67 1e3f3215  X.Y5.qw...<g.?2.
 3490 1517a67f f224ce40 91aa9c22 037e770d  .....$.@...".~w.
 34a0 01183d5e fa11515a 9bca4459 86c00666  ..=^..QZ..DY...f
 34b0 4840c969 612bfb11 746dbb43 3fc4ec26  H@.ia+..tm.C?..&
 34c0 00c17f06 48d5e965 3144ed4f 62b56251  ....H..e1D.Ob.bQ
 34d0 86e8de44 2405c247 92e8340b 0e76450f  ...D$..G..4..vE.
 34e0 07f9bb25 0f632501 4eec286f 32d02d44  ...%.c%.N.(o2.-D
 34f0 1ba5200e c8e65168 8a4b1233 1c9cc904  .. ...Qh.K.3....
 3500 8b741864 4e0af44a 6354da52 9f85cc5e  .t.dN..JcT.R...^
 3510 33731030 144c5b4f aa35de78 e0b94f62  3s.0.L[O.5.x..Ob
 3520 02acef72 e15a423d af86874b bf676207  ...r.ZB=...K.gb.
 3530 2012b505 46e5d77a 363aec24 dc9c8164   ...F..z6:.$...d
 3540 269a4f6c bda64a7e 878e2d5f 4da94c6b  &.Ol..J~..-_M.Lk
 3550 9165af0c 5cec6a27 a1acf442 dbd3b308  .e..\.j'...B....
 3560 3102db38 326b9d69 8ec86437 f2c8b17f  1..82k.i..d7....
 3570 dbdf4115 46e2fe5f d1b44577 2fcefc15  ..A.F.._..Ew/...
 3580 1f3eb503 29a2d569 fdfa263b 8164a34f  .>..)..i..&;.d.O
 3590 32f48229 36b4e513 60abea22 f9a2d869  2..)6...`.."...i
 35a0 ee944130 67fb8d05 dc35a82b 3434ef58  ..A0g....5.+44.X
 35b0 f0901373 d248600a d6bd4a14 6280461e  ...s.H`...J.b.F.
 35c0 e0189f15 c5fdcb5f 467bd338 f22d5c5f  ......._F{.8.-\_
 35d0 cea1d218 7d751222 efdadf50 dcc2ec0f  ....}u."...P....
 35e0 b60dea77 7f10b65d a92f1c23 8ad0b078  ...w...]./.#...x
 35f0 259a2664 945b8836 dae6c617 64b4702f  %.&d.[.6....d.p/
 3600 f6d66b4f 646c0929 03527525 f7967f22  ..kOdl.).Ru%..."
 3610 36079677 ac2d9245 77370a14 c1f3ce61  6..w.-.Ew7.....a
 3620 266e026a 1ef56460 267c5f0b 9b935675  &n.j..d`&|_...Vu
 3630 5f2a887e d75cdb01 9658a750 c4832100  _*.~.\...X.P..!.
 3640 0f612853 75fa1d74 f4aa1e04 85338f7f  .a(Su..t.....3..
 3650 629b2600 dd2dc267 3e18715f 8682e047  b.&..-.g>.q_...G
 3660 fc572633 88e1f36f a2ce4875 ad299b7c  .W&3...o..Hu.).|
 3670 a1f27865 85b61425 e5da0e47 ae884a41  ..xe...%...G..JA
 3680 f723177e 0fb69747 f922fe43 34824b7c  .#.~...G.".C4.K|
 3690 647bf34c cb42f833 b1377a33 abb0414a  d{.L.B.3.7z3..AJ
 36a0 11558757 9ea39c25 904f3c45 a7dd2e20  .U.W...%.O<E... 
 36b0 10eed173 2822e06c bddc7b0f f5458a10  ...s(".l..{..E..
 36c0 9958997f e256063a 1350dd42 3bd4c35b  .X...V.:.P.B;..[
 36d0 7132b74f d0dc180b 55bbc81c 4d1cf856  q2.O....U...M..V
 36e0 641fb772 e3464a17 7f24f343 1081dc1e  d..r.FJ..$.C....
 36f0 f1292b69 edd00c2b 377c8053 028fb765  .)+i...+7|.S...e
 3700 054cfa1c 41e63852 6349510c 6f353000  .L..A.8RcIQ.o50.
 3710 de81af21 e7370729 d33bee48 2b287f7e  ...!.7.).;.H+(.~
 3720 11e9931e 78bce352 1ff83410 0c54b860  ....x..R..4..T.`
 3730 a78d444e 9c93da7a 8d8e8c18 e9ef161a  ..DN...z........
 3740 63a79c1e 1f673512 272f1d66 47541517  c....g5.'/.fGT..
 3750 1f295771 a9836f26 f5cc6d49 a5634215  .)Wq..o&..mI.cB.
 3760 55a4d60d 22839061 42820312 64edd87c  U..."..aB...d..|
 3770 b8a23065 a102e152 14a8496d 5415ba47  ..0e...R..ImT..G
 3780 02b80903 0c7e6a4f c3b2465a d9693236  .....~jO..FZ.i26
 3790 c9ad2172 520b6b21 a305913d b7f28148  ..!rR.k!...=...H
 37a0 8b4bc306 414f7745 d70fb82f 7f221a3f  .K..AOwE.../.".?
 37b0 c95cc119 05a6107f 49240946 9534895f  .\......I$.F.4._
 37c0 4eb76234 3f199b1a b79e5c0f dc21b92f  N.b4?.....\..!./
 37d0 9023b952 bc5d7e77 e4078f3b 01f62055  .#.R.]~w...;.. U
 37e0 30297b0a dab27604 f00a9325 61ef6944  0){...v....%a.iD
 37f0 9de1b606 741d4e3d c12dc470 98737674  ....t.N=.-.p.svt
 3800 d412b41c 8618041a a05e6f5f a8824f04  .........^o_..O.
 3810 49f43d5e 6375711b e1888571 c1f2dd2e  I.=^cuq....q....
 3820 e21f7115 8dc55772 bc823d00 b25e1f64  ..q...Wr..=..^.d
 3830 18513044 38482757 37c62d29 ec505b5a  .Q0D8H'W7.-).P[Z
 3840 40b4aa15 56f53b58 43873b3e 30d55b79  @...V.;XC.;>0.[y
 3850 e9a7080d 5ee08131 e5d8c316 d63a7506  ....^..1.....:u.
 3860 5cf27f05 9fccfa0c 8cb3bc5a b971db3c  \..........Z.q.<
 3870 408dde53 3b6d2233 81ce5675 c10b0057  @..S;m"3..Vu...W
 3880 5f492b50 c26a4c2a 7e5e061f 0d8d1a7a  _I+P.jL*~^.....z
 3890 82ac6d69 6be86e3c 55ebe765 be542d3d  ..mik.n<U..e.T-=
 38a0 7a8b2252 f0e2fd5c d18e5720 5b08745b  z."R...\..W [.t[
 38b0 3902791f 07632778 9b0e6413 e40bcd43  9.y..c'x..d....C
 38c0 1c8c4b70 7a1d866f 5163ac2a 7730fe09  ..Kpz..oQc.*w0..
 38d0 4c1e034d e3badf45 bc5e4d78 97634d74  L..M...E.^Mx.cMt
 38e0 3a464e63 05a15d6d 1b43ee32 20c96812  :FNc..]m.C.2 .h.
 38f0 486ef41d c8b7827d 993dd660 c449a61e  Hn.....}.=.`.I..
 3900 868a2d3a d3438e0d ded56136 4040d92e  ..-:.C....a6@@..
 3910 998fe81a c090a30c c1844e7b 218ffd06  ..........N{!...
 3920 b7356f73 ffc48f0c 1bc44376 2d096238  .5os......Cv-.b8
 3930 d0a9fb53 48d90262 b709e443 6fb67028  ...SH..b...Co.p(
 3940 c7ee3c4c be4d262b 663fa50b e21f5259  ..<L.M&+f?....RY
 3950 ded0903b 9dd64b63 2e6ad757 b96b115d  ...;..Kc.j.W.k.]
 3960 306d0609 a0da9729 a152b960 4ab43924  0m.....).R.`J.9$
 3970 586f2a04 f23caf44 4c20663f 94a3c14f  Xo*..<.DL f?...O
 3980 2e474e03 ce8c2d4c 47fae331 73fd2072  .GN...-LG..1s. r
 3990 b0b88d3e b654a009 eadeca04 5f623c25  ...>.T......_b<%
 39a0 ff476a34 4be3953f 9e04fc51 db340e5d  .Gj4K..?...Q.4.]
 39b0 82238a03 cf879939 d035d579 822b3846  .#.....9.5.y.+8F
 39c0 254e2045 36dc5c11 03ba500a a9b99752  %N E6.\...P....R
 39d0 c4ebdd26 e2566d6b fd7db95c b0183025  ...&.Vmk.}.\..0%
 39e0 a2b1285e 03fe4e62 234d2410 eb5bdf14  ..(^..Nb#M$..[..
 39f0 139dd046 8bb64835 de0dda1f 2699003f  ...F..H5....&..?
 3a00 3a32bf0d c7483c7e 3b136c2e dacff30e  :2...H<~;.l.....
 3a10 eda43c06 9fd42b4f 92b56a6f ebd8246e  ..<...+O..jo..$n
 3a20 b56d8b12 6b0f301e 5e84c76b 1c493524  .m..k.0.^..k.I5$
 3a30 f0ece05c 6f453e49 2c83ef2a 10d00175  ...\oE>I,..*...u
 3a40 19de493c f5b8d247 af03bf21 fe3dfa18  ..I<...G...!.=..
 3a50 207df32b 0699031f efceb767 eff94b64   }.+.......g..Kd
 3a60 f35fbe56 c4694a7e a26f7b2b b652515d  ._.V.iJ~.o{+.RQ]
 3a70 1f260e2b 6758152c 938f9634 6eb43437  .&.+gX.,...4n.47
 3a80 8f40993b d2948f4e 3f7a4707 a96c5d61  .@.;...N?zG..l]a
 3a90 7233ae4b d26aa716 7ff6383e 3b47ac27  r3.K.j....8>;G.'
 3aa0 3bd41734 f274ca2a 5ec94b7f a1ed682d  ;..4.t.*^.K...h-
 3ab0 c225a05f fde2bb27 0d549c1e 0e93a559  .%._...'.T.....Y
 3ac0 88944943 116eee05 ecde162b 14176d3e  ..IC.n.....+..m>
 3ad0 1875d020 5c348b40 c8434411 ec68e80c  .u. \4.@.CD..h..
 3ae0 88c60246 76566832 24c9a15c 62956a22  ...FvVh2$..\b.j"
 3af0 1f5b1a2f 5bd04528 af20f278 60899f09  .[./[.E(. .x`...
 3b00 11a9a50d 03a8542c d69aa250 1433907e  ......T,...P.3.~
 3b10 65a5cd32 a02bf44c 74c1be1a c04b6f74  e..2.+.Lt....Kot
 3b20 f72a0b37 73995231 a4ab1d43 20b4cc0b  .*.7s.R1...C ...
 3b30 9a8fc410 4b2bda45 b67c972d 70ed8123  ....K+.E.|.-p..#
 3b40 5429f47e 9c1fa955 3fa04656 21d9082d  T).~...U?.FV!..-
 3b50 cda5027f 38fa626d 4a753f5c 1889966e  ....8.bmJu?\...n
 3b60 c4358c39 add61228 ae3ae20a a18ae60c  .5.9...(.:......
 3b70 b6aef54e 3a463a44 782e161b efb5bf48  ...N:F:Dx......H
 3b80 a2e4a65a 6ed3256b 86f2795e 502c822f  ...Zn.%k..y^P,./
 3b90 e89d916c 5ee5d77e 3568043a f1ce1e3b  ...l^..~5h.:...;
 3ba0 4da38028 835cec74 3155d27c 4b185317  M..(.\.t1U.|K.S.
 3bb0 1a8ea05f 30e36222 6d431066 2ae28814  ..._0.b"mC.f*...
 3bc0 6416ec42 ab8be362 2c2e354f 5842e802  d..B...b,.5OXB..
 3bd0 68c3bf0e eef5706d 3bae395d ea47a252  h.....pm;.9].G.R
 3be0 0d00f51c fcd63402 42774015 2603de63  ......4.Bw@.&..c
 3bf0 8bb5a219 d85bc774 2e18606a 0fe29d6d  .....[.t..`j...m
 3c00 28ae215f 27829f11 d2100b18 8f0b0a7e  (.!_'..........~
 3c10 2022555a 6220e25b 876e1256 41036d48   "UZb .[.n.VA.mH
 3c20 a0f09b64 b7f7265c 0c429071 d87f7a20  ...d..&\.B.q..z 
 3c30 e926557b 7dc9a664 75604a54 2ffecc13  .&U{}..du`JT/...
 3c40 9b97aa25 530a3b19 3701734f ed3a8520  ...%S.;.7.sO.:. 
 3c50 08647e12 d46c4739 5feb3316 d45c3f73  .d~..lG9_.3..\?s
 3c60 c3790466 f91daf00 e5034a09 a739c429  .y.f......J..9.)
 3c70 3e26df56 0a2dfb4e 1a2f420a b6bf9927  >&.V.-.N./B....'
 3c80 8702a665 42397516 3c97c557 082e7c14  ...eB9u.<..W..|.
 3c90 3299b051 fe1ed10f 2c8af27b 22657a6b  2..Q....,..{"ezk
 3ca0 5548f21e a1feb15b 38402073 7a3a8a46  UH.....[8@ sz:.F
 3cb0 ab01cb58 0997821d 13febe2f 74588e0a  ...X......./tX..
 3cc0 dbaa084d a58d5e50 e3236b5c 15d59529  ...M..^P.#k\...)
 3cd0 d4ff0e33 3bdec976 78dbe046 4b49360d  ...3;..vx..FKI6.
 3ce0 4ff95709 364c4d02 9a376716 d7d2e37b  O.W.6LM..7g....{
 3cf0 76d95c7d a34f6214 7bb6a429 d60ab716  v.\}.Ob.{..)....
 3d00 a3209847 d297064c 4c39bc17 eb9ac72f  . .G...LL9...../
 3d10 41ccd240 86dd7632 eaa2306e 0bbbc24c  A..@..v2..0n...L
 3d20 cf617353 d65e925f b96f7e49 e5814f30  .asS.^._.o~I..O0
 3d30 03682b29 a4fee36e 8ab8bd2c ec91c74b  .h+)...n...,...K
 3d40 0b104833 b8a1e346 b5321472 024d6938  ..H3...F.2.r.Mi8
 3d50 eef0346c 7903522c 4cdf6571 c258114c  ..4ly.R,L.eq.X.L
 3d60 11d78b77 48dc3a25 663bac7d 6add5b74  ...wH.:%f;.}j.[t
 3d70 d6c97a39 78d3cc45 97e3c67e 64896a30  ..z9x..E...~d.j0
 3d80 5f897906 ec56743a 82bc952a 6f031364  _.y..Vt:...*o..d
 3d90 70e65973 4f121e0e 85d2db5b 6e158a3f  p.YsO......[n..?
 3da0 7276d25f ea5fd772 9242eb38 cd795a67  rv._._.r.B.8.yZg
 3db0 9545d900 26adce59 1e9e8d32 8cd53a46  .E..&..Y...2..:F
 3dc0 0d499c24 a06c9b2b 315c215a ea08c503  .I.$.l.+1\!Z....
 3dd0 7c73bf39 e1cf546a 9e099c53 aea0c950  |s.9..Tj...S...P
 3de0 6f6de462 c222f845 4d0a2a3e 14d29c4e  om.b.".EM.*>...N
 3df0 02147e44 5b42937c b4dd9f47 530be70e  ..~D[B.|...GS...
 3e00 a0ffb13d a5493528 65f8fd40 c7c2d973  ...=.I5(e..@...s
 3e10 e574ac37 ab2d6f7c c064072c c0cec94d  .t.7.-o|.d.,...M
 3e20 a4416f05 71a3cf65 c87c7c64 e72fbb15  .Ao.q..e.||d./..
 3e30 0328ea6e 6149e172 132f0e36 47d8fe40  .(.naI.r./.6G..@
 3e40 c5993335 6eae6775 db60b36f ff984137  ..35n.gu.`.o..A7
 3e50 a0a52245 c870872b 331fd114 8300f412  .."E.p.+3.......
 3e60 cd18770d 3b4ecf1c 5371bf3d 8a93650e  ..w.;N..Sq.=..e.
 3e70 9ef64a4c 23a05b4a 14bebf0e 986aea6a  ..JL#.[J.....j.j
 3e80 4988d82c 0f5d2b11 76d6967b 27de8879  I..,.]+.v..{'..y
 3e90 c366d224 f159d519 5fd7cb1d 758b9d3e  .f.$.Y.._...u..>
 3ea0 c700bf13 ff24be32 5f342e4d e59b3e66  .....$.2_4.M..>f
 3eb0 f53e1f45 2a745a3d ae5dd878 13d98b62  .>.E*tZ=.].x...b
 3ec0 1708c06f 39c18f49 3893890f 77b7273e  ...o9..I8...w.'>
 3ed0 80879053 814d842b cd960868 b4216e5c  ...S.M.+...h.!n\
 3ee0 8e37d35f 4367c939 7c0f6a2e 7e6e4069  .7._Cg.9|.j.~n@i
 3ef0 4ed29d2b a26a5e5f fa8fb074 278b0a00  N..+.j^_...t'...
 3f00 3e6a7c1a 3f98384c 3d526949 c5049c23  >j|.?.8L=RiI...#
 3f10 2d0dce40 737b630f 26dac77c 003a3057  -..@s{c.&..|.:0W
 3f20 3f73357b 283a0f61 5bd1732d 7d9f2b47  ?s5{(:.a[.s-}.+G
 3f30 0d5c5e50 54c89d6c 328edf6c e2a04842  .\^PT..l2..l..HB
 3f40 e85b807c 14999530 c8d7b274 8548cd40  .[.|...0...t.H.@
 3f50 3ffb9134 6007f073 3299bc62 b7778b1f  ?..4`..s2..b.w..
 3f60 172a2b08 7150231f cb551770 a6198032  .*+.qP#..U.p...2
 3f70 b629c432 ac992b37 ad50d73d f35a821b  .).2..+7.P.=.Z..
 3f80 642e6e4f 491c541f 3b79d652 d18f3a43  d.nOI.T.;y.R..:C
 3f90 491b7547 85303933 da4e212a d6122916  I.uG.093.N!*..).
 3fa0 71daad08 80920d27 bf0d4971 6106804f  q......'..Iqa..O
 3fb0 eff2aa41 b4da384c e396927c a8829744  ...A..8L...|...D
 3fc0 1d1fc900 12c48a59 14a5be41 5e5a7214  .......Y...A^Zr.
 3fd0 00c51f71 bb791e60 25011f48 fd3fc267  ...q.y.`%..H.?.g
 3fe0 ca52fd61 58c6423a 4687f52e b6b5bc09  .R.aX.B:F.......
 3ff0 7aa1d540 169fef0b 6eefd464 f1d17e15  z..@....n..d..~.
 4000 9f9f886a 42241f02 f46a0831 8282546d  ...jB$...j.1..Tm
 4010 3aa6c951 7cd1673f 3e49063a 6b989829  :..Q|.g?>I.:k..)
 4020 c1f95309 9b37170a 91f5c20a 4886ad06  ..S..7......H...
 4030 3f199f07 1d3a680e 05c07c77 5b5b6301  ?....:h...|w[[c.
 4040 979d0d77 496ae52b 9c036e76 34259e5d  ...wIj.+..nv4%.]
 4050 e98a3b7b e3b93757 6b5bda08 fd81d824  ..;{..7Wk[.....$
 4060 0e163d66 8b5f2b7b eeb8447e 60cdd00b  ..=f._+{..D~`...
 4070 3e006d6d b3663850 824d6771 14f2eb74  >.mm.f8P.Mgq...t
 4080 d2caf94c 3b05fa4e ee58e331 0b8a3f6e  ...L;..N.X.1..?n
 4090 2425d31d ab70575f 150fae65 3197655f  $%...pW_...e1.e_
 40a0 92160d17 0c8d523d d2e62063 e3bed64e  ......R=.. c...N
 40b0 a0866458 636f1c41 ddc36663 ec912c75  ..dXco.A..fc..,u
 40c0 3ce5683f cb4dd567 e88de411 3d0bfc24  <.h?.M.g....=..$
 40d0 1dd5081e 2d17dd7c c7e65237 290f9110  ....-..|..R7)...
 40e0 45dafb63 9f8c734a cbd1a72f 58555646  E..c..sJ.../XUVF
 40f0 a72ee102 57563a6f 2f3eca53 51c7c17d  ....WV:o/>.SQ..}
 4100 e2fe0b5f 4b2e9922 aa867668 a0fdd34f  ..._K.."..vh...O
 4110 2a71f736 66daab53 2618da11 9f253a50  *q.6f..S&....%:P
 4120 48f8604d 6850e37e 89915d28 e7398c31  H.`MhP.~..](.9.1
 4130 b8942d2c 5bfd7e29 aecef771 5217963c  ..-,[.~)...qR..<
 4140 f0c5a628 aeca1815 78705921 ac98b81e  ...(....xpY!....
 4150 c00d666e ef1a4e18 fd936730 f582d86e  ..fn..N...g0...n
 4160 d4079241 2998b91d dd8af526 55aca32d  ...A)......&U..-
 4170 5737fe08 d84d9513 b6869804 9c67d169  W7...M.......g.i
 4180 b2cc6e6d 85281a2a b049ed49 75de0932  ..nm.(.*.I.Iu..2
 4190 72c5d33e 0295a96c 330ed729 28a4f004  r..>...l3..)(...
 41a0 48e8e226 44999f33 b8f73f37 086b094f  H..&D..3..?7.k.O
 41b0 293f2e68 d860f745 bd7ed65a 8066721a  )?.h.`.E.~.Z.fr.
 41c0 96d1cc31 04d75100 d269487b b4835e64  ...1..Q..iH{..^d
 41d0 f580057c 7a880d72 d105b338 d6427268  ...|z..r...8.Brh
 41e0 1f094806 bba6986a 2a6f896a 089b4855  ..H....j*o.j..HU
 41f0 f4463e20 07a79934 5dde2c29 eaf2110c  .F> ...4].,)....
 4200 2707005f fd96981f 81090017 bfd71536  '.._...........6
 4210 1fbf9516 d3e01a1b 00cdfd0e 3fbd8056  ............?..V
 4220 f5b11a43 32d94401 646dec61 fbaff12f  ...C2.D.dm.a.../
 4230 9923157a ae10b036 4ce4495a 69845008  .#.z...6L.IZi.P.
 4240 125c2344 e202db06 7aca2267 8bac3361  .\#D....z."g..3a
 4250 e35c0603 245d0668 07914c4e 407e2540  .\..$].h..LN@~%@
 4260 884a7f6c eab61d38 b7db1430 27540b2b  .J.l...8...0'T.+
 4270 1fac826d ba350d2a 66ee827c 2c936d1e  ...m.5.*f..|,.m.
 4280 25c31403 c6364335 a13fe551 b03e063c  %....6C5.?.Q.>.<
 4290 555dd428 2bb8b457 5162b45c 59656c48  U].(+..WQb.\YelH
 42a0 b4a2ed54 c7db2c27 9298f552 73508d39  ...T..,'...RsP.9
 42b0 ab810424 b27d9b4c a2815a14 02008911  ...$.}.L..Z.....
 42c0 4a7bbe25 5b781c71 f4748071 651d1631  J{.%[x.q.t.qe..1
 42d0 aab10d5e 41d03078 643c096f a72e6a22  ...^A.0xd<.o..j"
 42e0 763a5b3c 4ba1bc0e 86ffef25 65746574  v:[<K......%etet
 42f0 80d74c56 c4477006 1752983c 577c0e7a  ..LV.Gp..R.<W|.z
 4300 8e574238 f5def02e 9677c200 7e12e032  .WB8.....w..~..2
 4310 3801e913 61cffb20 ea0def40 eadaac1d  8...a.. ...@....
 4320 e9898779 97c68255 4371ed4c 247e8604  ...y...UCq.L$~..
 4330 033b0b39 b712f97e 004b731c 3df2ca38  .;.9...~.Ks.=..8
 4340 1f078764 86fb601b c4ddd02c 740ad931  ...d..`....,t..1
 4350 7171df78 2453b701 acc03c13 7e17964f  qq.x$S....<.~..O
 4360 4b49ea2e 7018c506 9cdbea38 7602814e  KI..p......8v..N
 4370 b85b774d f9a4c277 b3964d5c 61ec2b7a  .[wM...w..M\a.+z
 4380 495da72b 9e80356a e14e9d7c 5cfc3b3b  I].+..5j.N.|\.;;
 4390 ec6dc874 c694a94f 90413129 64a61f68  .m.t...O.A1)d..h
 43a0 f7b8c337 3619f842 7f417606 c2542656  ...76..B.Av..T&V
 43b0 45d31d0a 93345a07 aba68261 11fe2828  E....4Z....a..((
 43c0 7799c379 73ea2a2d 6e0b8c1e eed12107  w..ys.*-n.....!.
 43d0 5c707703 20919b7c a188fa1c 3ac68960  \pw. ..|....:..`
 43e0 6be9ce19 eda85735 fc429e16 0e6fb570  k.....W5.B...o.p
 43f0 6ced6e70 2e8fc86e 7f3bc739 3c2b5749  l.np...n.;.9<+WI
 4400 37afb470 d626f714 0975cc0c 7e4f635c  7..p.&...u..~Oc\
 4410 95c85b12 b0309101 07a10e04 3e9a7352  ..[..0......>.sR
 4420 43031668 38adf940 45a5d362 01da117c  C..h8..@E..b...|
 4430 15708f43 16422764 e86c9b3e 7150a66b  .p.C.B'd.l.>qP.k
 4440 368e2166 393d091f 7596e318 05fcc450  6.!f9=..u......P
 4450 8d64a225 8c6fdb67 08b1d67b 4f92dd65  .d.%.o.g...{O..e
 4460 3b8f6823 58b9da37 abda3c2c e1948471  ;.h#X..7..<,...q
 4470 4163eb34 36c2cf4c bfb14e19 dd8a4859  Ac.46..L..N...HY
 4480 3f6a7631 aff68252 91abe80e 1909ed0b  ?jv1...R........
 4490 57985929 7285045b 11022c57 ead29564  W.Y)r..[..,W...d
 44a0 30bef344 31b6640e 9e8afb46 96fd864a  0..D1.d....F...J
 44b0 16d90a7b 1894a401 fae71570 50a04376  ...{.......pP.Cv
 44c0 40033e06 ea85ec4e 5ea9f340 ef3aa353  @.>....N^..@.:.S
 44d0 28e61673 bb0d162e a7082745 309d8e21  (..s......'E0..!
 44e0 1eb17c3f 448aef1d ad19e461 a4b8174e  ..|?D......a...N
 44f0 d9b52867 e673f457 b55cb324 38672c45  ..(g.s.W.\.$8g,E
 4500 43ed5c37 3e2f220f fcc53d6b 5fd0da47  C.\7>/"...=k_..G
 4510 56c69e18 602fb95e 736cc069 deb69e02  V...`/.^sl.i....
 4520 23c1bc63 b4c1bb28 8b31274b 3399197d  #..c...(.1'K3..}
 4530 ef770b2e 6b7d7749 26d4302d a32e8c31  .w..k}wI&.0-...1
 4540 77d8ae5f 9cf0fb62 ad007401 df6a0655  w.._...b..t..j.U
 4550 546f0e60 ffc4b040 4010c400 52d22b1b  To.`...@@...R.+.
 4560 7ac75f34 4436e771 06496d52 09893c74  z._4D6.q.ImR..<t
 4570 daff9f38 1154e635 a6912b2f 4026705e  ...8.T.5..+/@&p^
 4580 28d9850c 97292f42 d0a9bb15 86f63503  (....)/B......5.
 4590 b69d072e d0842d1c f2199643 8bf63e66  ......-....C..>f
 45a0 7f652456 57b7db5b 112ce408 8e70f039  .e$VW..[.,...p.9
 45b0 4058d670 e34aab58 ae5f3226 5dc6a257  @X.p.J.X._2&]..W
 45c0 c1af8b26 6143ea3a e5eae829 09927e68  ...&aC.:...)..~h
 45d0 325c5e76 ae287c29 95fa496a 29e7824e  2\^v.(|)..Ij)..N
 45e0 b04c9e68 eeb1b71f ba83be3f c71ee20e  .L.h.......?....
 45f0 e77d401f 8c8c2d2d d697b57d ea370f24  .}@...--...}.7.$
 4600 d0108575 ce58aa5e 8e4e675b c0762c25  ...u.X.^.Ng[.v,%
 4610 9bcbc853 13968d74 51768b40 688cac52  ...S...tQv.@h..R
 4620 a9861a34 acd83050 335ea545 59318277  ...4..0P3^.EY1.w
 4630 b127f30d 5543361c d82a0927 73bcce57  .'..UC6..*.'s..W
 4640 02ed763b 4fdeca2f 8b48547a a1e03e70  ..v;O../.HTz..>p
 4650 e8ea100b 1b06d952 6eacd966 285bcd34  .......Rn..f([.4
 4660 26bd2539 d4cb707a cdb69b03 8efc1555  &.%9..pz.......U
 4670 a38e2845 29c1ef6c 8ba8f853 29166064  ..(E)..l...S).`d
 4680 22b9ad03 f7494f32 bdbd4b3c 43f6ad5a  "....IO2..K<C..Z
 4690 295f485e 7f2d1836 551f9478 e7bc0f43  )_H^.-.6U..x...C
 46a0 0482344e 49c16b57 f6fdd339 4b73d204  ..4NI.kW...9Ks..
 46b0 e2352556 94a7fe13 e8476d1e daef8805  .5%V.....Gm.....
 46c0 1db62662 78bb6662 238c665b dcb0fa0f  ..&bx.fb#.f[....
 46d0 973b7e34 9b645d46 8dbc596f c3775d68  .;~4.d]F..Yo.w]h
 46e0 4097ed17 8c2c3120 41a1f73c 160f811b  @....,1 A..<....
 46f0 b3b2de48 bf0f351b 07efa505 f2446149  ...H..5......DaI
 4700 0039db7f 25a42973 e012eb11 42c4887a  .9..%.)s....B..z
 4710 85c9763a 67cf034e c1e4393c 7d167053  ..v:g..N..9<}.pS
 4720 f5369648 c066b637 5e936034 00000000  .6.H.f.7^.`4....
 4730 00000000 1c4a0000 844a0000 ec4a0000  .....J...J...J..
 4740 00000000 00000000 00000000 00000000  ................
 4750 00000000 00000000 00000000 00000000  ................
 4760 00000000 00000000 00000000 00000000  ................
 4770 00000000 00000000 00000000 00000000  ................
 4780 00000000 00000000 00000000 00000000  ................
 4790 00000000 00000000 00000000 00000000  ................
 47a0 00000000 00000000 00000000 00000000  ................
 47b0 00000000 00000000 00000000 00000000  ................
 47c0 00000000 00000000 00000000 00000000  ................
 47d0 00000000 00000000 01000000 00000000  ................
 47e0 0e33cdab 34126de6 ecde0500 0b000000  .3..4.m.........
 47f0 00000000 00000000 00000000 00000000  ................
 4800 00000000 00000000 00000000 00000000  ................
 4810 00000000 00000000 00000000 00000000  ................
 4820 00000000 00000000 00000000 00000000  ................
 4830 00000000 00000000 00000000 00000000  ................
 4840 00000000 00000000 00000000 00000000  ................
 4850 00000000 00000000 00000000 00000000  ................
 4860 00000000 00000000 00000000 00000000  ................
 4870 00000000 00000000 00000000 00000000  ................
 4880 00000000 00000000 00000000 00000000  ................
 4890 00000000 00000000 00000000 00000000  ................
 48a0 00000000 00000000 00000000 00000000  ................
 48b0 00000000 00000000 00000000 00000000  ................
 48c0 00000000 00000000 00000000 00000000  ................
 48d0 00000000 00000000 00000000 00000000  ................
 48e0 00000000 00000000 00000000 00000000  ................
 48f0 00000000 00000000 00000000 00000000  ................
 4900 00000000 00000000 00000000 00000000  ................
 4910 00000000 00000000 00000000 00000000  ................
 4920 00000000 00000000 00000000 00000000  ................
 4930 00000000 00000000 00000000 00000000  ................
 4940 00000000 00000000 00000000 00000000  ................
 4950 00000000 00000000 00000000 00000000  ................
 4960 00000000 00000000 00000000 00000000  ................
 4970 00000000 00000000 00000000 00000000  ................
 4980 00000000 00000000 00000000 00000000  ................
 4990 00000000 00000000 00000000 00000000  ................
 49a0 00000000 00000000 00000000 00000000  ................
 49b0 00000000 00000000 00000000 00000000  ................
 49c0 00000000 00000000 00000000 00000000  ................
 49d0 00000000 00000000 00000000 00000000  ................
 49e0 00000000 00000000 00000000 00000000  ................
 49f0 00000000 00000000 00000000 00000000  ................
 4a00 00000000 00000000 00000000 00000000  ................
 4a10 00000000 00000000 00000000 00000000  ................
 4a20 00000000 00000000 00000000 00000000  ................
 4a30 00000000 00000000 00000000 00000000  ................
 4a40 00000000 00000000 00000000 00000000  ................
 4a50 00000000 00000000 00000000 00000000  ................
 4a60 00000000 00000000 00000000 00000000  ................
 4a70 00000000 00000000 00000000 00000000  ................
 4a80 00000000 00000000 00000000 00000000  ................
 4a90 00000000 00000000 00000000 00000000  ................
 4aa0 00000000 00000000 00000000 00000000  ................
 4ab0 00000000 00000000 00000000 00000000  ................
 4ac0 00000000 00000000 00000000 00000000  ................
 4ad0 00000000 00000000 00000000 00000000  ................
 4ae0 00000000 00000000 00000000 00000000  ................
 4af0 00000000 00000000 00000000 00000000  ................
 4b00 00000000 00000000 00000000 00000000  ................
 4b10 00000000 00000000 00000000 00000000  ................
 4b20 00000000 00000000 00000000 00000000  ................
 4b30 00000000 00000000 00000000 00000000  ................
 4b40 00000000 00000000 00000000 00000000  ................
 4b50 00000000 00000000 00000000 30470000  ............0G..
 4b60 30470000                             0G..            
Contents of section .eh_frame:
 4b64 00000000                             ....            
Contents of section .fini_array:
 4b68 b8000000                             ....            
Contents of section .init_array:
 4b6c 0c010000                             ....            
Contents of section .comment:
 0000 4743433a 2028474e 55292038 2e322e30  GCC: (GNU) 8.2.0
 0010 00                                   .               
Contents of section .debug_info:
 0000 800b0000 04000000 00000401 3a020000  ............:...
 0010 0cc40300 00e20000 00580000 00000000  .........X......
 0020 00000000 00020405 696e7400 03470400  ........int..G..
 0030 0002d817 38000000 0404074f 00000004  ....8......O....
 0040 08059600 00000410 04820200 00040106  ................
 0050 dd020000 040108db 02000004 0205f702  ................
 0060 00000402 07d30100 00040405 9b000000  ................
 0070 0404074a 00000004 08074500 000003c2  ...J......E.....
 0080 02000003 0c0d2500 000003b1 02000004  ......%.........
 0090 2c0e6900 000003b3 03000004 720e6900  ,.i.........r.i.
 00a0 00000345 04000004 91172500 00000525  ...E......%....%
 00b0 02000002 65011738 00000006 0404a603  ....e..8........
 00c0 dd000000 07100200 0004a80c ae000000  ................
 00d0 07af0100 0004a913 dd000000 00085400  ..............T.
 00e0 0000ed00 00000938 00000003 000a0804  .......8........
 00f0 a3091101 00000b9d 03000004 a5072500  ..............%.
 0100 0000000b a5030000 04aa05bb 00000004  ................
 0110 00031f03 000004ab 03ed0000 00037201  ..............r.
 0120 000004af 1b7e0000 000c040d 04310100  .....~.......1..
 0130 00040108 e4020000 0e310100 0003f603  .........1......
 0140 00000516 19700000 000f8301 00001805  .....p..........
 0150 2f08a301 00000b40 03000005 3113a301  /......@....1...
 0160 00000010 5f6b0005 32072500 0000040b  ...._k..2.%.....
 0170 88030000 05320b25 00000008 0b6c0100  .....2.%.....l..
 0180 00053214 25000000 0c0b3004 00000532  ..2.%.....0....2
 0190 1b250000 0010105f 78000533 0ba90100  .%....._x..3....
 01a0 0014000d 04490100 00083d01 0000b901  .....I....=.....
 01b0 00000938 00000000 000faa01 00002405  ...8..........$.
 01c0 37083c02 00000b8d 00000005 39092500  7.<.........9.%.
 01d0 0000000b bb030000 053a0925 00000004  .........:.%....
 01e0 0bb00000 00053b09 25000000 080bc404  ......;.%.......
 01f0 0000053c 09250000 000c0b95 02000005  ...<.%..........
 0200 3d092500 0000100b 6f020000 053e0925  =.%.....o....>.%
 0210 00000014 0b350400 00053f09 25000000  .....5....?.%...
 0220 180b0103 00000540 09250000 001c0b86  .......@.%......
 0230 04000005 41092500 00002000 11bf0000  ....A.%... .....
 0240 00080105 4a088102 00000b5f 01000005  ....J......_....
 0250 4b0a8102 0000000b 00000000 054c0981  K............L..
 0260 02000080 12e80300 00054e0a 3d010000  ..........N.=...
 0270 0001120c 01000005 510a3d01 00000401  ........Q.=.....
 0280 00082901 00009102 00000938 0000001f  ..)........8....
 0290 00119e02 00009001 055d08d4 0200000b  .........]......
 02a0 40030000 055e12d4 02000000 0b580300  @....^.......X..
 02b0 00055f06 25000000 040b6701 00000561  .._.%.....g....a
 02c0 09da0200 00080bbf 00000005 621e3c02  ............b.<.
 02d0 00008800 0d049102 000008ea 020000ea  ................
 02e0 02000009 38000000 1f000d04 f0020000  ....8...........
 02f0 130f0b03 00000805 75081903 00000baa  ........u.......
 0300 00000005 76111903 0000000b 0c000000  ....v...........
 0310 05770625 00000004 000d0454 0000000f  .w.%.......T....
 0320 2a030000 6805b508 62040000 105f7000  *...h...b...._p.
 0330 05b61219 03000000 105f7200 05b70725  ........._r....%
 0340 00000004 105f7700 05b80725 00000008  ....._w....%....
 0350 0b050100 0005b909 5b000000 0c0bc601  ........[.......
 0360 000005ba 095b0000 000e105f 62660005  .....[....._bf..
 0370 bb11f102 0000100b 5c000000 05bc0725  ........\......%
 0380 00000018 0bcd0000 0005c30a 29010000  ............)...
 0390 1c0b9a01 000005c5 1dd40500 00200b68  ............. .h
 03a0 02000005 c71dfe05 0000240b ad030000  ..........$.....
 03b0 05ca0d22 06000028 0ba00400 0005cb09  ..."...(........
 03c0 3c060000 2c105f75 620005ce 11f10200  <...,._ub.......
 03d0 0030105f 75700005 cf121903 00003810  .0._up........8.
 03e0 5f757200 05d00725 0000003c 0ba40000  _ur....%...<....
 03f0 0005d311 42060000 400b7304 000005d4  ....B...@.s.....
 0400 11520600 0043105f 6c620005 d711f102  .R...C._lb......
 0410 0000440b 1b010000 05da0725 0000004c  ..D........%...L
 0420 0b380100 0005db0a 8a000000 500b6d04  .8..........P.m.
 0430 000005de 12800400 00540b2c 02000005  .........T.,....
 0440 e20c1d01 0000580b 32030000 05e40e11  ......X.2.......
 0450 0100005c 0b320200 0005e509 25000000  ...\.2......%...
 0460 640014a2 00000080 04000015 80040000  d...............
 0470 15290100 00152b01 00001525 00000000  .)....+....%....
 0480 0d048b04 00000e80 04000016 90030000  ................
 0490 28040539 0208d405 000017f0 02000005  (..9............
 04a0 3b020725 00000000 17140100 00054002  ;..%..........@.
 04b0 0bae0600 000417b6 01000005 400214ae  ............@...
 04c0 06000008 177b0100 00054002 1eae0600  .....{....@.....
 04d0 000c1753 03000005 42020825 00000010  ...S....B..%....
 04e0 171a0000 00054302 08ae0800 0014176f  ......C........o
 04f0 03000005 46020725 00000030 175d0300  ....F..%...0.]..
 0500 00054702 16c30800 003417a6 02000005  ..G......4......
 0510 49020725 00000038 17650300 00054b02  I..%...8.e....K.
 0520 0ad40800 003c1708 02000005 4e0213a3  .....<......N...
 0530 01000040 17a00100 00054f02 07250000  ...@......O..%..
 0540 004417ba 04000005 500213a3 01000048  .D......P......H
 0550 17b80200 00055102 14da0800 004c17be  ......Q......L..
 0560 01000005 54020725 00000050 17300100  ....T..%...P.0..
 0570 00055502 092b0100 005417e9 02000005  ..U..+...T......
 0580 78020789 08000058 189e0200 00057c02  x......X......|.
 0590 13d40200 00480118 e6010000 057d0212  .....H.......}..
 05a0 91020000 4c011858 04000005 81020ceb  ....L..X........
 05b0 080000dc 0218d500 00000586 02106f06  ..............o.
 05c0 0000e002 18ba0000 00058802 0af70800  ................
 05d0 00ec0200 0d046204 000014a2 000000f8  ......b.........
 05e0 05000015 80040000 15290100 0015f805  .........)......
 05f0 00001525 00000000 0d043801 00000d04  ...%......8.....
 0600 da050000 14960000 00220600 00158004  ........."......
 0610 00001529 01000015 96000000 15250000  ...).........%..
 0620 00000d04 04060000 14250000 003c0600  .........%...<..
 0630 00158004 00001529 01000000 0d042806  .......)......(.
 0640 00000854 00000052 06000009 38000000  ...T...R....8...
 0650 02000854 00000062 06000009 38000000  ...T...b....8...
 0660 00000518 03000005 1f011a1f 03000019  ................
 0670 3f040000 0c052301 08a80600 00174003  ?.....#.......@.
 0680 00000525 0111a806 00000017 cc010000  ...%............
 0690 05260107 25000000 04171203 00000527  .&..%..........'
 06a0 010bae06 00000800 0d046f06 00000d04  ..........o.....
 06b0 62060000 19120000 000e053f 0108ed06  b..........?....
 06c0 00001797 03000005 400112ed 06000000  ........@.......
 06d0 17d50300 00054101 12ed0600 000617f1  ......A.........
 06e0 03000005 42011262 0000000c 00086200  ....B..b......b.
 06f0 0000fd06 00000938 00000002 001ad005  .......8........
 0700 59020712 08000017 23040000 055b0218  Y.......#....[..
 0710 38000000 0017db03 0000055c 02122b01  8..........\..+.
 0720 00000417 fb010000 055d0210 12080000  .........]......
 0730 08179104 0000055e 0217b901 00002417  .......^......$.
 0740 8b010000 055f020f 25000000 48173b03  ....._..%...H.;.
 0750 00000560 022c7700 00005017 a7040000  ...`.,w...P.....
 0760 0561021a b4060000 58174603 00000562  .a......X.F....b
 0770 02161101 00006817 ac040000 05630216  ......h......c..
 0780 11010000 70177f00 00000564 02161101  ....p......d....
 0790 00007817 4e040000 05650210 22080000  ..x.N....e.."...
 07a0 8017ef01 00000566 02103208 00008817  .......f..2.....
 07b0 fe030000 0567020f 25000000 a0175101  .....g..%.....Q.
 07c0 00000568 02161101 0000a417 70000000  ...h........p...
 07d0 05690216 11010000 ac174001 0000056a  .i........@....j
 07e0 02161101 0000b417 25000000 056b0216  ........%....k..
 07f0 11010000 bc173400 0000056c 02161101  ......4....l....
 0800 0000c417 ee020000 056d0208 25000000  .........m..%...
 0810 cc000831 01000022 08000009 38000000  ...1..."....8...
 0820 19000831 01000032 08000009 38000000  ...1...2....8...
 0830 07000831 01000042 08000009 38000000  ...1...B....8...
 0840 17001af0 05720207 69080000 178e0200  .....r..i.......
 0850 00057502 1b690800 00001779 02000005  ..u..i.....y....
 0860 76021879 08000078 00081903 00007908  v..y...x......y.
 0870 00000938 0000001d 00083800 00008908  ...8......8.....
 0880 00000938 0000001d 001bf005 570203ae  ...8........W...
 0890 0800001c 90030000 056e020b fd060000  .........n......
 08a0 1c790400 00057702 0b420800 00000831  .y....w..B.....1
 08b0 010000be 08000009 38000000 18001d65  ........8......e
 08c0 0000000d 04be0800 001ed408 00001580  ................
 08d0 04000000 0d04c908 00000d04 a3010000  ................
 08e0 1eeb0800 00152500 0000000d 04f10800  ......%.........
 08f0 000d04e0 08000008 62060000 07090000  ........b.......
 0900 09380000 0002001f 12040000 05070317  .8..............
 0910 80040000 1f0b0400 00050803 1d860400  ................
 0920 00082500 00003209 00002038 000000ff  ..%...2... 8....
 0930 07002168 04000006 06062109 00000503  ..!h......!.....
 0940 2c270000 21240100 00067106 21090000  ,'..!$....q.!...
 0950 05032c07 000022bf 04000001 89052500  ..,...".......%.
 0960 0000e006 00002c00 0000019c ab090000  ......,.........
 0970 23810400 0001890f 25000000 00000000  #.......%.......
 0980 231e0400 0001891b ab090000 21000000  #...........!...
 0990 24fc0600 00b10900 0025015a 030a0008  $........%.Z....
 09a0 25015b05 032c2700 0000000d 042b0100  %.[..,'......+..
 09b0 00262002 00000143 06400100 00980100  .& ....C.@......
 09c0 00019c27 0b000027 6e000143 122c0000  ...'...'n..C.,..
 09d0 00420000 00286172 72000143 1a270b00  .B...(arr..C.'..
 09e0 00015b29 69720001 4509270b 00006300  ..[)ir..E.'...c.
 09f0 0000296c 00014609 270b0000 81000000  ..)l..F.'.......
 0a00 2a620400 00014709 2d0b0000 0391b87e  *b....G.-......~
 0a10 2bd40200 0001480a 3d0b0000 c4000000  +.....H.=.......
 0a20 2c000000 00e20a00 00296900 01610d27  ,........)i..a.'
 0a30 0b000012 01000029 6a000162 0d270b00  .......)j..b.'..
 0a40 00250100 00296100 01650c25 0000004e  .%...)a..e.%...N
 0a50 0100002c 20000000 6d0a0000 2bdd0000  ..., ...m...+...
 0a60 00015b07 25000000 62010000 002d0802  ..[.%...b....-..
 0a70 00001000 00008b0a 00002bdd 00000001  ..........+.....
 0a80 5c072500 00007501 0000002d 1c020000  \.%...u....-....
 0a90 0c000000 a90a0000 2bdd0000 00015d07  ........+.....].
 0aa0 25000000 88010000 002d3002 00000c00  %........-0.....
 0ab0 0000c70a 00002bdd 00000001 5e072500  ......+.....^.%.
 0ac0 00009c01 0000002e 70020000 08000000  ........p.......
 0ad0 2bdd0000 00016b09 25000000 af010000  +.....k.%.......
 0ae0 00002f43 0b00006c 01000040 00000001  ../C...l...@....
 0af0 4f073056 0b0000c2 01000030 4c0b0000  O.0V.......0L...
 0b00 e2010000 31400000 0032620b 0000fb01  ....1@...2b.....
 0b10 0000326c 0b00000e 02000032 760b0000  ..2l.......2v...
 0b20 2c020000 0000000d 04250000 0008270b  ,........%....'.
 0b30 00003d0b 00000938 00000031 000d0427  ..=....8...1...'
 0b40 0b000033 16020000 012a0d01 346e0001  ...3.....*..4n..
 0b50 2a232c00 00003461 72720001 2a2b270b  *#,...4arr..*+'.
 0b60 00003569 00012c09 270b0000 356a0001  ..5i..,.'...5j..
 0b70 2c0d270b 000036a7 03000001 2d082500  ,.'...6.....-.%.
 0b80 00000000                             ....            
Contents of section .debug_abbrev:
 0000 01110125 0e130b03 0e1b0e55 17110110  ...%.......U....
 0010 17000002 24000b0b 3e0b0308 00000316  ....$...>.......
 0020 00030e3a 0b3b0b39 0b491300 00042400  ...:.;.9.I....$.
 0030 0b0b3e0b 030e0000 05160003 0e3a0b3b  ..>..........:.;
 0040 05390b49 13000006 17010b0b 3a0b3b0b  .9.I........:.;.
 0050 390b0113 0000070d 00030e3a 0b3b0b39  9..........:.;.9
 0060 0b491300 00080101 49130113 00000921  .I......I......!
 0070 0049132f 0b00000a 13010b0b 3a0b3b0b  .I./........:.;.
 0080 390b0113 00000b0d 00030e3a 0b3b0b39  9..........:.;.9
 0090 0b491338 0b00000c 0f000b0b 00000d0f  .I.8............
 00a0 000b0b49 1300000e 26004913 00000f13  ...I....&.I.....
 00b0 01030e0b 0b3a0b3b 0b390b01 13000010  .....:.;.9......
 00c0 0d000308 3a0b3b0b 390b4913 380b0000  ....:.;.9.I.8...
 00d0 11130103 0e0b053a 0b3b0b39 0b011300  .......:.;.9....
 00e0 00120d00 030e3a0b 3b0b390b 49133805  ......:.;.9.I.8.
 00f0 00001315 00271900 00141501 27194913  .....'......'.I.
 0100 01130000 15050049 13000016 1301030e  .......I........
 0110 0b053a0b 3b05390b 01130000 170d0003  ..:.;.9.........
 0120 0e3a0b3b 05390b49 13380b00 00180d00  .:.;.9.I.8......
 0130 030e3a0b 3b05390b 49133805 00001913  ..:.;.9.I.8.....
 0140 01030e0b 0b3a0b3b 05390b01 1300001a  .....:.;.9......
 0150 13010b0b 3a0b3b05 390b0113 00001b17  ....:.;.9.......
 0160 010b0b3a 0b3b0539 0b011300 001c0d00  ...:.;.9........
 0170 030e3a0b 3b05390b 49130000 1d130003  ..:.;.9.I.......
 0180 0e3c1900 001e1501 27190113 00001f34  .<......'......4
 0190 00030e3a 0b3b0539 0b49133f 193c1900  ...:.;.9.I.?.<..
 01a0 00202100 49132f05 00002134 00030e3a  . !.I./...!4...:
 01b0 0b3b0b39 0b49133f 19021800 00222e01  .;.9.I.?....."..
 01c0 3f19030e 3a0b3b0b 390b2719 49131101  ?...:.;.9.'.I...
 01d0 12064018 97421901 13000023 0500030e  ..@..B.....#....
 01e0 3a0b3b0b 390b4913 02170000 24898201  :.;.9.I.....$...
 01f0 01110131 13000025 8a820100 02189142  ...1...%.......B
 0200 18000026 2e013f19 030e3a0b 3b0b390b  ...&..?...:.;.9.
 0210 27191101 12064018 97421901 13000027  '.....@..B.....'
 0220 05000308 3a0b3b0b 390b4913 02170000  ....:.;.9.I.....
 0230 28050003 083a0b3b 0b390b49 13021800  (....:.;.9.I....
 0240 00293400 03083a0b 3b0b390b 49130217  .)4...:.;.9.I...
 0250 00002a34 00030e3a 0b3b0b39 0b491302  ..*4...:.;.9.I..
 0260 1800002b 3400030e 3a0b3b0b 390b4913  ...+4...:.;.9.I.
 0270 02170000 2c0b0155 17011300 002d0b01  ....,..U.....-..
 0280 11011206 01130000 2e0b0111 01120600  ................
 0290 002f1d01 31135201 5517580b 590b570b  ./..1.R.U.X.Y.W.
 02a0 00003005 00311302 17000031 0b015517  ..0..1.....1..U.
 02b0 00003234 00311302 17000033 2e01030e  ..24.1.....3....
 02c0 3a0b3b0b 390b2719 200b0000 34050003  :.;.9.'. ...4...
 02d0 083a0b3b 0b390b49 13000035 34000308  .:.;.9.I...54...
 02e0 3a0b3b0b 390b4913 00003634 00030e3a  :.;.9.I...64...:
 02f0 0b3b0b39 0b491300 0000               .;.9.I....      
Contents of section .debug_loc:
 0000 e0060000 e4060000 01005ae4 0600000c  ..........Z.....
 0010 07000004 00f3015a 9f000000 00000000  .......Z........
 0020 00e00600 00e80600 0001005b e8060000  ...........[....
 0030 0c070000 0400f301 5b9f0000 00000000  ........[.......
 0040 00004001 00004801 00000100 5a480100  ..@...H.....ZH..
 0050 00d80200 000400f3 015a9f00 00000000  .........Z......
 0060 00000054 010000b0 02000001 006cbc02  ...T.........l..
 0070 0000d802 00000100 6c000000 00000000  ........l.......
 0080 005c0100 007c0100 0001005a 7c010000  .\...|.....Z|...
 0090 b4010000 03007c04 9fb40100 00c40200  ......|.........
 00a0 0001005a c4020000 d0020000 010060d0  ...Z..........`.
 00b0 020000d8 02000003 007c049f 00000000  .........|......
 00c0 00000000 5c010000 ac010000 010056ac  ....\.........V.
 00d0 010000b0 01000003 00767c9f b0010000  .........v|.....
 00e0 b8010000 03007678 9fb80100 00a00200  ......vx........
 00f0 00010056 a0020000 d0020000 01005cd0  ...V..........\.
 0100 020000d8 02000001 00560000 00000000  .........V......
 0110 00004002 0000d002 00000100 60000000  ..@.........`...
 0120 00000000 00400200 00440200 0001006c  .....@...D.....l
 0130 44020000 54020000 01005d54 02000098  D...T.....]T....
 0140 02000001 005f0000 00000000 00004002  ....._........@.
 0150 00004402 00000200 7a000000 00000000  ..D.....z.......
 0160 0000f401 00001402 00000100 5c000000  ............\...
 0170 00000000 00080200 00180200 0001005e  ...............^
 0180 00000000 00000000 1c020000 20020000  ............ ...
 0190 02007a00 00000000 00000000 30020000  ..z.........0...
 01a0 3c020000 01005f00 00000000 00000070  <....._........p
 01b0 02000080 02000001 00610000 00000000  .........a......
 01c0 00006c01 00007801 00000300 7a7c9f78  ..l...x.....z|.x
 01d0 010000a8 01000001 005c0000 00000000  .........\......
 01e0 00006c01 00007001 00000700 7f00341b  ..l...p.......4.
 01f0 23019f00 00000000 0000006c 010000a8  #..........l....
 0200 01000001 005a0000 00000000 00008001  .....Z..........
 0210 00008801 00000100 5a880100 00a80100  ........Z.......
 0220 0001005f 00000000 00000000 80010000  ..._............
 0230 a8010000 01005d00 00000000 000000    ......]........ 
Contents of section .debug_aranges:
 0000 24000000 02000000 00000400 00000000  $...............
 0010 40010000 98010000 e0060000 2c000000  @...........,...
 0020 00000000 00000000                    ........        
Contents of section .debug_ranges:
 0000 4c010000 50010000 60010000 64010000  L...P...`...d...
 0010 c0010000 d0020000 00000000 00000000  ................
 0020 4c010000 50010000 60010000 64010000  L...P...`...d...
 0030 c0010000 fc010000 00000000 00000000  ................
 0040 6c010000 6c010000 70010000 a8010000  l...l...p.......
 0050 00000000 00000000 40010000 d8020000  ........@.......
 0060 e0060000 0c070000 00000000 00000000  ................
Contents of section .debug_line:
 0000 4e050000 0200d400 00000101 fb0e0d00  N...............
 0010 01010101 00000001 00000173 7263002f  ...........src./
 0020 686f6d65 2f737475 64656e74 2f6c6f63  home/student/loc
 0030 616c2f6c 69622f67 63632f72 69736376  al/lib/gcc/riscv
 0040 33322d75 6e6b6e6f 776e2d65 6c662f38  32-unknown-elf/8
 0050 2e322e30 2f696e63 6c756465 002f686f  .2.0/include./ho
 0060 6d652f73 74756465 6e742f6c 6f63616c  me/student/local
 0070 2f726973 63763332 2d756e6b 6e6f776e  /riscv32-unknown
 0080 2d656c66 2f696e63 6c756465 2f737973  -elf/include/sys
 0090 00007173 6f72745f 6d61696e 2e630001  ..qsort_main.c..
 00a0 00007374 64646566 2e680002 00006c6f  ..stddef.h....lo
 00b0 636b2e68 00030000 5f747970 65732e68  ck.h...._types.h
 00c0 00030000 7265656e 742e6800 03000064  ....reent.h....d
 00d0 61746173 6574312e 68000100 00000501  ataset1.h.......
 00e0 00050240 01000003 c3000105 03030109  ...@............
 00f0 00000105 0106037f 09000001 05110301  ................
 0100 09040001 050a0303 09040001 05070313  ................
 0110 09040001 0509036a 09040001 05030603  .......j........
 0120 01090400 01050a06 03020900 00010509  ................
 0130 037e0904 00010503 06030109 04000103  .~..............
 0140 01090000 01050806 03050900 00010507  ................
 0150 030e0904 00010503 06036f09 04000105  ..........o.....
 0160 05030309 00000105 0c060300 09000001  ................
 0170 05080300 09040001 05070603 02090400  ................
 0180 01050303 5d090000 01030109 00000103  ....]...........
 0190 01090000 01051d06 03210900 0001051a  .........!......
 01a0 035f0904 00010503 03000908 00010505  ._..............
 01b0 06030209 04000105 0b060300 09000001  ................
 01c0 05050603 01090400 01030109 00000105  ................
 01d0 0b06037e 09000001 050a0304 09080001  ...~............
 01e0 05070603 01090400 01050a06 03000900  ................
 01f0 00010507 06037f09 08000105 1406037e  ...............~
 0200 09000001 050b0300 09040001 05050603  ................
 0210 06090400 01050806 03000900 0001051f  ................
 0220 03760904 00010503 03000904 00010507  .v..............
 0230 06032309 04000105 0a060300 09000001  ..#.............
 0240 05070603 03090400 01050a06 03000900  ................
 0250 00010507 06030109 04000105 09060300  ................
 0260 09000001 05120300 09040001 05030603  ................
 0270 75090400 01050503 03090000 01050c06  u...............
 0280 03000900 00010508 03000904 00010507  ................
 0290 06030e09 04000103 00090000 01030009  ................
 02a0 34000103 00090400 01030109 04000103  4...............
 02b0 00090000 01000204 01030009 0c000100  ................
 02c0 02040103 00090000 01000204 01030009  ................
 02d0 00000100 02040103 00090400 01030109  ................
 02e0 0c000103 00090000 01000204 01030009  ................
 02f0 04000100 02040103 00090000 01000204  ................
 0300 01030009 00000100 02040103 00090400  ................
 0310 01030109 08000103 00090000 01000204  ................
 0320 01030009 08000100 02040103 00090000  ................
 0330 01000204 01030009 00000100 02040103  ................
 0340 00090400 01030309 08000105 0d060300  ................
 0350 09000001 05070603 01090400 01030309  ................
 0360 00000105 0d06037c 09000001 05190002  .......|........
 0370 04010603 07090400 01051200 02040106  ................
 0380 03000900 00010510 00020401 03000904  ................
 0390 0001050f 00020401 03000904 0001051f  ................
 03a0 06030109 04000105 13060300 09000001  ................
 03b0 05100300 09040001 050f0300 09040001  ................
 03c0 051f0603 00090800 01051306 03000900  ................
 03d0 00010510 03000904 0001050f 03000904  ................
 03e0 00010509 06030109 04000105 0c060300  ................
 03f0 09000001 05090603 01090400 01030009  ................
 0400 00000103 00090000 01030009 04000105  ................
 0410 0f06037d 09040001 05070603 07090800  ...}............
 0420 01050e06 03070900 0001050c 03790904  .............y..
 0430 00010507 06030109 04000105 0e060306  ................
 0440 09000001 05170300 09040001 050d037a  ...............z
 0450 09040001 05070603 01090400 01051006  ................
 0460 03050900 00010517 03000904 0001050e  ................
 0470 037b0904 00010507 06030509 04000105  .{..............
 0480 0a060300 09040001 05090603 02090400  ................
 0490 01051306 03000900 00010509 06030109  ................
 04a0 04000105 14060300 09000001 05090603  ................
 04b0 01090400 01050c06 03000900 0001050e  ................
 04c0 03770904 00010509 06030d09 08000105  .w..............
 04d0 14060301 09000001 0513037f 09040001  ................
 04e0 05090603 01090400 01030109 00000105  ................
 04f0 12060368 09000001 050e0309 09040001  ...h............
 0500 05010313 09080001 09080000 01010501  ................
 0510 000502e0 06000003 89010105 03030a09  ................
 0520 00000105 01060376 09080001 0503030a  .......v........
 0530 09040001 05010376 09080001 0503030a  .......v........
 0540 09040001 05010305 09040001 09100000  ................
 0550 0101                                 ..              
Contents of section .debug_str:
 0000 5f64736f 5f68616e 646c6500 5f73697a  _dso_handle._siz
 0010 65005f72 616e6434 38005f65 6d657267  e._rand48._emerg
 0020 656e6379 005f7763 72746f6d 625f7374  ency._wcrtomb_st
 0030 61746500 5f776373 72746f6d 62735f73  ate._wcsrtombs_s
 0040 74617465 006c6f6e 67206c6f 6e672075  tate.long long u
 0050 6e736967 6e656420 696e7400 5f6c6266  nsigned int._lbf
 0060 73697a65 005f5f6c 6f63616c 655f7400  size.__locale_t.
 0070 5f6d6272 746f7763 5f737461 7465005f  _mbrtowc_state._
 0080 7763746f 6d625f73 74617465 005f5f74  wctomb_state.__t
 0090 6d5f7365 63006c6f 6e67206c 6f6e6720  m_sec.long long 
 00a0 696e7400 5f756275 66005f62 61736500  int._ubuf._base.
 00b0 5f5f746d 5f686f75 72005f5f 7366005f  __tm_hour.__sf._
 00c0 6f6e5f65 7869745f 61726773 005f636f  on_exit_args._co
 00d0 6f6b6965 005f5f73 676c7565 0074656d  okie.__sglue.tem
 00e0 70002f68 6f6d652f 73747564 656e742f  p./home/student/
 00f0 6f747465 722d7072 6f677261 6d732f71  otter-programs/q
 0100 736f7274 005f666c 61677300 5f69735f  sort._flags._is_
 0110 63786100 5f737464 696e005f 626c6b73  cxa._stdin._blks
 0120 697a6500 76657269 66795f64 61746100  ize.verify_data.
 0130 5f637674 62756600 5f6f6666 73657400  _cvtbuf._offset.
 0140 5f6d6273 72746f77 63735f73 74617465  _mbsrtowcs_state
 0150 005f6d62 726c656e 5f737461 7465005f  ._mbrlen_state._
 0160 666e6172 6773005f 666e7300 5f736967  fnargs._fns._sig
 0170 6e005f66 6c6f636b 5f74005f 73746465  n._flock_t._stde
 0180 7272005f 42696769 6e74005f 67616d6d  rr._Bigint._gamm
 0190 615f7369 676e6761 6d005f72 65616400  a_signgam._read.
 01a0 5f726573 756c745f 6b005f5f 746d005f  _result_k.__tm._
 01b0 5f776368 62005f73 74646f75 74005f63  _wchb._stdout._c
 01c0 76746c65 6e005f66 696c6500 5f6e696f  vtlen._file._nio
 01d0 62730073 686f7274 20756e73 69676e65  bs.short unsigne
 01e0 6420696e 74005f61 74657869 7430005f  d int._atexit0._
 01f0 7369676e 616c5f62 7566005f 61736374  signal_buf._asct
 0200 696d655f 62756600 5f726573 756c7400  ime_buf._result.
 0210 5f5f7763 6800696e 73657274 696f6e5f  __wch.insertion_
 0220 736f7274 0077696e 745f7400 5f6c6f63  sort.wint_t._loc
 0230 6b005f66 6c616773 3200474e 55204331  k._flags2.GNU C1
 0240 3720382e 322e3020 2d6d6172 63683d72  7 8.2.0 -march=r
 0250 76333269 202d6d61 62693d69 6c703332  v32i -mabi=ilp32
 0260 202d6720 2d4f3300 5f777269 7465005f   -g -O3._write._
 0270 5f746d5f 79656172 005f6e6d 616c6c6f  _tm_year._nmallo
 0280 63006c6f 6e672064 6f75626c 65005f6e  c.long double._n
 0290 65787466 005f5f74 6d5f6d6f 6e005f61  extf.__tm_mon._a
 02a0 74657869 74005f5f 73646964 696e6974  texit.__sdidinit
 02b0 005f6f66 665f7400 5f667265 656c6973  ._off_t._freelis
 02c0 74005f4c 4f434b5f 52454355 52534956  t._LOCK_RECURSIV
 02d0 455f5400 73746163 6b700075 6e736967  E_T.stackp.unsig
 02e0 6e656420 63686172 005f6e65 77005f68  ned char._new._h
 02f0 5f657272 6e6f0073 686f7274 20696e74  _errno.short int
 0300 005f5f74 6d5f7964 6179005f 5f736275  .__tm_yday.__sbu
 0310 66005f69 6f627300 5f5f4649 4c45005f  f._iobs.__FILE._
 0320 6d627374 6174655f 74005f5f 7346494c  mbstate_t.__sFIL
 0330 45005f6d 62737461 7465005f 72616e64  E._mbstate._rand
 0340 5f6e6578 74005f6d 626c656e 5f737461  _next._mblen_sta
 0350 7465005f 696e6300 5f696e64 005f6c6f  te._inc._ind._lo
 0360 63616c65 005f5f63 6c65616e 7570005f  cale.__cleanup._
 0370 756e7370 65636966 6965645f 6c6f6361  unspecified_loca
 0380 6c655f69 6e666f00 5f6d6178 77647300  le_info._maxwds.
 0390 5f726565 6e74005f 73656564 005f5f63  _reent._seed.__c
 03a0 6f756e74 005f5f76 616c7565 005f7365  ount.__value._se
 03b0 656b005f 66706f73 5f74005f 5f746d5f  ek._fpos_t.__tm_
 03c0 6d696e00 7372632f 71736f72 745f6d61  min.src/qsort_ma
 03d0 696e2e63 005f6d75 6c74005f 73747274  in.c._mult._strt
 03e0 6f6b5f6c 61737400 5f666e74 79706573  ok_last._fntypes
 03f0 005f6164 64005f5f 554c6f6e 67005f67  ._add.__ULong._g
 0400 65746461 74655f65 7272005f 676c6f62  etdate_err._glob
 0410 616c5f69 6d707572 655f7074 72006172  al_impure_ptr.ar
 0420 6776005f 756e7573 65645f72 616e6400  gv._unused_rand.
 0430 5f776473 005f5f74 6d5f7764 6179005f  _wds.__tm_wday._
 0440 676c7565 005f7373 697a655f 74005f6c  glue._ssize_t._l
 0450 3634615f 62756600 5f736967 5f66756e  64a_buf._sig_fun
 0460 63007374 61636b00 696e7075 745f6461  c.stack.input_da
 0470 7461005f 6e627566 005f756e 75736564  ta._nbuf._unused
 0480 00617267 63005f5f 746d5f69 73647374  .argc.__tm_isdst
 0490 005f6c6f 63616c74 696d655f 62756600  ._localtime_buf.
 04a0 5f636c6f 7365005f 72343800 5f6d6274  _close._r48._mbt
 04b0 6f77635f 73746174 65005f70 3573006d  owc_state._p5s.m
 04c0 61696e00 5f5f746d 5f6d6461 7900      ain.__tm_mday.  
Contents of section .debug_frame:
 0000 0c000000 ffffffff 0100017c 010d0200  ...........|....
 0010 18000000 00000000 40010000 98010000  ........@.......
 0020 440ed001 0390010e 00000000 18000000  D...............
 0030 00000000 e0060000 2c000000 4c0e104c  ........,...L..L
 0040 810148c1 480e0000                    ..H.H...        

Disassembly of section .text:

00000000 <_start>:
   0:	auipc	gp,0x1
   4:	addi	gp,gp,-288 # ee0 <__global_pointer$>
   8:	auipc	a0,0x5
   c:	addi	a0,a0,-1188 # 4b64 <_edata>
  10:	auipc	a2,0x5
  14:	addi	a2,a2,-1196 # 4b64 <_edata>
  18:	sub	a2,a2,a0
  1c:	li	a1,0
  20:	jal	ra,424 <memset>
  24:	auipc	a0,0x0
  28:	addi	a0,a0,764 # 320 <__libc_fini_array>
  2c:	jal	ra,2d8 <atexit>
  30:	jal	ra,37c <__libc_init_array>
  34:	lw	a0,0(sp)
  38:	addi	a1,sp,4
  3c:	li	a2,0
  40:	jal	ra,6e0 <main>
  44:	j	2ec <exit>

00000048 <_fini>:
  48:	ret

0000004c <deregister_tm_clones>:
  4c:	lui	a0,0x5
  50:	lui	a5,0x5
  54:	addi	a4,a0,-1176 # 4b68 <__TMC_END__>
  58:	addi	a5,a5,-1176 # 4b68 <__TMC_END__>
  5c:	beq	a5,a4,74 <deregister_tm_clones+0x28>
  60:	lui	t1,0x0
  64:	mv	t1,t1
  68:	beqz	t1,74 <deregister_tm_clones+0x28>
  6c:	addi	a0,a0,-1176
  70:	jr	t1 # 0 <_start>
  74:	ret

00000078 <register_tm_clones>:
  78:	lui	a5,0x5
  7c:	lui	a0,0x5
  80:	addi	a1,a5,-1176 # 4b68 <__TMC_END__>
  84:	addi	a5,a0,-1176 # 4b68 <__TMC_END__>
  88:	sub	a1,a1,a5
  8c:	srai	a1,a1,0x2
  90:	srli	a5,a1,0x1f
  94:	add	a1,a5,a1
  98:	srai	a1,a1,0x1
  9c:	beqz	a1,b4 <register_tm_clones+0x3c>
  a0:	lui	t1,0x0
  a4:	mv	t1,t1
  a8:	beqz	t1,b4 <register_tm_clones+0x3c>
  ac:	addi	a0,a0,-1176
  b0:	jr	t1 # 0 <_start>
  b4:	ret

000000b8 <__do_global_dtors_aux>:
  b8:	lbu	a4,1808(zero) # 710 <completed.5430>
  bc:	bnez	a4,108 <__do_global_dtors_aux+0x50>
  c0:	addi	sp,sp,-16
  c4:	sw	s0,8(sp)
  c8:	sw	ra,12(sp)
  cc:	mv	s0,a5
  d0:	jal	ra,4c <deregister_tm_clones>
  d4:	lui	a5,0x0
  d8:	mv	a5,a5
  dc:	beqz	a5,f0 <__do_global_dtors_aux+0x38>
  e0:	lui	a0,0x5
  e4:	addi	a0,a0,-1180 # 4b64 <_edata>
  e8:	auipc	ra,0x0
  ec:	jalr	zero # 0 <_start>
  f0:	li	a5,1
  f4:	sb	a5,1808(zero) # 710 <completed.5430>
  f8:	lw	ra,12(sp)
  fc:	lw	s0,8(sp)
 100:	addi	sp,sp,16
 104:	ret
 108:	ret

0000010c <frame_dummy>:
 10c:	lui	a5,0x0
 110:	mv	a5,a5
 114:	beqz	a5,13c <frame_dummy+0x30>
 118:	lui	a0,0x5
 11c:	addi	sp,sp,-16
 120:	li	a1,1812
 124:	addi	a0,a0,-1180 # 4b64 <_edata>
 128:	sw	ra,12(sp)
 12c:	auipc	ra,0x0
 130:	jalr	zero # 0 <_start>
 134:	lw	ra,12(sp)
 138:	addi	sp,sp,16
 13c:	j	78 <register_tm_clones>

00000140 <sort>:
    for (type* j = i+1; j < arr+n; j++)
      SWAP_IF_GREATER(*i, *j);
}

void sort(size_t n, type arr[])
{
 140:	addi	sp,sp,-208
  type* ir = arr+n;
 144:	slli	a0,a0,0x2
  type* l = arr+1;
  type* stack[NSTACK];
  type** stackp = stack;
 148:	addi	t5,sp,8
    }
    else
    {
      // Choose median of left, center, and right elements as
      // partitioning element a. Also rearrange so that a[l-1] <= a[l] <= a[ir-].
      SWAP(arr[((l-arr) + (ir-arr))/2-1], l[0]);
 14c:	lui	t6,0x40000
  type* ir = arr+n;
 150:	add	t3,a1,a0
  type** stackp = stack;
 154:	mv	t1,t5
  type* l = arr+1;
 158:	addi	a0,a1,4
    if ( ir-l < INSERTION_THRESHOLD )
 15c:	li	t4,36
      SWAP(arr[((l-arr) + (ir-arr))/2-1], l[0]);
 160:	addi	t6,t6,-1 # 3fffffff <__sp+0x3ffeffff>
    if ( ir-l < INSERTION_THRESHOLD )
 164:	sub	a5,t3,a0
 168:	blt	t4,a5,1c0 <sort+0x80>
      insertion_sort(ir - l + 1, l - 1);
 16c:	andi	a5,a5,-4
  for (i = arr+1; i < arr+n; i++)
 170:	add	a6,a0,a5
 174:	addi	a2,a0,-4
 178:	bgeu	a0,a6,1a8 <sort+0x68>
    value = *i;
 17c:	lw	a3,0(a0)
 180:	mv	a5,a0
 184:	j	194 <sort+0x54>
      *j = *(j-1);
 188:	sw	a4,0(a5) # 0 <_start>
      if (--j == arr)
 18c:	addi	a5,a5,-4
 190:	beq	a2,a5,19c <sort+0x5c>
    while (value < *(j-1))
 194:	lw	a4,-4(a5)
 198:	blt	a3,a4,188 <sort+0x48>
    *j = value;
 19c:	sw	a3,0(a5)
  for (i = arr+1; i < arr+n; i++)
 1a0:	addi	a0,a0,4
 1a4:	bltu	a0,a6,17c <sort+0x3c>
      if ( stackp == stack ) break;
 1a8:	beq	t1,t5,2d0 <sort+0x190>
      ir = *stackp--;
 1ac:	lw	t3,0(t1)
      l = *stackp--;
 1b0:	lw	a0,-4(t1)
 1b4:	addi	t1,t1,-8
    if ( ir-l < INSERTION_THRESHOLD )
 1b8:	sub	a5,t3,a0
 1bc:	bge	t4,a5,16c <sort+0x2c>
      SWAP(arr[((l-arr) + (ir-arr))/2-1], l[0]);
 1c0:	sub	a5,a0,a1
 1c4:	sub	a4,t3,a1
 1c8:	srai	a5,a5,0x2
 1cc:	srai	a4,a4,0x2
 1d0:	add	a4,a5,a4
 1d4:	srli	a5,a4,0x1f
 1d8:	add	a5,a5,a4
 1dc:	srai	a5,a5,0x1
 1e0:	add	a5,a5,t6
 1e4:	slli	a5,a5,0x2
 1e8:	add	a5,a1,a5
 1ec:	lw	a4,0(a0)
 1f0:	lw	a2,0(a5)
 1f4:	sw	a4,0(a5)
 1f8:	sw	a2,0(a0)
      SWAP_IF_GREATER(l[-1], ir[-1]);
 1fc:	lw	a4,-4(a0)
 200:	lw	a5,-4(t3)
 204:	bge	a5,a4,218 <sort+0xd8>
 208:	sw	a5,-4(a0)
 20c:	sw	a4,-4(t3)
 210:	lw	a2,0(a0)
 214:	mv	a5,a4
      SWAP_IF_GREATER(l[0], ir[-1]);
 218:	bge	a5,a2,228 <sort+0xe8>
 21c:	sw	a5,0(a0)
 220:	sw	a2,-4(t3)
 224:	lw	a2,0(a0)
      SWAP_IF_GREATER(l[-1], l[0]);
 228:	lw	a5,-4(a0)
 22c:	bge	a2,a5,23c <sort+0xfc>
 230:	sw	a2,-4(a0)
 234:	sw	a5,0(a0)
 238:	mv	a2,a5

      // Initialize pointers for partitioning.
      type* i = l+1;
 23c:	addi	a6,a0,4
 240:	mv	a3,t3

      // Partitioning element.
      type a = l[0];

      for (;;) {                    // Beginning of innermost loop.
        while (*i++ < a);           // Scan up to find element > a.
 244:	addi	a6,a6,4
 248:	lw	a7,-4(a6)
 24c:	blt	a7,a2,244 <sort+0x104>
        while (*(j-- - 2) > a);     // Scan down to find element < a.
 250:	addi	a5,a3,-4
 254:	lw	a4,-4(a5)
 258:	bge	a2,a4,26c <sort+0x12c>
 25c:	mv	a3,a5
 260:	addi	a5,a3,-4
 264:	lw	a4,-4(a5)
 268:	blt	a2,a4,25c <sort+0x11c>
        if (j < i) break;           // Pointers crossed. Partitioning complete.
 26c:	bltu	a5,a6,280 <sort+0x140>
        SWAP(i[-1], j[-1]);         // Exchange elements.
 270:	sw	a4,-4(a6)
 274:	sw	a7,-4(a5)
        while (*i++ < a);           // Scan up to find element > a.
 278:	mv	a3,a5
 27c:	j	244 <sort+0x104>
      stackp += 2;

      // Push pointers to larger subarray on stack,
      // process smaller subarray immediately.

      if ( ir-i+1 >= j-l )
 280:	sub	a7,t3,a6
      l[0] = j[-1];
 284:	sw	a4,0(a0)
      if ( ir-i+1 >= j-l )
 288:	srai	a4,a7,0x2
 28c:	sub	a7,a5,a0
      j[-1] = a;
 290:	sw	a2,-4(a5)
      if ( ir-i+1 >= j-l )
 294:	addi	a5,a4,1
 298:	srai	a4,a7,0x2
      stackp += 2;
 29c:	addi	a2,t1,8
      if ( ir-i+1 >= j-l )
 2a0:	addi	a3,a3,-8
 2a4:	blt	a5,a4,2bc <sort+0x17c>
      {
        stackp[0] = ir;
 2a8:	sw	t3,8(t1)
        stackp[-1] = i;
 2ac:	sw	a6,4(t1)
        ir = j-1;
 2b0:	mv	t3,a3
      stackp += 2;
 2b4:	mv	t1,a2
 2b8:	j	164 <sort+0x24>
      }
      else
      {
        stackp[0] = j-1;
        stackp[-1] = l;
 2bc:	sw	a0,4(t1)
        stackp[0] = j-1;
 2c0:	sw	a3,8(t1)
        while (*i++ < a);           // Scan up to find element > a.
 2c4:	mv	a0,a6
      stackp += 2;
 2c8:	mv	t1,a2
 2cc:	j	164 <sort+0x24>
        l = i;
      }
    }
  }
}
 2d0:	addi	sp,sp,208
 2d4:	ret

000002d8 <atexit>:
 2d8:	mv	a1,a0
 2dc:	li	a3,0
 2e0:	li	a2,0
 2e4:	li	a0,0
 2e8:	j	500 <__register_exitproc>

000002ec <exit>:
 2ec:	addi	sp,sp,-16
 2f0:	li	a1,0
 2f4:	sw	s0,8(sp)
 2f8:	sw	ra,12(sp)
 2fc:	mv	s0,a0
 300:	jal	ra,580 <__call_exitprocs>
 304:	lui	a5,0x5
 308:	lw	a0,-1184(a5) # 4b60 <_global_impure_ptr>
 30c:	lw	a5,60(a0)
 310:	beqz	a5,318 <exit+0x2c>
 314:	jalr	a5
 318:	mv	a0,s0
 31c:	jal	ra,690 <_exit>

00000320 <__libc_fini_array>:
 320:	addi	sp,sp,-16
 324:	lui	a5,0x0
 328:	sw	s0,8(sp)
 32c:	lui	s0,0x0
 330:	mv	a4,a5
 334:	mv	s0,s0
 338:	sub	s0,s0,a4
 33c:	sw	s1,4(sp)
 340:	sw	ra,12(sp)
 344:	srai	s0,s0,0x2
 348:	mv	s1,a5
 34c:	bnez	s0,364 <__libc_fini_array+0x44>
 350:	lw	s0,8(sp)
 354:	lw	ra,12(sp)
 358:	lw	s1,4(sp)
 35c:	addi	sp,sp,16
 360:	j	48 <_fini>
 364:	addi	s0,s0,-1
 368:	slli	a5,s0,0x2
 36c:	add	a5,s1,a5
 370:	lw	a5,0(a5) # 0 <_start>
 374:	jalr	a5
 378:	j	34c <__libc_fini_array+0x2c>

0000037c <__libc_init_array>:
 37c:	addi	sp,sp,-16
 380:	lui	a5,0x0
 384:	sw	s0,8(sp)
 388:	lui	s0,0x0
 38c:	mv	a4,a5
 390:	mv	s0,s0
 394:	sub	s0,s0,a4
 398:	sw	s1,4(sp)
 39c:	sw	s2,0(sp)
 3a0:	sw	ra,12(sp)
 3a4:	srai	s0,s0,0x2
 3a8:	li	s1,0
 3ac:	mv	s2,a5
 3b0:	bne	s1,s0,3f4 <__libc_init_array+0x78>
 3b4:	jal	ra,48 <_fini>
 3b8:	lui	a5,0x0
 3bc:	lui	s0,0x0
 3c0:	mv	a4,a5
 3c4:	mv	s0,s0
 3c8:	sub	s0,s0,a4
 3cc:	srai	s0,s0,0x2
 3d0:	li	s1,0
 3d4:	mv	s2,a5
 3d8:	bne	s1,s0,40c <__libc_init_array+0x90>
 3dc:	lw	ra,12(sp)
 3e0:	lw	s0,8(sp)
 3e4:	lw	s1,4(sp)
 3e8:	lw	s2,0(sp)
 3ec:	addi	sp,sp,16
 3f0:	ret
 3f4:	slli	a5,s1,0x2
 3f8:	add	a5,s2,a5
 3fc:	lw	a5,0(a5) # 0 <_start>
 400:	addi	s1,s1,1
 404:	jalr	a5
 408:	j	3b0 <__libc_init_array+0x34>
 40c:	slli	a5,s1,0x2
 410:	add	a5,s2,a5
 414:	lw	a5,0(a5)
 418:	addi	s1,s1,1
 41c:	jalr	a5
 420:	j	3d8 <__libc_init_array+0x5c>

00000424 <memset>:
 424:	li	t1,15
 428:	mv	a4,a0
 42c:	bgeu	t1,a2,468 <memset+0x44>
 430:	andi	a5,a4,15
 434:	bnez	a5,4d4 <memset+0xb0>
 438:	bnez	a1,4bc <memset+0x98>
 43c:	andi	a3,a2,-16
 440:	andi	a2,a2,15
 444:	add	a3,a3,a4
 448:	sw	a1,0(a4)
 44c:	sw	a1,4(a4)
 450:	sw	a1,8(a4)
 454:	sw	a1,12(a4)
 458:	addi	a4,a4,16
 45c:	bltu	a4,a3,448 <memset+0x24>
 460:	bnez	a2,468 <memset+0x44>
 464:	ret
 468:	sub	a3,t1,a2
 46c:	slli	a3,a3,0x2
 470:	auipc	t0,0x0
 474:	add	a3,a3,t0
 478:	jr	12(a3)
 47c:	sb	a1,14(a4)
 480:	sb	a1,13(a4)
 484:	sb	a1,12(a4)
 488:	sb	a1,11(a4)
 48c:	sb	a1,10(a4)
 490:	sb	a1,9(a4)
 494:	sb	a1,8(a4)
 498:	sb	a1,7(a4)
 49c:	sb	a1,6(a4)
 4a0:	sb	a1,5(a4)
 4a4:	sb	a1,4(a4)
 4a8:	sb	a1,3(a4)
 4ac:	sb	a1,2(a4)
 4b0:	sb	a1,1(a4)
 4b4:	sb	a1,0(a4)
 4b8:	ret
 4bc:	andi	a1,a1,255
 4c0:	slli	a3,a1,0x8
 4c4:	or	a1,a1,a3
 4c8:	slli	a3,a1,0x10
 4cc:	or	a1,a1,a3
 4d0:	j	43c <memset+0x18>
 4d4:	slli	a3,a5,0x2
 4d8:	auipc	t0,0x0
 4dc:	add	a3,a3,t0
 4e0:	mv	t0,ra
 4e4:	jalr	-96(a3)
 4e8:	mv	ra,t0
 4ec:	addi	a5,a5,-16
 4f0:	sub	a4,a4,a5
 4f4:	add	a2,a2,a5
 4f8:	bgeu	t1,a2,468 <memset+0x44>
 4fc:	j	438 <memset+0x14>

00000500 <__register_exitproc>:
 500:	lui	a5,0x5
 504:	lw	a4,-1184(a5) # 4b60 <_global_impure_ptr>
 508:	mv	t1,a0
 50c:	lw	a5,328(a4)
 510:	bnez	a5,51c <__register_exitproc+0x1c>
 514:	addi	a5,a4,332
 518:	sw	a5,328(a4)
 51c:	lw	a4,4(a5)
 520:	li	a6,31
 524:	li	a0,-1
 528:	blt	a6,a4,57c <__register_exitproc+0x7c>
 52c:	slli	a7,a4,0x2
 530:	beqz	t1,568 <__register_exitproc+0x68>
 534:	add	a0,a5,a7
 538:	sw	a2,136(a0)
 53c:	lw	a6,392(a5)
 540:	li	a2,1
 544:	sll	a2,a2,a4
 548:	or	a6,a6,a2
 54c:	sw	a6,392(a5)
 550:	sw	a3,264(a0)
 554:	li	a3,2
 558:	bne	t1,a3,568 <__register_exitproc+0x68>
 55c:	lw	a3,396(a5)
 560:	or	a2,a3,a2
 564:	sw	a2,396(a5)
 568:	addi	a4,a4,1
 56c:	sw	a4,4(a5)
 570:	add	a5,a5,a7
 574:	sw	a1,8(a5)
 578:	li	a0,0
 57c:	ret

00000580 <__call_exitprocs>:
 580:	addi	sp,sp,-48
 584:	lui	a5,0x5
 588:	sw	s3,28(sp)
 58c:	lw	s3,-1184(a5) # 4b60 <_global_impure_ptr>
 590:	sw	s4,24(sp)
 594:	sw	s5,20(sp)
 598:	sw	s6,16(sp)
 59c:	sw	ra,44(sp)
 5a0:	sw	s0,40(sp)
 5a4:	sw	s1,36(sp)
 5a8:	sw	s2,32(sp)
 5ac:	sw	s7,12(sp)
 5b0:	mv	s5,a0
 5b4:	mv	s4,a1
 5b8:	li	s6,1
 5bc:	lw	s1,328(s3)
 5c0:	beqz	s1,5d8 <__call_exitprocs+0x58>
 5c4:	lw	s0,4(s1)
 5c8:	addi	s2,s0,-1
 5cc:	slli	s0,s0,0x2
 5d0:	add	s0,s1,s0
 5d4:	bgez	s2,604 <__call_exitprocs+0x84>
 5d8:	lw	ra,44(sp)
 5dc:	lw	s0,40(sp)
 5e0:	lw	s1,36(sp)
 5e4:	lw	s2,32(sp)
 5e8:	lw	s3,28(sp)
 5ec:	lw	s4,24(sp)
 5f0:	lw	s5,20(sp)
 5f4:	lw	s6,16(sp)
 5f8:	lw	s7,12(sp)
 5fc:	addi	sp,sp,48
 600:	ret
 604:	beqz	s4,61c <__call_exitprocs+0x9c>
 608:	lw	a5,260(s0)
 60c:	beq	a5,s4,61c <__call_exitprocs+0x9c>
 610:	addi	s2,s2,-1
 614:	addi	s0,s0,-4
 618:	j	5d4 <__call_exitprocs+0x54>
 61c:	lw	a4,4(s1)
 620:	lw	a5,4(s0)
 624:	addi	a4,a4,-1
 628:	bne	a4,s2,660 <__call_exitprocs+0xe0>
 62c:	sw	s2,4(s1)
 630:	beqz	a5,610 <__call_exitprocs+0x90>
 634:	lw	a3,392(s1)
 638:	sll	a4,s6,s2
 63c:	lw	s7,4(s1)
 640:	and	a3,a4,a3
 644:	bnez	a3,668 <__call_exitprocs+0xe8>
 648:	jalr	a5
 64c:	lw	a5,4(s1)
 650:	bne	a5,s7,5bc <__call_exitprocs+0x3c>
 654:	lw	a5,328(s3)
 658:	beq	a5,s1,610 <__call_exitprocs+0x90>
 65c:	j	5bc <__call_exitprocs+0x3c>
 660:	sw	zero,4(s0)
 664:	j	630 <__call_exitprocs+0xb0>
 668:	lw	a3,396(s1)
 66c:	lw	a1,132(s0)
 670:	and	a4,a4,a3
 674:	bnez	a4,684 <__call_exitprocs+0x104>
 678:	mv	a0,s5
 67c:	jalr	a5
 680:	j	64c <__call_exitprocs+0xcc>
 684:	mv	a0,a1
 688:	jalr	a5
 68c:	j	64c <__call_exitprocs+0xcc>

00000690 <_exit>:
 690:	li	a1,0
 694:	li	a2,0
 698:	li	a3,0
 69c:	li	a4,0
 6a0:	li	a5,0
 6a4:	li	a7,93
 6a8:	ecall
 6ac:	bgez	a0,6d0 <_exit+0x40>
 6b0:	addi	sp,sp,-16
 6b4:	sw	s0,8(sp)
 6b8:	mv	s0,a0
 6bc:	sw	ra,12(sp)
 6c0:	neg	s0,s0
 6c4:	jal	ra,6d4 <__errno>
 6c8:	sw	s0,0(a0)
 6cc:	j	6cc <_exit+0x3c>
 6d0:	j	6d0 <_exit+0x40>

000006d4 <__errno>:
 6d4:	lui	a5,0x5
 6d8:	lw	a0,-1188(a5) # 4b5c <_impure_ptr>
 6dc:	ret

Disassembly of section .text.startup:

000006e0 <main>:
    return 1;
#endif

  // Do the sort
  //setStats(1);
  sort( DATA_SIZE, input_data );
 6e0:	lui	a0,0x1
 6e4:	lui	a1,0x2
{
 6e8:	addi	sp,sp,-16
  sort( DATA_SIZE, input_data );
 6ec:	addi	a0,a0,-2048 # 800 <verify_data+0xd4>
 6f0:	addi	a1,a1,1836 # 272c <input_data>
{
 6f4:	sw	ra,12(sp)
  sort( DATA_SIZE, input_data );
 6f8:	jal	ra,140 <sort>
  //setStats(0);

  // Check the results
  //return verify( DATA_SIZE, input_data, verify_data );
}
 6fc:	lw	ra,12(sp)
 700:	li	a0,0
 704:	addi	sp,sp,16
 708:	ret
