
build/program.elf:     file format elf32-littleriscv

Contents of section .text.init:
 0000 17010100 130101fe ef008000 6f000000  ............o...
Contents of section .text:
 0010 97110000 938141f5 138541c6 138641c6  ......A...A...A.
 0020 3306a640 93050000 ef004037 17050000  3..@......@7....
 0030 1305c526 ef000022 ef00c02b 03250100  ...&..."...+.%..
 0040 93054100 13060000 ef00800e 6f00c021  ..A.........o..!
 0050 67800000 138781c6 938781c6 638ce700  g...........c...
 0060 37030000 13030300 63060300 138581c6  7.......c.......
 0070 67000300 67800000 938581c6 938781c6  g...g...........
 0080 b385f540 93d52540 93d7f501 b385b700  ...@..%@........
 0090 93d51540 638c0500 37030000 13030300  ...@c...7.......
 00a0 63060300 138581c6 67000300 67800000  c.......g...g...
 00b0 03478076 63140704 130101ff 23248100  .G.vc.......#$..
 00c0 23261100 13840700 eff0dff8 b7070000  #&..............
 00d0 93870700 63880700 138541c6 97000000  ....c.....A.....
 00e0 e7000000 93071000 2304f076 8320c100  ........#..v. ..
 00f0 03248100 13010101 67800000 67800000  .$......g...g...
 0100 b7070000 93870700 63820702 130101ff  ........c.......
 0110 9305c076 138541c6 23261100 97000000  ...v..A.#&......
 0120 e7000000 8320c100 13010101 6ff0dff4  ..... ......o...
 0130 37040c11 b7040011 37090811 03a50400  7.......7.......
 0140 ef000003 93091000 23203901 93891900  ........# 9.....
 0150 1305b003 ef000002 2320a400 6ff0dffe  ........# ..o...
 0160 67800000 1305f5ff e31e05fe 67800000  g...........g...
 0170 6f008030 130101ff 23261100 23248100  o..0....#&..#$..
 0180 13040500 ef004030 93050400 ef008009  ......@0........
 0190 8320c100 03248100 13010101 67800000  . ...$......g...
 01a0 63400506 63c60506 13860500 93050500  c@..c...........
 01b0 1305f0ff 630c0602 93061000 637ab600  ....c.......cz..
 01c0 6358c000 13161600 93961600 e36ab6fe  cX...........j..
 01d0 13050000 63e6c500 b385c540 3365d500  ....c......@3e..
 01e0 93d61600 13561600 e39606fe 67800000  .....V......g...
 01f0 93820000 eff05ffb 13850500 67800200  ......_.....g...
 0200 3305a040 63d80500 b305b040 6ff0dff9  3..@c......@o...
 0210 b305b040 93820000 eff01ff9 3305a040  ...@........3..@
 0220 67800200 93820000 63ca0500 634c0500  g.......c...cL..
 0230 eff09ff7 13850500 67800200 b305b040  ........g......@
 0240 e35805fe 3305a040 eff01ff6 3305b040  .X..3..@....3..@
 0250 67800200 93050500 93060000 13060000  g...............
 0260 13050000 6f008027 130101ff 93050000  ....o..'........
 0270 23248100 23261100 13040500 ef00c02d  #$..#&.........-
 0280 03a541c5 8327c503 63840700 e7800700  ..A..'..c.......
 0290 13050400 ef00003d 130101ff b7070000  .......=........
 02a0 23248100 37040000 13870700 13040400  #$..7...........
 02b0 3304e440 23229100 23261100 13542440  3..@#"..#&...T$@
 02c0 93840700 631c0400 03248100 8320c100  ....c....$... ..
 02d0 83244100 13010101 6ff09fd7 1304f4ff  .$A.....o.......
 02e0 93172400 b387f400 83a70700 e7800700  ..$.............
 02f0 6ff05ffd 130101ff b7070000 23248100  o._.........#$..
 0300 37040000 13870700 13040400 3304e440  7...........3..@
 0310 23229100 23202101 23261100 13542440  #"..# !.#&...T$@
 0320 93040000 13890700 63928404 eff05fd2  ........c....._.
 0330 b7070000 37040000 13870700 13040400  ....7...........
 0340 3304e440 13542440 93040000 13890700  3..@.T$@........
 0350 639a8402 8320c100 03248100 83244100  c.... ...$...$A.
 0360 03290100 13010101 67800000 93972400  .)......g.....$.
 0370 b307f900 83a70700 93841400 e7800700  ................
 0380 6ff09ffa 93972400 b307f900 83a70700  o.....$.........
 0390 93841400 e7800700 6ff09ffb 1303f000  ........o.......
 03a0 13070500 637ec302 9377f700 6390070a  ....c~...w..c...
 03b0 63920508 937606ff 1376f600 b386e600  c....v...v......
 03c0 2320b700 2322b700 2324b700 2326b700  # ..#"..#$..#&..
 03d0 13070701 e366d7fe 63140600 67800000  .....f..c...g...
 03e0 b306c340 93962600 97020000 b3865600  ...@..&.......V.
 03f0 6780c600 2307b700 a306b700 2306b700  g...#.......#...
 0400 a305b700 2305b700 a304b700 2304b700  ....#.......#...
 0410 a303b700 2303b700 a302b700 2302b700  ....#.......#...
 0420 a301b700 2301b700 a300b700 2300b700  ....#.......#...
 0430 67800000 93f5f50f 93968500 b3e5d500  g...............
 0440 93960501 b3e5d500 6ff0dff6 93962700  ........o.....'.
 0450 97020000 b3865600 93820000 e78006fa  ......V.........
 0460 93800200 938707ff 3307f740 3306f600  ........3..@3...
 0470 e378c3f6 6ff0dff3 83a701c5 23a4a70a  .x..o.......#...
 0480 23a6070a 67800000 130101ff 23248100  #...g.......#$..
 0490 03a401c5 b7170000 03a607bc 0325840a  .............%..
 04a0 8325c40a 83a647bc 23261100 ef004020  .%....G.#&....@ 
 04b0 93071500 33b5a700 3305b500 2326a40a  ....3...3...#&..
 04c0 2324f40a 8320c100 03248100 13151500  #$... ...$......
 04d0 13551500 13010101 67800000 03a741c5  .U......g.....A.
 04e0 13030500 83278714 63960700 9307c714  .....'..c.......
 04f0 2324f714 03a74700 1308f001 1305f0ff  #$....G.........
 0500 634ae804 93182700 630c0302 33851701  cJ....'.c...3...
 0510 2324c508 03a88718 13061000 3316e600  #$..........3...
 0520 3368c800 23a40719 2324d510 93062000  3h..#...#$.... .
 0530 6318d300 83a6c718 33e6c600 23a6c718  c.......3...#...
 0540 13071700 23a2e700 b3871701 23a4b700  ....#.......#...
 0550 13050000 67800000 130101fd 232e3101  ....g.......#.1.
 0560 83a941c5 232c4101 232a5101 23286101  ..A.#,A.#*Q.#(a.
 0570 23261102 23248102 23229102 23202103  #&..#$..#"..# !.
 0580 23267101 930a0500 138a0500 130b1000  #&q.............
 0590 83a48914 638c0400 03a44400 1309f4ff  ....c.....D.....
 05a0 13142400 33848400 63580902 8320c102  ..$.3...cX... ..
 05b0 03248102 83244102 03290102 8329c101  .$...$A..)...)..
 05c0 032a8101 832a4101 032b0101 832bc100  .*...*A..+...+..
 05d0 13010103 67800000 630c0a00 83274410  ....g...c....'D.
 05e0 63884701 1309f9ff 1304c4ff 6ff0dffb  c.G.........o...
 05f0 03a74400 83274400 1307f7ff 631c2703  ..D..'D.....c.'.
 0600 23a22401 e38007fe 83a68418 33172b01  #.$.........3.+.
 0610 83ab4400 b376d700 63920602 e7800700  ..D..v..c.......
 0620 83a74400 e39677f7 83a78914 e38c97fa  ..D...w.........
 0630 6ff01ff6 23220400 6ff0dffc 83a6c418  o...#"..o.......
 0640 83254408 3377d700 63180700 13850a00  .%D.3w..c.......
 0650 e7800700 6ff0dffc 13850500 e7800700  ....o...........
 0660 6ff01ffc 93050000 13060000 93060000  o...............
 0670 13070000 93070000 9308d005 73000000  ............s...
 0680 63520502 130101ff 23248100 13040500  cR......#$......
 0690 23261100 33048040 ef000001 23208500  #&..3..@....# ..
 06a0 6f000000 6f000000 03a501c5 67800000  o...o.......g...
 06b0 130101ff 13830600 23261100 130e0500  ........#&......
 06c0 93080500 93060600 13070000 93070000  ................
 06d0 13080000 13f51600 931e1700 630c0500  ............c...
 06e0 33850801 33380501 b387e700 b307f800  3...38..........
 06f0 13080500 13d7f801 93d61600 33e7ee00  ............3...
 0700 93981800 e39806fc 63880500 13050600  ........c.......
 0710 ef000003 b387a700 630a0300 13050e00  ........c.......
 0720 93050300 ef00c001 b307f500 8320c100  ............. ..
 0730 13050800 93850700 13010101 67800000  ............g...
 0740 13060500 13050000 93f61500 63840600  ............c...
 0750 3305c500 93d51500 13161600 e39605fe  3...............
 0760 67800000                             g...            
Contents of section .data:
 0768 00000000 00000000 00000000 00000000  ................
 0778 00000000 00000000 00000000 00000000  ................
 0788 00000000 740a0000 dc0a0000 440b0000  ....t.......D...
 0798 00000000 00000000 00000000 00000000  ................
 07a8 00000000 00000000 00000000 00000000  ................
 07b8 00000000 00000000 00000000 00000000  ................
 07c8 00000000 00000000 00000000 00000000  ................
 07d8 00000000 00000000 00000000 00000000  ................
 07e8 00000000 00000000 00000000 00000000  ................
 07f8 00000000 00000000 00000000 00000000  ................
 0808 00000000 00000000 00000000 00000000  ................
 0818 00000000 00000000 00000000 00000000  ................
 0828 00000000 00000000 01000000 00000000  ................
 0838 0e33cdab 34126de6 ecde0500 0b000000  .3..4.m.........
 0848 00000000 00000000 00000000 00000000  ................
 0858 00000000 00000000 00000000 00000000  ................
 0868 00000000 00000000 00000000 00000000  ................
 0878 00000000 00000000 00000000 00000000  ................
 0888 00000000 00000000 00000000 00000000  ................
 0898 00000000 00000000 00000000 00000000  ................
 08a8 00000000 00000000 00000000 00000000  ................
 08b8 00000000 00000000 00000000 00000000  ................
 08c8 00000000 00000000 00000000 00000000  ................
 08d8 00000000 00000000 00000000 00000000  ................
 08e8 00000000 00000000 00000000 00000000  ................
 08f8 00000000 00000000 00000000 00000000  ................
 0908 00000000 00000000 00000000 00000000  ................
 0918 00000000 00000000 00000000 00000000  ................
 0928 00000000 00000000 00000000 00000000  ................
 0938 00000000 00000000 00000000 00000000  ................
 0948 00000000 00000000 00000000 00000000  ................
 0958 00000000 00000000 00000000 00000000  ................
 0968 00000000 00000000 00000000 00000000  ................
 0978 00000000 00000000 00000000 00000000  ................
 0988 00000000 00000000 00000000 00000000  ................
 0998 00000000 00000000 00000000 00000000  ................
 09a8 00000000 00000000 00000000 00000000  ................
 09b8 00000000 00000000 00000000 00000000  ................
 09c8 00000000 00000000 00000000 00000000  ................
 09d8 00000000 00000000 00000000 00000000  ................
 09e8 00000000 00000000 00000000 00000000  ................
 09f8 00000000 00000000 00000000 00000000  ................
 0a08 00000000 00000000 00000000 00000000  ................
 0a18 00000000 00000000 00000000 00000000  ................
 0a28 00000000 00000000 00000000 00000000  ................
 0a38 00000000 00000000 00000000 00000000  ................
 0a48 00000000 00000000 00000000 00000000  ................
 0a58 00000000 00000000 00000000 00000000  ................
 0a68 00000000 00000000 00000000 00000000  ................
 0a78 00000000 00000000 00000000 00000000  ................
 0a88 00000000 00000000 00000000 00000000  ................
 0a98 00000000 00000000 00000000 00000000  ................
 0aa8 00000000 00000000 00000000 00000000  ................
 0ab8 00000000 00000000 00000000 00000000  ................
 0ac8 00000000 00000000 00000000 00000000  ................
 0ad8 00000000 00000000 00000000 00000000  ................
 0ae8 00000000 00000000 00000000 00000000  ................
 0af8 00000000 00000000 00000000 00000000  ................
 0b08 00000000 00000000 00000000 00000000  ................
 0b18 00000000 00000000 00000000 00000000  ................
 0b28 00000000 00000000 00000000 00000000  ................
 0b38 00000000 00000000 00000000 00000000  ................
 0b48 00000000 00000000 00000000 00000000  ................
 0b58 00000000 00000000 00000000 00000000  ................
 0b68 00000000 00000000 00000000 00000000  ................
 0b78 00000000 00000000 00000000 00000000  ................
 0b88 00000000 00000000 00000000 00000000  ................
 0b98 00000000 00000000 00000000 00000000  ................
 0ba8 00000000 00000000 00000000 88070000  ................
 0bb8 88070000 00000000 2d7f954c 2df45158  ........-..L-.QX
Contents of section .eh_frame:
 0bc8 00000000                             ....            
Contents of section .fini_array:
 0bcc b0000000                             ....            
Contents of section .init_array:
 0bd0 00010000                             ....            
Contents of section .comment:
 0000 4743433a 2028474e 55292038 2e322e30  GCC: (GNU) 8.2.0
 0010 00                                   .               
Contents of section .debug_line:
 0000 41000000 02002100 00000101 fb0e0d00  A.....!.........
 0010 01010101 00000001 00000173 72630000  ...........src..
 0020 696e6974 2e730001 00000000 05020000  init.s..........
 0030 00001803 02090800 01030509 04000109  ................
 0040 04000001 01910000 00020021 00000001  ...........!....
 0050 01fb0e0d 00010101 01000000 01000001  ................
 0060 73726300 006d6169 6e2e7300 01000000  src..main.s.....
 0070 00050230 01000003 0c010301 09040001  ...0............
 0080 03010904 00010302 09040001 03010904  ................
 0090 00010302 09040001 03030904 00010301  ................
 00a0 09040001 03010904 00010301 09040001  ................
 00b0 03020904 00010304 09040001 03010904  ................
 00c0 00010303 09040001 03010904 00010301  ................
 00d0 09040001 09040000 01015101 00000200  ..........Q.....
 00e0 fc000000 0101fb0e 0d000101 01010000  ................
 00f0 00010000 01737263 002f686f 6d652f73  .....src./home/s
 0100 74756465 6e742f6c 6f63616c 2f726973  tudent/local/ris
 0110 63763332 2d756e6b 6e6f776e 2d656c66  cv32-unknown-elf
 0120 2f696e63 6c756465 2f737973 002f686f  /include/sys./ho
 0130 6d652f73 74756465 6e742f6c 6f63616c  me/student/local
 0140 2f6c6962 2f676363 2f726973 63763332  /lib/gcc/riscv32
 0150 2d756e6b 6e6f776e 2d656c66 2f382e32  -unknown-elf/8.2
 0160 2e302f69 6e636c75 6465002f 686f6d65  .0/include./home
 0170 2f737475 64656e74 2f6c6f63 616c2f72  /student/local/r
 0180 69736376 33322d75 6e6b6e6f 776e2d65  iscv32-unknown-e
 0190 6c662f69 6e636c75 64650000 72616e64  lf/include..rand
 01a0 2e630001 00006c6f 636b2e68 00020000  .c....lock.h....
 01b0 5f747970 65732e68 00020000 73746464  _types.h....stdd
 01c0 65662e68 00030000 7265656e 742e6800  ef.h....reent.h.
 01d0 02000073 74646c69 622e6800 04000000  ...stdlib.h.....
 01e0 05010005 02700100 00140502 03010900  .....p..........
 01f0 00010501 03030904 00010502 03010900  ................
 0200 00010501 06037f09 00000103 00090c00  ................
 0210 01050903 01090400 01050f03 00090400  ................
 0220 01050103 01090800 01091000 00010164  ...............d
 0230 01000002 00450000 000101fb 0e0d0001  .....E..........
 0240 01010100 00000100 00012e2e 2f2e2e2f  ............/../
 0250 2e2e2f2e 2f726973 63762d67 63632f6c  .././riscv-gcc/l
 0260 69626763 632f636f 6e666967 2f726973  ibgcc/config/ris
 0270 63760000 6469762e 53000100 00000005  cv..div.S.......
 0280 02a00100 0003c400 01030109 04000103  ................
 0290 04090400 01030109 04000103 01090400  ................
 02a0 01030109 04000103 01090400 01030109  ................
 02b0 04000103 02090400 01030109 04000103  ................
 02c0 01090400 01030109 04000103 02090400  ................
 02d0 01030209 04000103 01090400 01030109  ................
 02e0 04000103 02090400 01030109 04000103  ................
 02f0 01090400 01030209 04000103 05090400  ................
 0300 01030109 04000103 01090400 01030109  ................
 0310 04000103 05090400 01030109 04000103  ................
 0320 01090400 01030109 04000103 02090400  ................
 0330 01030209 04000103 01090400 01030109  ................
 0340 04000103 01090400 01030409 04000103  ................
 0350 01090400 01030109 04000103 02090400  ................
 0360 01030109 04000103 01090400 01030209  ................
 0370 04000103 01090400 01030209 04000103  ................
 0380 01090400 01030109 04000103 01090400  ................
 0390 01090400 00010106 04000002 00150200  ................
 03a0 000101fb 0e0d0001 01010100 00000100  ................
 03b0 00012e2e 2f2e2e2f 2e2e2f2e 2f726973  ..../../.././ris
 03c0 63762d67 63632f6c 69626763 632f636f  cv-gcc/libgcc/co
 03d0 6e666967 2f726973 6376002f 686f6d65  nfig/riscv./home
 03e0 2f737475 64656e74 2f6c6f63 616c2f72  /student/local/r
 03f0 69736376 33322d75 6e6b6e6f 776e2d65  iscv32-unknown-e
 0400 6c662f69 6e636c75 64652f73 7973002f  lf/include/sys./
 0410 686f6d65 2f737475 64656e74 2f726973  home/student/ris
 0420 63762d74 6f6f6c73 2f726973 63762d67  cv-tools/riscv-g
 0430 6e752d74 6f6f6c63 6861696e 2f627569  nu-toolchain/bui
 0440 6c642d67 63632d6e 65776c69 622d7374  ld-gcc-newlib-st
 0450 61676532 2f676363 2f696e63 6c756465  age2/gcc/include
 0460 002f686f 6d652f73 74756465 6e742f6c  ./home/student/l
 0470 6f63616c 2f726973 63763332 2d756e6b  ocal/riscv32-unk
 0480 6e6f776e 2d656c66 2f696e63 6c756465  nown-elf/include
 0490 002e2e2f 2e2e2f2e 2e2f2e2f 72697363  .../../.././risc
 04a0 762d6763 632f6c69 62676363 2f2e2e2f  v-gcc/libgcc/../
 04b0 696e636c 75646500 2e2e2f2e 2e2f2e2e  include.../../..
 04c0 2f2e2f72 69736376 2d676363 2f6c6962  /./riscv-gcc/lib
 04d0 6763632f 2e2e2f67 63632f63 6f6e6669  gcc/../gcc/confi
 04e0 672f7269 73637600 2e2e2f2e 2e2f2e2f  g/riscv.../.././
 04f0 67636300 2e2e2f2e 2e2f2e2e 2f2e2f72  gcc.../../.././r
 0500 69736376 2d676363 2f6c6962 67636300  iscv-gcc/libgcc.
 0510 006d756c 7469332e 63000100 006c6f63  .multi3.c....loc
 0520 6b2e6800 0200005f 74797065 732e6800  k.h...._types.h.
 0530 02000073 74646465 662e6800 03000072  ...stddef.h....r
 0540 65656e74 2e680002 00006572 726e6f2e  eent.h....errno.
 0550 68000200 00737464 6c69622e 68000400  h....stdlib.h...
 0560 00756e69 7374642e 68000200 0074696d  .unistd.h....tim
 0570 652e6800 04000068 61736874 61622e68  e.h....hashtab.h
 0580 00050000 72697363 762d6f70 74732e68  ....riscv-opts.h
 0590 00060000 696e736e 2d636f6e 7374616e  ....insn-constan
 05a0 74732e68 00070000 6c696267 6363322e  ts.h....libgcc2.
 05b0 68000800 00000501 000502b0 06000003  h...............
 05c0 29010503 03010900 00010301 09000001  )...............
 05d0 03010900 00010301 09000001 05010603  ................
 05e0 7c090000 01030009 0c000105 0a030409  |...............
 05f0 04000105 03060301 09040001 03010900  ................
 0600 00010301 09000001 03010900 00010301  ................
 0610 09000001 03010900 0001050a 06037b09  ..............{.
 0620 00000103 05090400 01037f09 04000103  ................
 0630 7e090400 01050306 03040904 00010301  ~...............
 0640 09000001 03040900 00010507 03020900  ................
 0650 00010301 09000001 05110603 02090000  ................
 0660 01051403 7e090400 01050706 03010904  ....~...........
 0670 00010301 09000001 050a0603 00090000  ................
 0680 01051103 7d090400 01050406 03050904  ....}...........
 0690 00010301 09000001 03010900 00010516  ................
 06a0 06037e09 00000105 12037d09 04000105  ..~.......}.....
 06b0 0b030509 04000105 0a037f09 04000105  ................
 06c0 07060303 09040001 05110603 00090000  ................
 06d0 01050706 03010904 0001050d 06030009  ................
 06e0 00000105 07060301 09040001 03010900  ................
 06f0 00010512 06030009 00000105 03030209  ................
 0700 08000106 03020904 00010301 09000001  ................
 0710 03020900 00010506 06030009 00000105  ................
 0720 05060301 09040001 051b0300 09000001  ................
 0730 03000904 00010300 09000001 03000904  ................
 0740 00010519 06030009 00000105 03060302  ................
 0750 09040001 05060603 00090000 01050506  ................
 0760 03010904 00010511 03000900 00010300  ................
 0770 09040001 03000904 00010300 09040001  ................
 0780 050e0603 00090000 01050306 03020904  ................
 0790 00010501 06030109 00000109 14000001  ................
 07a0 018e0000 00020048 00000001 01fb0e0d  .......H........
 07b0 00010101 01000000 01000001 2e2e2f2e  ............../.
 07c0 2e2f2e2e 2f2e2f72 69736376 2d676363  ./.././riscv-gcc
 07d0 2f6c6962 6763632f 636f6e66 69672f72  /libgcc/config/r
 07e0 69736376 00006d75 6c646933 2e530001  iscv..muldi3.S..
 07f0 00000000 05024007 00000324 01030109  ......@....$....
 0800 04000103 02090400 01030109 04000103  ................
 0810 01090400 01030209 04000103 01090400  ................
 0820 01030109 04000103 01090400 01090400  ................
 0830 000101                               ...             
Contents of section .debug_info:
 0000 22000000 02000000 00000401 00000000  "...............
 0010 00000000 10000000 00000000 0b000000  ................
 0020 2d000000 01802200 00000200 14000000  -.....".........
 0030 04014500 00003001 00007001 00003b00  ..E...0...p...;.
 0040 00000b00 00002d00 00000180 a2090000  ......-.........
 0050 04002800 00000401 43020000 0c8b0200  ..(.....C.......
 0060 000b0000 00700100 00300000 00da0000  .....p...0......
 0070 00020407 9b000000 03040569 6e740002  ...........int..
 0080 0805e200 00000210 04b10500 00020106  ................
 0090 ef020000 020108ed 02000002 02050903  ................
 00a0 00000202 07eb0100 00020405 e7000000  ................
 00b0 02040796 00000002 08079100 000004db  ................
 00c0 02000002 0c0d2c00 000004c3 02000003  ......,.........
 00d0 2c0e5d00 000004c5 03000003 720e5d00  ,.].........r.].
 00e0 00000441 04000003 91172c00 0000052e  ...A......,.....
 00f0 02000004 65011725 00000006 0403a603  ....e..%........
 0100 d1000000 07280200 0003a80c a2000000  .....(..........
 0110 07c70100 0003a913 d1000000 00084800  ..............H.
 0120 0000e100 00000925 00000003 000a0803  .......%........
 0130 a3090501 00000baf 03000003 a5072c00  ..............,.
 0140 0000000b b7030000 03aa05af 00000004  ................
 0150 00043103 000003ab 03e10000 00048a01  ..1.............
 0160 000003af 1b720000 000c040d 04250100  .....r.......%..
 0170 00020108 f6020000 0e250100 0004f703  .........%......
 0180 00000516 19640000 000f9b01 00001805  .....d..........
 0190 2f089701 00000b52 03000005 31139701  /......R....1...
 01a0 00000010 5f6b0005 32072c00 0000040b  ...._k..2.,.....
 01b0 9a030000 05320b2c 00000008 0b840100  .....2.,........
 01c0 00053214 2c000000 0c0b2c04 00000532  ..2.,.....,....2
 01d0 1b2c0000 0010105f 78000533 0b9d0100  .,....._x..3....
 01e0 0014000d 043d0100 00083101 0000ad01  .....=....1.....
 01f0 00000925 00000000 000fc201 00002405  ...%..........$.
 0200 37083002 00000bd9 00000005 39092c00  7.0.........9.,.
 0210 0000000b cd030000 053a092c 00000004  .........:.,....
 0220 0bfc0000 00053b09 2c000000 080ba504  ......;.,.......
 0230 0000053c 092c0000 000c0b9d 02000005  ...<.,..........
 0240 3d092c00 0000100b 78020000 053e092c  =.,.....x....>.,
 0250 00000014 0b310400 00053f09 2c000000  .....1....?.,...
 0260 180b1303 00000540 092c0000 001c0b6c  .......@.,.....l
 0270 04000005 41092c00 00002000 110b0100  ....A.,... .....
 0280 00080105 4a087502 00000b77 01000005  ....J.u....w....
 0290 4b0a7502 0000000b 46000000 054c0975  K.u.....F....L.u
 02a0 02000080 12e90300 00054e0a 31010000  ..........N.1...
 02b0 00011230 01000005 510a3101 00000401  ...0....Q.1.....
 02c0 00081d01 00008502 00000925 0000001f  ...........%....
 02d0 0011a602 00009001 055d08c8 0200000b  .........]......
 02e0 52030000 055e12c8 02000000 0b6a0300  R....^.......j..
 02f0 00055f06 2c000000 040b7f01 00000561  .._.,..........a
 0300 09ce0200 00080b0b 01000005 621e3002  ............b.0.
 0310 00008800 0d048502 000008de 020000de  ................
 0320 02000009 25000000 1f000d04 e4020000  ....%...........
 0330 130f1d03 00000805 75080d03 00000bf6  ........u.......
 0340 00000005 76110d03 0000000b 52000000  ....v.......R...
 0350 0577062c 00000004 000d0448 0000000f  .w.,.......H....
 0360 3c030000 6805b508 56040000 105f7000  <...h...V...._p.
 0370 05b6120d 03000000 105f7200 05b7072c  ........._r....,
 0380 00000004 105f7700 05b8072c 00000008  ....._w....,....
 0390 0b290100 0005b909 4f000000 0c0bde01  .)......O.......
 03a0 000005ba 094f0000 000e105f 62660005  .....O....._bf..
 03b0 bb11e502 0000100b a8000000 05bc072c  ...............,
 03c0 00000018 0b190100 0005c30a 1d010000  ................
 03d0 1c0bb201 000005c5 1dc80500 00200b71  ............. .q
 03e0 02000005 c71df205 0000240b bf030000  ..........$.....
 03f0 05ca0d16 06000028 0b860400 0005cb09  .......(........
 0400 30060000 2c105f75 620005ce 11e50200  0...,._ub.......
 0410 0030105f 75700005 cf120d03 00003810  .0._up........8.
 0420 5f757200 05d0072c 0000003c 0bf00000  _ur....,...<....
 0430 0005d311 36060000 400b5e04 000005d4  ....6...@.^.....
 0440 11460600 0043105f 6c620005 d711e502  .F...C._lb......
 0450 0000440b 3f010000 05da072c 0000004c  ..D.?......,...L
 0460 0b500100 0005db0a 7e000000 500b6b00  .P......~...P.k.
 0470 000005de 12740400 00540b35 02000005  .....t...T.5....
 0480 e20c1101 0000580b 44030000 05e40e05  ......X.D.......
 0490 0100005c 0b3b0200 0005e509 2c000000  ...\.;......,...
 04a0 64001496 00000074 04000015 74040000  d......t....t...
 04b0 151d0100 00151f01 0000152c 00000000  ...........,....
 04c0 0d047f04 00000e74 04000016 a2030000  .......t........
 04d0 28040539 0208c805 00001702 03000005  (..9............
 04e0 3b02072c 00000000 17380100 00054002  ;..,.....8....@.
 04f0 0ba20600 000417ce 01000005 400214a2  ............@...
 0500 06000008 17930100 00054002 1ea20600  ..........@.....
 0510 000c1765 03000005 4202082c 00000010  ...e....B..,....
 0520 17600000 00054302 08a20800 00141781  .`....C.........
 0530 03000005 4602072c 00000030 176f0300  ....F..,...0.o..
 0540 00054702 16b70800 003417b8 02000005  ..G......4......
 0550 4902072c 00000038 17770300 00054b02  I..,...8.w....K.
 0560 0ac80800 003c1720 02000005 4e021397  .....<. ....N...
 0570 01000040 17b80100 00054f02 072c0000  ...@......O..,..
 0580 004417a0 04000005 50021397 01000048  .D......P......H
 0590 17ca0200 00055102 14ce0800 004c17d6  ......Q......L..
 05a0 01000005 5402072c 00000050 17480100  ....T..,...P.H..
 05b0 00055502 091f0100 005417fb 02000005  ..U......T......
 05c0 7802077d 08000058 18a60200 00057c02  x..}...X......|.
 05d0 13c80200 00480118 fe010000 057d0212  .....H.......}..
 05e0 85020000 4c011854 04000005 81020cdf  ....L..T........
 05f0 080000dc 02182101 00000586 02106306  ......!.......c.
 0600 0000e002 18060100 00058802 0aeb0800  ................
 0610 00ec0200 0d045604 00001496 000000ec  ......V.........
 0620 05000015 74040000 151d0100 0015ec05  ....t...........
 0630 0000152c 00000000 0d042c01 00000d04  ...,......,.....
 0640 ce050000 148a0000 00160600 00157404  ..............t.
 0650 0000151d 01000015 8a000000 152c0000  .............,..
 0660 00000d04 f8050000 142c0000 00300600  .........,...0..
 0670 00157404 0000151d 01000000 0d041c06  ..t.............
 0680 00000848 00000046 06000009 25000000  ...H...F....%...
 0690 02000848 00000056 06000009 25000000  ...H...V....%...
 06a0 0000052a 03000005 1f011a13 03000019  ...*............
 06b0 3b040000 0c052301 089c0600 00175203  ;.....#.......R.
 06c0 00000525 01119c06 00000017 e4010000  ...%............
 06d0 05260107 2c000000 04172403 00000527  .&..,.....$....'
 06e0 010ba206 00000800 0d046306 00000d04  ..........c.....
 06f0 56060000 19580000 000e053f 0108e106  V....X.....?....
 0700 000017a9 03000005 400112e1 06000000  ........@.......
 0710 17d60300 00054101 12e10600 000617f2  ......A.........
 0720 03000005 42011256 0000000c 00085600  ....B..V......V.
 0730 0000f106 00000925 00000002 001ad005  .......%........
 0740 59020706 08000017 1f040000 055b0218  Y............[..
 0750 25000000 0017dc03 0000055c 02121f01  %..........\....
 0760 00000417 13020000 055d0210 06080000  .........]......
 0770 08177704 0000055e 0217ad01 00002417  ..w....^......$.
 0780 a3010000 055f020f 2c000000 48174d03  ....._..,...H.M.
 0790 00000560 022c6b00 00005017 8d040000  ...`.,k...P.....
 07a0 0561021a a8060000 58175803 00000562  .a......X.X....b
 07b0 02160501 00006817 92040000 05630216  ......h......c..
 07c0 05010000 7017cb00 00000564 02160501  ....p......d....
 07d0 00007817 4a040000 05650210 16080000  ..x.J....e......
 07e0 80170702 00000566 02102608 00008817  .......f..&.....
 07f0 ff030000 0567020f 2c000000 a0176901  .....g..,.....i.
 0800 00000568 02160501 0000a417 bc000000  ...h............
 0810 05690216 05010000 ac175801 0000056a  .i........X....j
 0820 02160501 0000b417 71000000 056b0216  ........q....k..
 0830 05010000 bc178000 0000056c 02160501  ...........l....
 0840 0000c417 00030000 056d0208 2c000000  .........m..,...
 0850 cc000825 01000016 08000009 25000000  ...%........%...
 0860 19000825 01000026 08000009 25000000  ...%...&....%...
 0870 07000825 01000036 08000009 25000000  ...%...6....%...
 0880 17001af0 05720207 5d080000 17960200  .....r..].......
 0890 00057502 1b5d0800 00001782 02000005  ..u..]..........
 08a0 7602186d 08000078 00080d03 00006d08  v..m...x......m.
 08b0 00000925 0000001d 00082500 00007d08  ...%......%...}.
 08c0 00000925 0000001d 001bf005 570203a2  ...%........W...
 08d0 0800001c a2030000 056e020b f1060000  .........n......
 08e0 1c640400 00057702 0b360800 00000825  .d....w..6.....%
 08f0 010000b2 08000009 25000000 18001db1  ........%.......
 0900 0000000d 04b20800 001ec808 00001574  ...............t
 0910 04000000 0d04bd08 00000d04 97010000  ................
 0920 1edf0800 00152c00 0000000d 04e50800  ......,.........
 0930 000d04d4 08000008 56060000 fb080000  ........V.......
 0940 09250000 0002001f 13040000 05070317  .%..............
 0950 74040000 1f0c0400 00050803 1d7a0400  t............z..
 0960 0020ae02 00000663 0e1f0100 00212604  . .....c.....!&.
 0970 00000106 052c0000 00740100 002c0000  .....,...t...,..
 0980 00019c55 09000022 6d617800 01060f2c  ...U..."max....,
 0990 00000000 00000023 88010000 8d090000  .......#........
 09a0 0024d402 00000102 06700100 00040000  .$.......p......
 09b0 00019c8d 09000025 aa030000 0102112c  .......%.......,
 09c0 0000002c 00000026 74010000 99090000  ...,...&t.......
 09d0 27015a03 f3015a00 00282800 00002800  '.Z...Z..((...(.
 09e0 0000068c 0528d502 0000d502 0000069b  .....(..........
 09f0 06002200 00000200 71020000 04012f02  ..".....q...../.
 0a00 0000a001 00005402 0000af04 0000de04  ......T.........
 0a10 00002d00 00000180 e60c0000 04008502  ..-.............
 0a20 00000401 da060000 0c6a0500 00de0400  .........j......
 0a30 00b00600 00900000 00970300 00020807  ................
 0a40 91000000 03040569 6e740002 04079b00  .......int......
 0a50 00000208 05e20000 00021004 b1050000  ................
 0a60 020106ef 02000002 0108ed02 00000202  ................
 0a70 05090300 00020207 eb010000 020405e7  ................
 0a80 00000002 04079600 000004db 02000002  ................
 0a90 0c0d2c00 000004c3 02000003 2c0e6400  ..,.........,.d.
 0aa0 000004c5 03000003 720e6400 00000441  ........r.d....A
 0ab0 04000003 91172c00 0000052e 02000004  ......,.........
 0ac0 65011733 00000006 0403a603 d1000000  e..3............
 0ad0 07280200 0003a80c a2000000 07c70100  .(..............
 0ae0 0003a913 d1000000 00084f00 0000e100  ..........O.....
 0af0 00000933 00000003 000a0803 a3090501  ...3............
 0b00 00000baf 03000003 a5072c00 0000000b  ..........,.....
 0b10 b7030000 03aa05af 00000004 00043103  ..............1.
 0b20 000003ab 03e10000 00048a01 000003af  ................
 0b30 1b720000 000c0404 f7030000 0516196b  .r.............k
 0b40 0000000d 9b010000 18052f08 85010000  ........../.....
 0b50 0b520300 00053113 85010000 000e5f6b  .R....1......._k
 0b60 00053207 2c000000 040b9a03 00000532  ..2.,..........2
 0b70 0b2c0000 00080b84 01000005 32142c00  .,..........2.,.
 0b80 00000c0b 2c040000 05321b2c 00000010  ....,....2.,....
 0b90 0e5f7800 05330b8b 01000014 000f042b  ._x..3.........+
 0ba0 01000008 1f010000 9b010000 09330000  .............3..
 0bb0 0000000d c2010000 24053708 1e020000  ........$.7.....
 0bc0 0bd90000 00053909 2c000000 000bcd03  ......9.,.......
 0bd0 0000053a 092c0000 00040bfc 00000005  ...:.,..........
 0be0 3b092c00 0000080b a5040000 053c092c  ;.,..........<.,
 0bf0 0000000c 0b9d0200 00053d09 2c000000  ..........=.,...
 0c00 100b7802 0000053e 092c0000 00140b31  ..x....>.,.....1
 0c10 04000005 3f092c00 0000180b 13030000  ....?.,.........
 0c20 0540092c 0000001c 0b6c0400 00054109  .@.,.....l....A.
 0c30 2c000000 2000100b 01000008 01054a08  ,... .........J.
 0c40 63020000 0b770100 00054b0a 63020000  c....w....K.c...
 0c50 000b4600 0000054c 09630200 008011e9  ..F....L.c......
 0c60 03000005 4e0a1f01 00000001 11300100  ....N........0..
 0c70 0005510a 1f010000 04010008 1d010000  ..Q.............
 0c80 73020000 09330000 001f0010 a6020000  s....3..........
 0c90 9001055d 08b60200 000b5203 0000055e  ...]......R....^
 0ca0 12b60200 00000b6a 03000005 5f062c00  .......j...._.,.
 0cb0 0000040b 7f010000 056109bc 02000008  .........a......
 0cc0 0b0b0100 0005621e 1e020000 88000f04  ......b.........
 0cd0 73020000 08cc0200 00cc0200 00093300  s.............3.
 0ce0 00001f00 0f04d202 0000120d 1d030000  ................
 0cf0 08057508 fb020000 0bf60000 00057611  ..u...........v.
 0d00 fb020000 000b5200 00000577 062c0000  ......R....w.,..
 0d10 0004000f 044f0000 000d3c03 00006805  .....O....<...h.
 0d20 b5084404 00000e5f 700005b6 12fb0200  ..D...._p.......
 0d30 00000e5f 720005b7 072c0000 00040e5f  ..._r....,....._
 0d40 770005b8 072c0000 00080b29 01000005  w....,.....)....
 0d50 b9095600 00000c0b de010000 05ba0956  ..V............V
 0d60 0000000e 0e5f6266 0005bb11 d3020000  ....._bf........
 0d70 100ba800 000005bc 072c0000 00180b19  .........,......
 0d80 01000005 c30a1d01 00001c0b b2010000  ................
 0d90 05c51dc8 05000020 0b710200 0005c71d  ....... .q......
 0da0 f7050000 240bbf03 000005ca 0d1b0600  ....$...........
 0db0 00280b86 04000005 cb093506 00002c0e  .(........5...,.
 0dc0 5f756200 05ce11d3 02000030 0e5f7570  _ub........0._up
 0dd0 0005cf12 fb020000 380e5f75 720005d0  ........8._ur...
 0de0 072c0000 003c0bf0 00000005 d3113b06  .,...<........;.
 0df0 0000400b 5e040000 05d4114b 06000043  ..@.^......K...C
 0e00 0e5f6c62 0005d711 d3020000 440b3f01  ._lb........D.?.
 0e10 000005da 072c0000 004c0b50 01000005  .....,...L.P....
 0e20 db0a7e00 0000500b 6b000000 05de1262  ..~...P.k......b
 0e30 04000054 0b350200 0005e20c 11010000  ...T.5..........
 0e40 580b4403 000005e4 0e050100 005c0b3b  X.D..........\.;
 0e50 02000005 e5092c00 00006400 13960000  ......,...d.....
 0e60 00620400 00146204 0000141d 01000014  .b....b.........
 0e70 b6050000 142c0000 00000f04 6d040000  .....,......m...
 0e80 15620400 0016a203 00002804 05390208  .b........(..9..
 0e90 b6050000 17020300 00053b02 072c0000  ..........;..,..
 0ea0 00001738 01000005 40020ba7 06000004  ...8....@.......
 0eb0 17ce0100 00054002 14a70600 00081793  ......@.........
 0ec0 01000005 40021ea7 0600000c 17650300  ....@........e..
 0ed0 00054202 082c0000 00101760 00000005  ..B..,.....`....
 0ee0 430208a7 08000014 17810300 00054602  C.............F.
 0ef0 072c0000 0030176f 03000005 470216bc  .,...0.o....G...
 0f00 08000034 17b80200 00054902 072c0000  ...4......I..,..
 0f10 00381777 03000005 4b020acd 0800003c  .8.w....K......<
 0f20 17200200 00054e02 13850100 004017b8  . ....N......@..
 0f30 01000005 4f02072c 00000044 17a00400  ....O..,...D....
 0f40 00055002 13850100 004817ca 02000005  ..P......H......
 0f50 510214d3 0800004c 17d60100 00055402  Q......L......T.
 0f60 072c0000 00501748 01000005 550209b6  .,...P.H....U...
 0f70 05000054 17fb0200 00057802 07820800  ...T......x.....
 0f80 005818a6 02000005 7c0213b6 02000048  .X......|......H
 0f90 0118fe01 0000057d 02127302 00004c01  .......}..s...L.
 0fa0 18540400 00058102 0ce40800 00dc0218  .T..............
 0fb0 21010000 05860210 68060000 e0021806  !.......h.......
 0fc0 01000005 88020af0 080000ec 02000f04  ................
 0fd0 bc050000 020108f6 02000015 bc050000  ................
 0fe0 0f044404 00001396 000000ec 05000014  ..D.............
 0ff0 62040000 141d0100 0014ec05 0000142c  b..............,
 1000 00000000 0f04c305 000015ec 0500000f  ................
 1010 04ce0500 00138a00 00001b06 00001462  ...............b
 1020 04000014 1d010000 148a0000 00142c00  ..............,.
 1030 0000000f 04fd0500 00132c00 00003506  ..........,...5.
 1040 00001462 04000014 1d010000 000f0421  ...b...........!
 1050 06000008 4f000000 4b060000 09330000  ....O...K....3..
 1060 00020008 4f000000 5b060000 09330000  ....O...[....3..
 1070 00000005 2a030000 051f011a 01030000  ....*...........
 1080 193b0400 000c0523 0108a106 00001752  .;.....#.......R
 1090 03000005 250111a1 06000000 17e40100  ....%...........
 10a0 00052601 072c0000 00041724 03000005  ..&..,.....$....
 10b0 27010ba7 06000008 000f0468 0600000f  '..........h....
 10c0 045b0600 00195800 00000e05 3f0108e6  .[....X.....?...
 10d0 06000017 a9030000 05400112 e6060000  .........@......
 10e0 0017d603 00000541 0112e606 00000617  .......A........
 10f0 f2030000 05420112 5d000000 0c00085d  .....B..]......]
 1100 000000f6 06000009 33000000 02001ad0  ........3.......
 1110 05590207 0b080000 171f0400 00055b02  .Y............[.
 1120 18330000 000017dc 03000005 5c0212b6  .3..........\...
 1130 05000004 17130200 00055d02 100b0800  ..........].....
 1140 00081777 04000005 5e02179b 01000024  ...w....^......$
 1150 17a30100 00055f02 0f2c0000 0048174d  ......_..,...H.M
 1160 03000005 60022c25 00000050 178d0400  ....`.,%...P....
 1170 00056102 1aad0600 00581758 03000005  ..a......X.X....
 1180 62021605 01000068 17920400 00056302  b......h......c.
 1190 16050100 007017cb 00000005 64021605  .....p......d...
 11a0 01000078 174a0400 00056502 101b0800  ...x.J....e.....
 11b0 00801707 02000005 6602102b 08000088  ........f..+....
 11c0 17ff0300 00056702 0f2c0000 00a01769  ......g..,.....i
 11d0 01000005 68021605 010000a4 17bc0000  ....h...........
 11e0 00056902 16050100 00ac1758 01000005  ..i........X....
 11f0 6a021605 010000b4 17710000 00056b02  j........q....k.
 1200 16050100 00bc1780 00000005 6c021605  ............l...
 1210 010000c4 17000300 00056d02 082c0000  ..........m..,..
 1220 00cc0008 bc050000 1b080000 09330000  .............3..
 1230 00190008 bc050000 2b080000 09330000  ........+....3..
 1240 00070008 bc050000 3b080000 09330000  ........;....3..
 1250 0017001a f0057202 07620800 00179602  ......r..b......
 1260 00000575 021b6208 00000017 82020000  ...u..b.........
 1270 05760218 72080000 780008fb 02000072  .v..r...x......r
 1280 08000009 33000000 1d000833 00000082  ....3......3....
 1290 08000009 33000000 1d001bf0 05570203  ....3........W..
 12a0 a7080000 1ca20300 00056e02 0bf60600  ..........n.....
 12b0 001c6404 00000577 020b3b08 00000008  ..d....w..;.....
 12c0 bc050000 b7080000 09330000 0018001d  .........3......
 12d0 b1000000 0f04b708 00001ecd 08000014  ................
 12e0 62040000 000f04c2 0800000f 04850100  b...............
 12f0 001ee408 0000142c 00000000 0f04ea08  .......,........
 1300 00000f04 d9080000 085b0600 00000900  .........[......
 1310 00093300 00000200 1f130400 00050703  ..3.............
 1320 17620400 001f0c04 00000508 031d6804  .b............h.
 1330 000008f2 05000025 09000020 00151a09  .......%... ....
 1340 000021f8 05000006 14242509 000021ac  ..!......$%...!.
 1350 07000006 15152c00 00000f04 48090000  ......,.....H...
 1360 132c0000 005c0900 00145c09 0000145c  .,...\....\....\
 1370 09000000 0f046209 00002221 ae020000  ......b..."!....
 1380 07630eb6 05000021 57060000 08100f7b  .c.....!W......{
 1390 0900000f 04b60500 0021b102 000008fc  .........!......
 13a0 0eb60500 0021bc06 000008fd 0c2c0000  .....!.......,..
 13b0 0021c607 000008fd 142c0000 0021fd07  .!.......,...!..
 13c0 000008fd 1c2c0000 00219706 000008ff  .....,...!......
 13d0 0c2c0000 00216b07 0000099a 16640000  .,...!k......d..
 13e0 00215105 0000099b 152c0000 0008b605  .!Q......,......
 13f0 0000e509 00000933 00000001 0021c705  .......3.....!..
 1400 0000099e 17d50900 00042806 00000a2a  ..........(....*
 1410 16330000 0004a207 00000a2f 15090a00  .3........./....
 1420 000f040f 0a000013 f1090000 1e0a0000  ................
 1430 145c0900 00000416 0800000a 360f4209  .\..........6.B.
 1440 0000213f 0500000a bb12fd09 000021d4  ..!?..........!.
 1450 0700000a be101e0a 00002319 06000007  ..........#.....
 1460 04330000 000b1806 7f0a0000 24840700  .3..........$...
 1470 0000246a 06000001 24a00600 0002245f  ..$j....$.....$_
 1480 06000003 247b0700 00042404 08000005  ....${....$.....
 1490 24f30700 00060021 bd050000 0b211c42  $......!.....!.B
 14a0 0a000023 ab060000 07043300 00000b23  ...#......3....#
 14b0 06b00a00 00249807 00000024 8e070000  .....$.....$....
 14c0 0124cd07 00000200 21050600 000b281e  .$......!.....(.
 14d0 8b0a0000 217c0600 000c291a 25090000  ....!|....).%...
 14e0 21e00500 000c381a 25090000 040e0800  !.....8.%.......
 14f0 000d7b16 4f000000 15d40a00 0004f105  ..{.O...........
 1500 00000d80 0f2c0000 0004f005 00000d81  .....,..........
 1510 16330000 00047506 00000d84 0f3a0000  .3....u......:..
 1520 00020404 cb060000 020803c3 06000002  ................
 1530 0804b605 00000210 035b0500 00022003  .........[.... .
 1540 a9050000 19d10600 00080ded 010a570b  ..............W.
 1550 0000256c 6f77000d ed011ae5 0a000000  ..%low..........
 1560 17140600 000ded01 1fe50a00 0004001b  ................
 1570 080df401 09790b00 00267300 0df60113  .....y...&s.....
 1580 2c0b0000 266c6c00 0df7010a fd0a0000  ,...&ll.........
 1590 00053206 00000df8 0103570b 00001579  ..2.......W....y
 15a0 0b000008 e00a0000 9b0b0000 09330000  .............3..
 15b0 00ff0015 8b0b0000 1fe40700 000dfc01  ................
 15c0 169b0b00 001f4406 00000d02 02169b0b  ......D.........
 15d0 0000274e 06000001 2901fd0a 0000b006  ..'N....).......
 15e0 00009000 0000019c 28750001 2912fd0a  ........(u..)...
 15f0 00004d00 00002876 0001291c fd0a0000  ..M...(v..).....
 1600 75000000 29757500 012b1186 0b000029  u...)uu..+.....)
 1610 76760001 2c11860b 00002977 00012d0b  vv..,.....)w..-.
 1620 790b0000 2acf0500 00012e0a f10a0000  y...*...........
 1630 9d000000 2ac00700 00012f0a f10a0000  ....*...../.....
 1640 bb000000 2bb60700 0001300a f10a0000  ....+.....0.....
 1650 015e2a3e 06000001 310af10a 0000d900  .^*>....1.......
 1660 00002a3a 06000001 320af10a 00000e01  ..*:....2.......
 1670 00002a12 06000001 330af10a 00003101  ..*.....3.....1.
 1680 00002ad5 05000001 340af10a 00005b01  ..*.....4.....[.
 1690 00002b9c 05000001 350af10a 0000016d  ..+.....5......m
 16a0 2a750700 0001360a f10a0000 a0010000  *u....6.........
 16b0 2c0c0700 00080000 00c20c00 002b8b06  ,............+..
 16c0 00000150 1bf10a00 00015a2b 91060000  ...P......Z+....
 16d0 01501bf1 0a000001 5b002d1c 0700000c  .P......[.-.....
 16e0 0000002b 8b060000 015311f1 0a000001  ...+.....S......
 16f0 5a2b9106 00000153 11f10a00 00015b00  Z+.....S......[.
 1700 00002200 00000200 f4040000 0401a107  ..".............
 1710 00004007 00006407 00001e08 0000de04  ..@...d.........
 1720 00002d00 00000180                    ..-.....        
Contents of section .debug_abbrev:
 0000 01110010 06110112 01030e1b 0e250e13  .............%..
 0010 05000000 01110010 06110112 01030e1b  ................
 0020 0e250e13 05000000 01110125 0e130b03  .%.........%....
 0030 0e1b0e11 01120610 17000002 24000b0b  ............$...
 0040 3e0b030e 00000324 000b0b3e 0b030800  >......$...>....
 0050 00041600 030e3a0b 3b0b390b 49130000  ......:.;.9.I...
 0060 05160003 0e3a0b3b 05390b49 13000006  .....:.;.9.I....
 0070 17010b0b 3a0b3b0b 390b0113 0000070d  ....:.;.9.......
 0080 00030e3a 0b3b0b39 0b491300 00080101  ...:.;.9.I......
 0090 49130113 00000921 0049132f 0b00000a  I......!.I./....
 00a0 13010b0b 3a0b3b0b 390b0113 00000b0d  ....:.;.9.......
 00b0 00030e3a 0b3b0b39 0b491338 0b00000c  ...:.;.9.I.8....
 00c0 0f000b0b 00000d0f 000b0b49 1300000e  ...........I....
 00d0 26004913 00000f13 01030e0b 0b3a0b3b  &.I..........:.;
 00e0 0b390b01 13000010 0d000308 3a0b3b0b  .9..........:.;.
 00f0 390b4913 380b0000 11130103 0e0b053a  9.I.8..........:
 0100 0b3b0b39 0b011300 00120d00 030e3a0b  .;.9..........:.
 0110 3b0b390b 49133805 00001315 00271900  ;.9.I.8......'..
 0120 00141501 27194913 01130000 15050049  ....'.I........I
 0130 13000016 1301030e 0b053a0b 3b05390b  ..........:.;.9.
 0140 01130000 170d0003 0e3a0b3b 05390b49  .........:.;.9.I
 0150 13380b00 00180d00 030e3a0b 3b05390b  .8........:.;.9.
 0160 49133805 00001913 01030e0b 0b3a0b3b  I.8..........:.;
 0170 05390b01 1300001a 13010b0b 3a0b3b05  .9..........:.;.
 0180 390b0113 00001b17 010b0b3a 0b3b0539  9..........:.;.9
 0190 0b011300 001c0d00 030e3a0b 3b05390b  ..........:.;.9.
 01a0 49130000 1d130003 0e3c1900 001e1501  I........<......
 01b0 27190113 00001f34 00030e3a 0b3b0539  '......4...:.;.9
 01c0 0b49133f 193c1900 00203400 030e3a0b  .I.?.<... 4...:.
 01d0 3b0b390b 49133f19 3c190000 212e013f  ;.9.I.?.<...!..?
 01e0 19030e3a 0b3b0b39 0b271949 13110112  ...:.;.9.'.I....
 01f0 06401896 42190113 00002205 0003083a  .@..B....."....:
 0200 0b3b0b39 0b491302 17000023 89820100  .;.9.I.....#....
 0210 11013113 0000242e 013f1903 0e3a0b3b  ..1...$..?...:.;
 0220 0b390b27 19110112 06401897 42190113  .9.'.....@..B...
 0230 00002505 00030e3a 0b3b0b39 0b491302  ..%....:.;.9.I..
 0240 17000026 89820101 11019542 19311300  ...&.......B.1..
 0250 00278a82 01000218 91421800 00282e00  .'.......B...(..
 0260 3f193c19 6e0e030e 3a0b3b0b 390b0000  ?.<.n...:.;.9...
 0270 00011100 10061101 1201030e 1b0e250e  ..............%.
 0280 13050000 00011101 250e130b 030e1b0e  ........%.......
 0290 11011206 10170000 0224000b 0b3e0b03  .........$...>..
 02a0 0e000003 24000b0b 3e0b0308 00000416  ....$...>.......
 02b0 00030e3a 0b3b0b39 0b491300 00051600  ...:.;.9.I......
 02c0 030e3a0b 3b05390b 49130000 0617010b  ..:.;.9.I.......
 02d0 0b3a0b3b 0b390b01 13000007 0d00030e  .:.;.9..........
 02e0 3a0b3b0b 390b4913 00000801 01491301  :.;.9.I......I..
 02f0 13000009 21004913 2f0b0000 0a13010b  ....!.I./.......
 0300 0b3a0b3b 0b390b01 1300000b 0d00030e  .:.;.9..........
 0310 3a0b3b0b 390b4913 380b0000 0c0f000b  :.;.9.I.8.......
 0320 0b00000d 1301030e 0b0b3a0b 3b0b390b  ..........:.;.9.
 0330 01130000 0e0d0003 083a0b3b 0b390b49  .........:.;.9.I
 0340 13380b00 000f0f00 0b0b4913 00001013  .8........I.....
 0350 01030e0b 053a0b3b 0b390b01 13000011  .....:.;.9......
 0360 0d00030e 3a0b3b0b 390b4913 38050000  ....:.;.9.I.8...
 0370 12150027 19000013 15012719 49130113  ...'......'.I...
 0380 00001405 00491300 00152600 49130000  .....I....&.I...
 0390 16130103 0e0b053a 0b3b0539 0b011300  .......:.;.9....
 03a0 00170d00 030e3a0b 3b05390b 4913380b  ......:.;.9.I.8.
 03b0 0000180d 00030e3a 0b3b0539 0b491338  .......:.;.9.I.8
 03c0 05000019 1301030e 0b0b3a0b 3b05390b  ..........:.;.9.
 03d0 01130000 1a13010b 0b3a0b3b 05390b01  .........:.;.9..
 03e0 1300001b 17010b0b 3a0b3b05 390b0113  ........:.;.9...
 03f0 00001c0d 00030e3a 0b3b0539 0b491300  .......:.;.9.I..
 0400 001d1300 030e3c19 00001e15 01271901  ......<......'..
 0410 1300001f 3400030e 3a0b3b05 390b4913  ....4...:.;.9.I.
 0420 3f193c19 00002021 00000021 3400030e  ?.<... !...!4...
 0430 3a0b3b0b 390b4913 3f193c19 00002226  :.;.9.I.?.<..."&
 0440 00000023 0401030e 3e0b0b0b 49133a0b  ...#....>...I.:.
 0450 3b0b390b 01130000 24280003 0e1c0b00  ;.9.....$(......
 0460 00250d00 03083a0b 3b05390b 4913380b  .%....:.;.9.I.8.
 0470 0000260d 0003083a 0b3b0539 0b491300  ..&....:.;.9.I..
 0480 00272e01 3f19030e 3a0b3b0b 390b2719  .'..?...:.;.9.'.
 0490 49131101 12064018 97421900 00280500  I.....@..B...(..
 04a0 03083a0b 3b0b390b 49130217 00002934  ..:.;.9.I.....)4
 04b0 0003083a 0b3b0b39 0b491300 002a3400  ...:.;.9.I...*4.
 04c0 030e3a0b 3b0b390b 49130217 00002b34  ..:.;.9.I.....+4
 04d0 00030e3a 0b3b0b39 0b491302 1800002c  ...:.;.9.I.....,
 04e0 0b011101 12060113 00002d0b 01110112  ..........-.....
 04f0 06000000 01110010 06110112 01030e1b  ................
 0500 0e250e13 05000000                    .%......        
Contents of section .debug_aranges:
 0000 1c000000 02000000 00000400 00000000  ................
 0010 00000000 10000000 00000000 00000000  ................
 0020 1c000000 02002600 00000400 00000000  ......&.........
 0030 30010000 40000000 00000000 00000000  0...@...........
 0040 1c000000 02004c00 00000400 00000000  ......L.........
 0050 70010000 30000000 00000000 00000000  p...0...........
 0060 1c000000 0200f209 00000400 00000000  ................
 0070 a0010000 b4000000 00000000 00000000  ................
 0080 1c000000 0200180a 00000400 00000000  ................
 0090 b0060000 90000000 00000000 00000000  ................
 00a0 1c000000 02000217 00000400 00000000  ................
 00b0 40070000 24000000 00000000 00000000  @...$...........
Contents of section .debug_str:
 0000 7372632f 696e6974 2e73002f 686f6d65  src/init.s./home
 0010 2f737475 64656e74 2f6f7474 65722d70  /student/otter-p
 0020 726f6772 616d732f 72616e64 00474e55  rograms/rand.GNU
 0030 20415320 322e3331 2e310073 72632f6d   AS 2.31.1.src/m
 0040 61696e2e 73005f64 736f5f68 616e646c  ain.s._dso_handl
 0050 65005f73 697a6500 5f72616e 64343800  e._size._rand48.
 0060 5f656d65 7267656e 6379005f 64617461  _emergency._data
 0070 005f7763 72746f6d 625f7374 61746500  ._wcrtomb_state.
 0080 5f776373 72746f6d 62735f73 74617465  _wcsrtombs_state
 0090 006c6f6e 67206c6f 6e672075 6e736967  .long long unsig
 00a0 6e656420 696e7400 5f6c6266 73697a65  ned int._lbfsize
 00b0 005f5f6c 6f63616c 655f7400 5f6d6272  .__locale_t._mbr
 00c0 746f7763 5f737461 7465005f 7763746f  towc_state._wcto
 00d0 6d625f73 74617465 005f5f74 6d5f7365  mb_state.__tm_se
 00e0 63006c6f 6e67206c 6f6e6720 696e7400  c.long long int.
 00f0 5f756275 66005f62 61736500 5f5f746d  _ubuf._base.__tm
 0100 5f686f75 72005f5f 7366005f 6f6e5f65  _hour.__sf._on_e
 0110 7869745f 61726773 005f636f 6f6b6965  xit_args._cookie
 0120 005f5f73 676c7565 005f666c 61677300  .__sglue._flags.
 0130 5f69735f 63786100 5f737464 696e005f  _is_cxa._stdin._
 0140 626c6b73 697a6500 5f637674 62756600  blksize._cvtbuf.
 0150 5f6f6666 73657400 5f6d6273 72746f77  _offset._mbsrtow
 0160 63735f73 74617465 005f6d62 726c656e  cs_state._mbrlen
 0170 5f737461 7465005f 666e6172 6773005f  _state._fnargs._
 0180 666e7300 5f736967 6e005f66 6c6f636b  fns._sign._flock
 0190 5f74005f 73746465 7272005f 42696769  _t._stderr._Bigi
 01a0 6e74005f 67616d6d 615f7369 676e6761  nt._gamma_signga
 01b0 6d005f72 65616400 5f726573 756c745f  m._read._result_
 01c0 6b005f5f 746d005f 5f776368 62005f73  k.__tm.__wchb._s
 01d0 74646f75 74005f63 76746c65 6e005f66  tdout._cvtlen._f
 01e0 696c6500 5f6e696f 62730073 686f7274  ile._niobs.short
 01f0 20756e73 69676e65 6420696e 74005f61   unsigned int._a
 0200 74657869 7430005f 7369676e 616c5f62  texit0._signal_b
 0210 7566005f 61736374 696d655f 62756600  uf._asctime_buf.
 0220 5f726573 756c7400 5f5f7763 68007769  _result.__wch.wi
 0230 6e745f74 005f6c6f 636b005f 666c6167  nt_t._lock._flag
 0240 73320047 4e552043 31372038 2e322e30  s2.GNU C17 8.2.0
 0250 202d6d61 7263683d 72763332 69202d6d   -march=rv32i -m
 0260 6162693d 696c7033 32202d67 202d4f33  abi=ilp32 -g -O3
 0270 005f7772 69746500 5f5f746d 5f796561  ._write.__tm_yea
 0280 72005f6e 6d616c6c 6f630073 72632f72  r._nmalloc.src/r
 0290 616e642e 63005f6e 65787466 005f5f74  and.c._nextf.__t
 02a0 6d5f6d6f 6e005f61 74657869 74007375  m_mon._atexit.su
 02b0 626f7074 61726700 5f5f7364 6964696e  boptarg.__sdidin
 02c0 6974005f 6f66665f 74005f66 7265656c  it._off_t._freel
 02d0 69737400 5f737261 6e64005f 4c4f434b  ist._srand._LOCK
 02e0 5f524543 55525349 56455f54 00756e73  _RECURSIVE_T.uns
 02f0 69676e65 64206368 6172005f 6e657700  igned char._new.
 0300 5f685f65 72726e6f 0073686f 72742069  _h_errno.short i
 0310 6e74005f 5f746d5f 79646179 005f5f73  nt.__tm_yday.__s
 0320 62756600 5f696f62 73005f5f 46494c45  buf._iobs.__FILE
 0330 005f6d62 73746174 655f7400 5f5f7346  ._mbstate_t.__sF
 0340 494c4500 5f6d6273 74617465 005f7261  ILE._mbstate._ra
 0350 6e645f6e 65787400 5f6d626c 656e5f73  nd_next._mblen_s
 0360 74617465 005f696e 63005f69 6e64005f  tate._inc._ind._
 0370 6c6f6361 6c65005f 5f636c65 616e7570  locale.__cleanup
 0380 005f756e 73706563 69666965 645f6c6f  ._unspecified_lo
 0390 63616c65 5f696e66 6f005f6d 61787764  cale_info._maxwd
 03a0 73005f72 65656e74 005f7365 6564005f  s._reent._seed._
 03b0 5f636f75 6e74005f 5f76616c 7565005f  _count.__value._
 03c0 7365656b 005f6670 6f735f74 005f5f74  seek._fpos_t.__t
 03d0 6d5f6d69 6e005f6d 756c7400 5f737472  m_min._mult._str
 03e0 746f6b5f 6c617374 005f666e 74797065  tok_last._fntype
 03f0 73005f61 6464005f 5f554c6f 6e67005f  s._add.__ULong._
 0400 67657464 6174655f 65727200 5f676c6f  getdate_err._glo
 0410 62616c5f 696d7075 72655f70 7472005f  bal_impure_ptr._
 0420 756e7573 65645f72 616e6400 5f776473  unused_rand._wds
 0430 005f5f74 6d5f7764 6179005f 676c7565  .__tm_wday._glue
 0440 005f7373 697a655f 74005f6c 3634615f  ._ssize_t._l64a_
 0450 62756600 5f736967 5f66756e 63005f6e  buf._sig_func._n
 0460 62756600 5f756e75 73656400 5f5f746d  buf._unused.__tm
 0470 5f697364 7374005f 6c6f6361 6c74696d  _isdst._localtim
 0480 655f6275 66005f63 6c6f7365 005f7234  e_buf._close._r4
 0490 38005f6d 62746f77 635f7374 61746500  8._mbtowc_state.
 04a0 5f703573 005f5f74 6d5f6d64 6179002e  _p5s.__tm_mday..
 04b0 2e2f2e2e 2f2e2e2f 2e2f7269 7363762d  ./../.././riscv-
 04c0 6763632f 6c696267 63632f63 6f6e6669  gcc/libgcc/confi
 04d0 672f7269 7363762f 6469762e 53002f68  g/riscv/div.S./h
 04e0 6f6d652f 73747564 656e742f 72697363  ome/student/risc
 04f0 762d746f 6f6c732f 72697363 762d676e  v-tools/riscv-gn
 0500 752d746f 6f6c6368 61696e2f 6275696c  u-toolchain/buil
 0510 642d6763 632d6e65 776c6962 2d737461  d-gcc-newlib-sta
 0520 6765322f 72697363 7633322d 756e6b6e  ge2/riscv32-unkn
 0530 6f776e2d 656c662f 6c696267 63630068  own-elf/libgcc.h
 0540 7461625f 68617368 5f706f69 6e746572  tab_hash_pointer
 0550 005f6461 796c6967 68740063 6f6d706c  ._daylight.compl
 0560 65782064 6f75626c 65002e2e 2f2e2e2f  ex double.../../
 0570 2e2e2f2e 2f726973 63762d67 63632f6c  .././riscv-gcc/l
 0580 69626763 632f636f 6e666967 2f726973  ibgcc/config/ris
 0590 63762f6d 756c7469 332e6300 775f6869  cv/multi3.c.w_hi
 05a0 67685f74 6d703278 00636f6d 706c6578  gh_tmp2x.complex
 05b0 206c6f6e 6720646f 75626c65 00726973   long double.ris
 05c0 63765f61 6269005f 747a6e61 6d650075  cv_abi._tzname.u
 05d0 5f6c6f77 00775f68 6967685f 746d7000  _low.w_high_tmp.
 05e0 756e7370 6563765f 73747269 6e677300  unspecv_strings.
 05f0 55534974 79706500 5f737973 5f657272  USItype._sys_err
 0600 6c697374 00726973 63765f63 6d6f6465  list.riscv_cmode
 0610 6c00775f 68696768 00726973 63765f61  l.w_high.riscv_a
 0620 62695f74 79706500 68617368 76616c5f  bi_type.hashval_
 0630 74004457 756e696f 6e006e65 775f775f  t.DWunion.new_w_
 0640 6c6f7700 5f5f636c 7a5f7461 62005f5f  low.__clz_tab.__
 0650 6d756c64 69330065 6e766972 6f6e0041  muldi3.environ.A
 0660 42495f49 4c503332 44004142 495f494c  BI_ILP32D.ABI_IL
 0670 50333245 00444974 79706500 756e7370  P32E.DItype.unsp
 0680 65635f73 7472696e 6773005f 5f6f7030  ec_strings.__op0
 0690 005f5f6f 7031006f 70747265 73657400  .__op1.optreset.
 06a0 4142495f 494c5033 32460072 69736376  ABI_ILP32F.riscv
 06b0 5f636f64 655f6d6f 64656c00 6f707469  _code_model.opti
 06c0 6e640063 6f6d706c 65782066 6c6f6174  nd.complex float
 06d0 00445773 74727563 7400474e 55204331  .DWstruct.GNU C1
 06e0 3720382e 322e3020 2d6d636d 6f64656c  7 8.2.0 -mcmodel
 06f0 3d6d6564 6c6f7720 2d6d636d 6f64656c  =medlow -mcmodel
 0700 3d6d6564 6c6f7720 2d6d6172 63683d72  =medlow -march=r
 0710 76333269 202d6d61 62693d69 6c703332  v32i -mabi=ilp32
 0720 202d6720 2d4f7320 2d4f3220 2d4f7320   -g -Os -O2 -Os 
 0730 2d666275 696c6469 6e672d6c 69626763  -fbuilding-libgc
 0740 63202d66 6e6f2d73 7461636b 2d70726f  c -fno-stack-pro
 0750 74656374 6f72202d 66766973 6962696c  tector -fvisibil
 0760 6974793d 68696464 656e005f 74696d65  ity=hidden._time
 0770 7a6f6e65 00636172 72790041 42495f4c  zone.carry.ABI_L
 0780 50363400 4142495f 494c5033 3200434d  P64.ABI_ILP32.CM
 0790 5f4d4544 414e5900 434d5f4d 45444c4f  _MEDANY.CM_MEDLO
 07a0 57006874 61625f68 61736800 5f737973  W.htab_hash._sys
 07b0 5f6e6572 7200755f 6c6f775f 6d736200  _nerr.u_low_msb.
 07c0 765f6c6f 77006f70 74657272 00434d5f  v_low.opterr.CM_
 07d0 50494300 68746162 5f65715f 706f696e  PIC.htab_eq_poin
 07e0 74657200 5f5f706f 70636f75 6e745f74  ter.__popcount_t
 07f0 61620041 42495f4c 50363444 006f7074  ab.ABI_LP64D.opt
 0800 6f707400 4142495f 4c503634 46005551  opt.ABI_LP64F.UQ
 0810 49747970 65006874 61625f65 71002e2e  Itype.htab_eq...
 0820 2f2e2e2f 2e2e2f2e 2f726973 63762d67  /../.././riscv-g
 0830 63632f6c 69626763 632f636f 6e666967  cc/libgcc/config
 0840 2f726973 63762f6d 756c6469 332e5300  /riscv/muldi3.S.
Contents of section .debug_loc:
 0000 04000000 17000000 01005a17 00000028  ..........Z....(
 0010 00000001 00582800 00003000 00000400  .....X(...0.....
 0020 f3015a9f 00000000 00000000 00000000  ..Z.............
 0030 03000000 01005a03 00000004 00000004  ......Z.........
 0040 00f3015a 9f000000 00000000 00000000  ...Z............
 0050 00240000 0006005a 93045b93 04240000  .$.....Z..[..$..
 0060 00900000 000600f3 03f50a25 9f000000  ...........%....
 0070 00000000 00000000 00640000 0006005c  .........d.....\
 0080 93045d93 04640000 00900000 000600f3  ..]..d..........
 0090 03f50c25 9f000000 00000000 00140000  ...%............
 00a0 00240000 0001005a 24000000 54000000  .$.....Z$...T...
 00b0 01006100 00000000 00000014 00000024  ..a............$
 00c0 00000001 005c2400 00006400 00000100  .....\$...d.....
 00d0 5d000000 00000000 00140000 00240000  ]............$..
 00e0 00020030 9f240000 00340000 00010060  ...0.$...4.....`
 00f0 34000000 44000000 01005a44 00000090  4...D.....ZD....
 0100 00000001 00600000 00000000 00002400  .....`........$.
 0110 00003400 00000600 81008000 229f3400  ..4.........".4.
 0120 00004400 00000100 5a000000 00000000  ..D.....Z.......
 0130 00140000 00240000 00020030 9f240000  .....$.....0.$..
 0140 003c0000 0001005f 40000000 68000000  .<....._@...h...
 0150 01005f00 00000000 00000014 00000024  .._............$
 0160 00000002 00309f24 0000002c 00000001  .....0.$...,....
 0170 005e2c00 00003c00 00000600 7f007e00  .^,...<.......~.
 0180 229f3c00 00004000 00000100 5f540000  ".<...@....._T..
 0190 00900000 0001005e 00000000 00000000  .......^........
 01a0 34000000 38000000 11008000 404b2422  4...8.......@K$"
 01b0 7a00404b 24222b08 ff1a9f00 00000000  z.@K$"+.........
 01c0 000000                               ...             
Contents of section .debug_frame:
 0000 0c000000 ffffffff 0100017c 010d0200  ...........|....
 0010 0c000000 00000000 70010000 04000000  ........p.......
 0020 1c000000 00000000 74010000 2c000000  ........t...,...
 0030 440e1048 81018802 54c144c8 440e0000  D..H....T.D.D...
 0040 0c000000 ffffffff 0100017c 010d0200  ...........|....
 0050 18000000 40000000 b0060000 90000000  ....@...........
 0060 440e1048 81010274 c14c0e00           D..H...t.L..    

Disassembly of section .text.init:

00000000 <entry>:
# This code is executed first.

.section .text.init
entry:

    la    sp, __sp-32   # set up the stack pointer, using a constant defined in the linker script.
   0:	auipc	sp,0x10
   4:	addi	sp,sp,-32 # ffe0 <__global_pointer$+0xf07c>
  
    call _start		# use this if using C runtime, std c library
   8:	jal	ra,10 <_start>

0000000c <end>:
  
 #   call  main          # call the main function if barebones assembly/C

end:
    j end               # loop when finished if there is no environment to return to.
   c:	j	c <end>

Disassembly of section .text:

00000010 <_start>:
  10:	auipc	gp,0x1
  14:	addi	gp,gp,-172 # f64 <__global_pointer$>
  18:	addi	a0,gp,-924 # bc8 <_edata>
  1c:	addi	a2,gp,-924 # bc8 <_edata>
  20:	sub	a2,a2,a0
  24:	li	a1,0
  28:	jal	ra,39c <memset>
  2c:	auipc	a0,0x0
  30:	addi	a0,a0,620 # 298 <__libc_fini_array>
  34:	jal	ra,254 <atexit>
  38:	jal	ra,2f4 <__libc_init_array>
  3c:	lw	a0,0(sp)
  40:	addi	a1,sp,4
  44:	li	a2,0
  48:	jal	ra,130 <main>
  4c:	j	268 <exit>

00000050 <_fini>:
  50:	ret

00000054 <deregister_tm_clones>:
  54:	addi	a4,gp,-920 # bcc <__TMC_END__>
  58:	addi	a5,gp,-920 # bcc <__TMC_END__>
  5c:	beq	a5,a4,74 <deregister_tm_clones+0x20>
  60:	lui	t1,0x0
  64:	mv	t1,t1
  68:	beqz	t1,74 <deregister_tm_clones+0x20>
  6c:	addi	a0,gp,-920 # bcc <__TMC_END__>
  70:	jr	t1 # 0 <entry>
  74:	ret

00000078 <register_tm_clones>:
  78:	addi	a1,gp,-920 # bcc <__TMC_END__>
  7c:	addi	a5,gp,-920 # bcc <__TMC_END__>
  80:	sub	a1,a1,a5
  84:	srai	a1,a1,0x2
  88:	srli	a5,a1,0x1f
  8c:	add	a1,a5,a1
  90:	srai	a1,a1,0x1
  94:	beqz	a1,ac <register_tm_clones+0x34>
  98:	lui	t1,0x0
  9c:	mv	t1,t1
  a0:	beqz	t1,ac <register_tm_clones+0x34>
  a4:	addi	a0,gp,-920 # bcc <__TMC_END__>
  a8:	jr	t1 # 0 <entry>
  ac:	ret

000000b0 <__do_global_dtors_aux>:
  b0:	lbu	a4,1896(zero) # 768 <completed.5430>
  b4:	bnez	a4,fc <__do_global_dtors_aux+0x4c>
  b8:	addi	sp,sp,-16
  bc:	sw	s0,8(sp)
  c0:	sw	ra,12(sp)
  c4:	mv	s0,a5
  c8:	jal	ra,54 <deregister_tm_clones>
  cc:	lui	a5,0x0
  d0:	mv	a5,a5
  d4:	beqz	a5,e4 <__do_global_dtors_aux+0x34>
  d8:	addi	a0,gp,-924 # bc8 <_edata>
  dc:	auipc	ra,0x0
  e0:	jalr	zero # 0 <entry>
  e4:	li	a5,1
  e8:	sb	a5,1896(zero) # 768 <completed.5430>
  ec:	lw	ra,12(sp)
  f0:	lw	s0,8(sp)
  f4:	addi	sp,sp,16
  f8:	ret
  fc:	ret

00000100 <frame_dummy>:
 100:	lui	a5,0x0
 104:	mv	a5,a5
 108:	beqz	a5,12c <frame_dummy+0x2c>
 10c:	addi	sp,sp,-16
 110:	li	a1,1900
 114:	addi	a0,gp,-924 # bc8 <_edata>
 118:	sw	ra,12(sp)
 11c:	auipc	ra,0x0
 120:	jalr	zero # 0 <entry>
 124:	lw	ra,12(sp)
 128:	addi	sp,sp,16
 12c:	j	78 <register_tm_clones>

00000130 <main>:
.global _rand

.global main 
.type main, @function
main:
	li s0, SSEG
 130:	lui	s0,0x110c0
	li s1, SWITCHES
 134:	lui	s1,0x11000
	li s2, LEDS 
 138:	lui	s2,0x11080

	lw a0, 0(s1)	#switches are used as seed to rand function
 13c:	lw	a0,0(s1) # 11000000 <SWITCHES>
	call _srand
 140:	jal	ra,170 <_srand>

	li s3,1
 144:	li	s3,1

	
1:	sw s3, 0(s2)
 148:	sw	s3,0(s2) # 11080000 <LEDS>
	addi s3,s3,1
 14c:	addi	s3,s3,1
	li a0,59 	#max of random number as argument to rand()
 150:	li	a0,59
	call _rand
 154:	jal	ra,174 <_rand>

	sw a0, 0(s0) 	#display random number on SSEG
 158:	sw	a0,0(s0) # 110c0000 <SSEG>
		
	#li a0, 100000000#wait 0.8 seconds
	#call wait
	j 1b
 15c:	j	148 <main+0x18>
	ret
 160:	ret

00000164 <wait>:

wait:
1:	addi a0,a0,-1		#wait a0*4/50*10^6 seconds 
 164:	addi	a0,a0,-1
	bnez a0, 1b		#assuming OTTER_freq is 50MHz
 168:	bnez	a0,164 <wait>
	ret
 16c:	ret

00000170 <_srand>:
#include<stdlib.h>
void _srand(int seed)
{
	srand(seed);
 170:	j	478 <srand>

00000174 <_rand>:
}
int _rand(int max)
{
 174:	addi	sp,sp,-16
 178:	sw	ra,12(sp)
 17c:	sw	s0,8(sp)
 180:	mv	s0,a0
	return rand()%max;
 184:	jal	ra,488 <rand>
 188:	mv	a1,s0
 18c:	jal	ra,224 <__modsi3>
}
 190:	lw	ra,12(sp)
 194:	lw	s0,8(sp)
 198:	addi	sp,sp,16
 19c:	ret

000001a0 <__divsi3>:
  li    t0, -1
  beq   a1, t0, .L20
#endif

FUNC_BEGIN (__divdi3)
  bltz  a0, .L10
 1a0:	bltz	a0,200 <__umodsi3+0x10>
  bltz  a1, .L11
 1a4:	bltz	a1,210 <__umodsi3+0x20>

000001a8 <__udivsi3>:
  /* Since the quotient is positive, fall into __udivdi3.  */

FUNC_BEGIN (__udivdi3)
  mv    a2, a1
 1a8:	mv	a2,a1
  mv    a1, a0
 1ac:	mv	a1,a0
  li    a0, -1
 1b0:	li	a0,-1
  beqz  a2, .L5
 1b4:	beqz	a2,1ec <__udivsi3+0x44>
  li    a3, 1
 1b8:	li	a3,1
  bgeu  a2, a1, .L2
 1bc:	bgeu	a2,a1,1d0 <__udivsi3+0x28>
.L1:
  blez  a2, .L2
 1c0:	blez	a2,1d0 <__udivsi3+0x28>
  slli  a2, a2, 1
 1c4:	slli	a2,a2,0x1
  slli  a3, a3, 1
 1c8:	slli	a3,a3,0x1
  bgtu  a1, a2, .L1
 1cc:	bltu	a2,a1,1c0 <__udivsi3+0x18>
.L2:
  li    a0, 0
 1d0:	li	a0,0
.L3:
  bltu  a1, a2, .L4
 1d4:	bltu	a1,a2,1e0 <__udivsi3+0x38>
  sub   a1, a1, a2
 1d8:	sub	a1,a1,a2
  or    a0, a0, a3
 1dc:	or	a0,a0,a3
.L4:
  srli  a3, a3, 1
 1e0:	srli	a3,a3,0x1
  srli  a2, a2, 1
 1e4:	srli	a2,a2,0x1
  bnez  a3, .L3
 1e8:	bnez	a3,1d4 <__udivsi3+0x2c>
.L5:
  ret
 1ec:	ret

000001f0 <__umodsi3>:
FUNC_END (__udivdi3)

FUNC_BEGIN (__umoddi3)
  /* Call __udivdi3(a0, a1), then return the remainder, which is in a1.  */
  move  t0, ra
 1f0:	mv	t0,ra
  jal   __udivdi3
 1f4:	jal	ra,1a8 <__udivsi3>
  move  a0, a1
 1f8:	mv	a0,a1
  jr    t0
 1fc:	jr	t0
FUNC_END (__umoddi3)

  /* Handle negative arguments to __divdi3.  */
.L10:
  neg   a0, a0
 200:	neg	a0,a0
  bgez  a1, .L12      /* Compute __udivdi3(-a0, a1), then negate the result.  */
 204:	bgez	a1,214 <__umodsi3+0x24>
  neg   a1, a1
 208:	neg	a1,a1
  j     __udivdi3     /* Compute __udivdi3(-a0, -a1).  */
 20c:	j	1a8 <__udivsi3>
.L11:                 /* Compute __udivdi3(a0, -a1), then negate the result.  */
  neg   a1, a1
 210:	neg	a1,a1
.L12:
  move  t0, ra
 214:	mv	t0,ra
  jal   __udivdi3
 218:	jal	ra,1a8 <__udivsi3>
  neg   a0, a0
 21c:	neg	a0,a0
  jr    t0
 220:	jr	t0

00000224 <__modsi3>:
FUNC_END (__divdi3)

FUNC_BEGIN (__moddi3)
  move   t0, ra
 224:	mv	t0,ra
  bltz   a1, .L31
 228:	bltz	a1,23c <__modsi3+0x18>
  bltz   a0, .L32
 22c:	bltz	a0,244 <__modsi3+0x20>
.L30:
  jal    __udivdi3    /* The dividend is not negative.  */
 230:	jal	ra,1a8 <__udivsi3>
  move   a0, a1
 234:	mv	a0,a1
  jr     t0
 238:	jr	t0
.L31:
  neg    a1, a1
 23c:	neg	a1,a1
  bgez   a0, .L30
 240:	bgez	a0,230 <__modsi3+0xc>
.L32:
  neg    a0, a0
 244:	neg	a0,a0
  jal    __udivdi3    /* The dividend is hella negative.  */
 248:	jal	ra,1a8 <__udivsi3>
  neg    a0, a1
 24c:	neg	a0,a1
  jr     t0
 250:	jr	t0

00000254 <atexit>:
 254:	mv	a1,a0
 258:	li	a3,0
 25c:	li	a2,0
 260:	li	a0,0
 264:	j	4dc <__register_exitproc>

00000268 <exit>:
 268:	addi	sp,sp,-16
 26c:	li	a1,0
 270:	sw	s0,8(sp)
 274:	sw	ra,12(sp)
 278:	mv	s0,a0
 27c:	jal	ra,558 <__call_exitprocs>
 280:	lw	a0,-940(gp) # bb8 <_global_impure_ptr>
 284:	lw	a5,60(a0)
 288:	beqz	a5,290 <exit+0x28>
 28c:	jalr	a5 # 0 <entry>
 290:	mv	a0,s0
 294:	jal	ra,664 <_exit>

00000298 <__libc_fini_array>:
 298:	addi	sp,sp,-16
 29c:	lui	a5,0x0
 2a0:	sw	s0,8(sp)
 2a4:	lui	s0,0x0
 2a8:	mv	a4,a5
 2ac:	mv	s0,s0
 2b0:	sub	s0,s0,a4
 2b4:	sw	s1,4(sp)
 2b8:	sw	ra,12(sp)
 2bc:	srai	s0,s0,0x2
 2c0:	mv	s1,a5
 2c4:	bnez	s0,2dc <__libc_fini_array+0x44>
 2c8:	lw	s0,8(sp)
 2cc:	lw	ra,12(sp)
 2d0:	lw	s1,4(sp)
 2d4:	addi	sp,sp,16
 2d8:	j	50 <_fini>
 2dc:	addi	s0,s0,-1
 2e0:	slli	a5,s0,0x2
 2e4:	add	a5,s1,a5
 2e8:	lw	a5,0(a5) # 0 <entry>
 2ec:	jalr	a5
 2f0:	j	2c4 <__libc_fini_array+0x2c>

000002f4 <__libc_init_array>:
 2f4:	addi	sp,sp,-16
 2f8:	lui	a5,0x0
 2fc:	sw	s0,8(sp)
 300:	lui	s0,0x0
 304:	mv	a4,a5
 308:	mv	s0,s0
 30c:	sub	s0,s0,a4
 310:	sw	s1,4(sp)
 314:	sw	s2,0(sp)
 318:	sw	ra,12(sp)
 31c:	srai	s0,s0,0x2
 320:	li	s1,0
 324:	mv	s2,a5
 328:	bne	s1,s0,36c <__libc_init_array+0x78>
 32c:	jal	ra,50 <_fini>
 330:	lui	a5,0x0
 334:	lui	s0,0x0
 338:	mv	a4,a5
 33c:	mv	s0,s0
 340:	sub	s0,s0,a4
 344:	srai	s0,s0,0x2
 348:	li	s1,0
 34c:	mv	s2,a5
 350:	bne	s1,s0,384 <__libc_init_array+0x90>
 354:	lw	ra,12(sp)
 358:	lw	s0,8(sp)
 35c:	lw	s1,4(sp)
 360:	lw	s2,0(sp)
 364:	addi	sp,sp,16
 368:	ret
 36c:	slli	a5,s1,0x2
 370:	add	a5,s2,a5
 374:	lw	a5,0(a5) # 0 <entry>
 378:	addi	s1,s1,1
 37c:	jalr	a5
 380:	j	328 <__libc_init_array+0x34>
 384:	slli	a5,s1,0x2
 388:	add	a5,s2,a5
 38c:	lw	a5,0(a5)
 390:	addi	s1,s1,1
 394:	jalr	a5
 398:	j	350 <__libc_init_array+0x5c>

0000039c <memset>:
 39c:	li	t1,15
 3a0:	mv	a4,a0
 3a4:	bgeu	t1,a2,3e0 <memset+0x44>
 3a8:	andi	a5,a4,15
 3ac:	bnez	a5,44c <memset+0xb0>
 3b0:	bnez	a1,434 <memset+0x98>
 3b4:	andi	a3,a2,-16
 3b8:	andi	a2,a2,15
 3bc:	add	a3,a3,a4
 3c0:	sw	a1,0(a4)
 3c4:	sw	a1,4(a4)
 3c8:	sw	a1,8(a4)
 3cc:	sw	a1,12(a4)
 3d0:	addi	a4,a4,16
 3d4:	bltu	a4,a3,3c0 <memset+0x24>
 3d8:	bnez	a2,3e0 <memset+0x44>
 3dc:	ret
 3e0:	sub	a3,t1,a2
 3e4:	slli	a3,a3,0x2
 3e8:	auipc	t0,0x0
 3ec:	add	a3,a3,t0
 3f0:	jr	12(a3)
 3f4:	sb	a1,14(a4)
 3f8:	sb	a1,13(a4)
 3fc:	sb	a1,12(a4)
 400:	sb	a1,11(a4)
 404:	sb	a1,10(a4)
 408:	sb	a1,9(a4)
 40c:	sb	a1,8(a4)
 410:	sb	a1,7(a4)
 414:	sb	a1,6(a4)
 418:	sb	a1,5(a4)
 41c:	sb	a1,4(a4)
 420:	sb	a1,3(a4)
 424:	sb	a1,2(a4)
 428:	sb	a1,1(a4)
 42c:	sb	a1,0(a4)
 430:	ret
 434:	andi	a1,a1,255
 438:	slli	a3,a1,0x8
 43c:	or	a1,a1,a3
 440:	slli	a3,a1,0x10
 444:	or	a1,a1,a3
 448:	j	3b4 <memset+0x18>
 44c:	slli	a3,a5,0x2
 450:	auipc	t0,0x0
 454:	add	a3,a3,t0
 458:	mv	t0,ra
 45c:	jalr	-96(a3)
 460:	mv	ra,t0
 464:	addi	a5,a5,-16
 468:	sub	a4,a4,a5
 46c:	add	a2,a2,a5
 470:	bgeu	t1,a2,3e0 <memset+0x44>
 474:	j	3b0 <memset+0x14>

00000478 <srand>:
 478:	lw	a5,-944(gp) # bb4 <_impure_ptr>
 47c:	sw	a0,168(a5)
 480:	sw	zero,172(a5)
 484:	ret

00000488 <rand>:
 488:	addi	sp,sp,-16
 48c:	sw	s0,8(sp)
 490:	lw	s0,-944(gp) # bb4 <_impure_ptr>
 494:	lui	a5,0x1
 498:	lw	a2,-1088(a5) # bc0 <_global_impure_ptr+0x8>
 49c:	lw	a0,168(s0) # a8 <register_tm_clones+0x30>
 4a0:	lw	a1,172(s0)
 4a4:	lw	a3,-1084(a5)
 4a8:	sw	ra,12(sp)
 4ac:	jal	ra,6b0 <__muldi3>
 4b0:	addi	a5,a0,1
 4b4:	sltu	a0,a5,a0
 4b8:	add	a0,a0,a1
 4bc:	sw	a0,172(s0)
 4c0:	sw	a5,168(s0)
 4c4:	lw	ra,12(sp)
 4c8:	lw	s0,8(sp)
 4cc:	slli	a0,a0,0x1
 4d0:	srli	a0,a0,0x1
 4d4:	addi	sp,sp,16
 4d8:	ret

000004dc <__register_exitproc>:
 4dc:	lw	a4,-940(gp) # bb8 <_global_impure_ptr>
 4e0:	mv	t1,a0
 4e4:	lw	a5,328(a4)
 4e8:	bnez	a5,4f4 <__register_exitproc+0x18>
 4ec:	addi	a5,a4,332
 4f0:	sw	a5,328(a4)
 4f4:	lw	a4,4(a5)
 4f8:	li	a6,31
 4fc:	li	a0,-1
 500:	blt	a6,a4,554 <__register_exitproc+0x78>
 504:	slli	a7,a4,0x2
 508:	beqz	t1,540 <__register_exitproc+0x64>
 50c:	add	a0,a5,a7
 510:	sw	a2,136(a0)
 514:	lw	a6,392(a5)
 518:	li	a2,1
 51c:	sll	a2,a2,a4
 520:	or	a6,a6,a2
 524:	sw	a6,392(a5)
 528:	sw	a3,264(a0)
 52c:	li	a3,2
 530:	bne	t1,a3,540 <__register_exitproc+0x64>
 534:	lw	a3,396(a5)
 538:	or	a2,a3,a2
 53c:	sw	a2,396(a5)
 540:	addi	a4,a4,1
 544:	sw	a4,4(a5)
 548:	add	a5,a5,a7
 54c:	sw	a1,8(a5)
 550:	li	a0,0
 554:	ret

00000558 <__call_exitprocs>:
 558:	addi	sp,sp,-48
 55c:	sw	s3,28(sp)
 560:	lw	s3,-940(gp) # bb8 <_global_impure_ptr>
 564:	sw	s4,24(sp)
 568:	sw	s5,20(sp)
 56c:	sw	s6,16(sp)
 570:	sw	ra,44(sp)
 574:	sw	s0,40(sp)
 578:	sw	s1,36(sp)
 57c:	sw	s2,32(sp)
 580:	sw	s7,12(sp)
 584:	mv	s5,a0
 588:	mv	s4,a1
 58c:	li	s6,1
 590:	lw	s1,328(s3)
 594:	beqz	s1,5ac <__call_exitprocs+0x54>
 598:	lw	s0,4(s1)
 59c:	addi	s2,s0,-1
 5a0:	slli	s0,s0,0x2
 5a4:	add	s0,s1,s0
 5a8:	bgez	s2,5d8 <__call_exitprocs+0x80>
 5ac:	lw	ra,44(sp)
 5b0:	lw	s0,40(sp)
 5b4:	lw	s1,36(sp)
 5b8:	lw	s2,32(sp)
 5bc:	lw	s3,28(sp)
 5c0:	lw	s4,24(sp)
 5c4:	lw	s5,20(sp)
 5c8:	lw	s6,16(sp)
 5cc:	lw	s7,12(sp)
 5d0:	addi	sp,sp,48
 5d4:	ret
 5d8:	beqz	s4,5f0 <__call_exitprocs+0x98>
 5dc:	lw	a5,260(s0)
 5e0:	beq	a5,s4,5f0 <__call_exitprocs+0x98>
 5e4:	addi	s2,s2,-1
 5e8:	addi	s0,s0,-4
 5ec:	j	5a8 <__call_exitprocs+0x50>
 5f0:	lw	a4,4(s1)
 5f4:	lw	a5,4(s0)
 5f8:	addi	a4,a4,-1
 5fc:	bne	a4,s2,634 <__call_exitprocs+0xdc>
 600:	sw	s2,4(s1)
 604:	beqz	a5,5e4 <__call_exitprocs+0x8c>
 608:	lw	a3,392(s1)
 60c:	sll	a4,s6,s2
 610:	lw	s7,4(s1)
 614:	and	a3,a4,a3
 618:	bnez	a3,63c <__call_exitprocs+0xe4>
 61c:	jalr	a5
 620:	lw	a5,4(s1)
 624:	bne	a5,s7,590 <__call_exitprocs+0x38>
 628:	lw	a5,328(s3)
 62c:	beq	a5,s1,5e4 <__call_exitprocs+0x8c>
 630:	j	590 <__call_exitprocs+0x38>
 634:	sw	zero,4(s0)
 638:	j	604 <__call_exitprocs+0xac>
 63c:	lw	a3,396(s1)
 640:	lw	a1,132(s0)
 644:	and	a4,a4,a3
 648:	bnez	a4,658 <__call_exitprocs+0x100>
 64c:	mv	a0,s5
 650:	jalr	a5
 654:	j	620 <__call_exitprocs+0xc8>
 658:	mv	a0,a1
 65c:	jalr	a5
 660:	j	620 <__call_exitprocs+0xc8>

00000664 <_exit>:
 664:	li	a1,0
 668:	li	a2,0
 66c:	li	a3,0
 670:	li	a4,0
 674:	li	a5,0
 678:	li	a7,93
 67c:	ecall
 680:	bgez	a0,6a4 <_exit+0x40>
 684:	addi	sp,sp,-16
 688:	sw	s0,8(sp)
 68c:	mv	s0,a0
 690:	sw	ra,12(sp)
 694:	neg	s0,s0
 698:	jal	ra,6a8 <__errno>
 69c:	sw	s0,0(a0)
 6a0:	j	6a0 <_exit+0x3c>
 6a4:	j	6a4 <_exit+0x40>

000006a8 <__errno>:
 6a8:	lw	a0,-944(gp) # bb4 <_impure_ptr>
 6ac:	ret

000006b0 <__muldi3>:
# define __multi3 __muldi3
#endif

DWtype
__multi3 (DWtype u, DWtype v)
{
 6b0:	addi	sp,sp,-16
 6b4:	mv	t1,a3
 6b8:	sw	ra,12(sp)
 6bc:	mv	t3,a0
  const DWunion uu = {.ll = u};
  const DWunion vv = {.ll = v};
  DWunion w;
  UWtype u_low = uu.s.low;
 6c0:	mv	a7,a0
  UWtype v_low = vv.s.low;
 6c4:	mv	a3,a2
  UWtype u_low_msb;
  UWtype w_low = 0;
  UWtype new_w_low;
  UWtype w_high = 0;
  UWtype w_high_tmp = 0;
 6c8:	li	a4,0
  UWtype w_high = 0;
 6cc:	li	a5,0
  UWtype w_low = 0;
 6d0:	li	a6,0
  do
    {
      new_w_low = w_low + u_low;
      w_high_tmp2x = w_high_tmp << 1;
      w_high_tmp += w_high;
      if (v_low & 1)
 6d4:	andi	a0,a3,1
      w_high_tmp2x = w_high_tmp << 1;
 6d8:	slli	t4,a4,0x1
      if (v_low & 1)
 6dc:	beqz	a0,6f4 <__muldi3+0x44>
      new_w_low = w_low + u_low;
 6e0:	add	a0,a7,a6
	{
	  carry = new_w_low < w_low;
 6e4:	sltu	a6,a0,a6
      w_high_tmp += w_high;
 6e8:	add	a5,a5,a4
	  w_low = new_w_low;
	  w_high = carry + w_high_tmp;
 6ec:	add	a5,a6,a5
	  w_low = new_w_low;
 6f0:	mv	a6,a0
	}
      u_low_msb = (u_low >> ((sizeof (UWtype) * 8) - 1));
 6f4:	srli	a4,a7,0x1f
      v_low >>= 1;
 6f8:	srli	a3,a3,0x1
      u_low <<= 1;
      w_high_tmp = u_low_msb | w_high_tmp2x;
 6fc:	or	a4,t4,a4
 700:	slli	a7,a7,0x1
    }
  while (v_low);
 704:	bnez	a3,6d4 <__muldi3+0x24>

  w.s.low = w_low;
  w.s.high = w_high;

  if (uu.s.high)
 708:	beqz	a1,718 <__muldi3+0x68>
    w.s.high = w.s.high + __muluw3(vv.s.low, uu.s.high);
 70c:	mv	a0,a2
 710:	jal	ra,740 <__mulsi3>
 714:	add	a5,a5,a0

  if (vv.s.high)
 718:	beqz	t1,72c <__muldi3+0x7c>
    w.s.high += __muluw3(uu.s.low, vv.s.high);
 71c:	mv	a0,t3
 720:	mv	a1,t1
 724:	jal	ra,740 <__mulsi3>
 728:	add	a5,a0,a5

  return w.ll;
}
 72c:	lw	ra,12(sp)
 730:	mv	a0,a6
 734:	mv	a1,a5
 738:	addi	sp,sp,16
 73c:	ret

00000740 <__mulsi3>:
/* Our RV64 64-bit routine is equivalent to our RV32 32-bit routine.  */
# define __muldi3 __mulsi3
#endif

FUNC_BEGIN (__muldi3)
  mv     a2, a0
 740:	mv	a2,a0
  li     a0, 0
 744:	li	a0,0
.L1:
  andi   a3, a1, 1
 748:	andi	a3,a1,1
  beqz   a3, .L2
 74c:	beqz	a3,754 <__mulsi3+0x14>
  add    a0, a0, a2
 750:	add	a0,a0,a2
.L2:
  srli   a1, a1, 1
 754:	srli	a1,a1,0x1
  slli   a2, a2, 1
 758:	slli	a2,a2,0x1
  bnez   a1, .L1
 75c:	bnez	a1,748 <__mulsi3+0x8>
  ret
 760:	ret
