
build/program.elf:     file format elf32-littleriscv

Contents of section .text.init:
 0000 17010100 130101fe ef008000 6f000000  ............o...
Contents of section .text:
 0010 97210000 93810159 1385412d 1386412d  .!.....Y..A-..A-
 0020 3306a640 93050000 ef10902c 17250000  3..@.......,.%..
 0030 1305059c ef105017 ef101021 03250100  ......P....!.%..
 0040 93054100 13060000 ef109055 6f101017  ..A........Uo...
 0050 67800000 1387812d 9387812d 638ce700  g......-...-c...
 0060 37030000 13030300 63060300 1385812d  7.......c......-
 0070 67000300 67800000 9385812d 9387812d  g...g......-...-
 0080 b385f540 93d52540 93d7f501 b385b700  ...@..%@........
 0090 93d51540 638c0500 37030000 13030300  ...@c...7.......
 00a0 63060300 1385812d 67000300 67800000  c......-g...g...
 00b0 03c701c2 63140704 130101ff 23248100  ....c.......#$..
 00c0 23261100 13840700 eff0dff8 b7070000  #&..............
 00d0 93870700 63880700 1385412d 97000000  ....c.....A-....
 00e0 e7000000 93071000 2380f1c2 8320c100  ........#.... ..
 00f0 03248100 13010101 67800000 67800000  .$......g...g...
 0100 b7070000 93870700 63820702 130101ff  ........c.......
 0110 938541c2 1385412d 23261100 97000000  ..A...A-#&......
 0120 e7000000 8320c100 13010101 6ff0dff4  ..... ......o...
 0130 67800000 37081000 1308f8ff b378b800  g...7........x..
 0140 93983800 9357d501 130101fe 13d74501  ..8..W........E.
 0150 3378d800 b3e71701 93d84601 13183800  3x........F...8.
 0160 232a9100 23282101 9374f77f 93f8f87f  #*..#(!..t......
 0170 1357d601 232e1100 232c8100 23263101  .W..#...#,..#&1.
 0180 13d9f501 93d6f601 33670701 13153500  ........3g....5.
 0190 13163600 33881441 6314d92c 635e0011  ..6.3..Ac..,c^..
 01a0 63900804 b366c700 63800670 9305f8ff  c....f..c..p....
 01b0 63900502 3306c500 3335a600 b387e700  c...3...35......
 01c0 b387a700 13050600 93041000 6f000007  ............o...
 01d0 9306f07f 6310d802 9304f07f 6f00c020  ....c.......o.. 
 01e0 9306f07f 6382d420 b7068000 3367d700  ....c.. ....3g..
 01f0 93050800 93068003 63cab60a 9306f001  ........c.......
 0200 63ccb606 13080002 3308b840 b3160701  c.......3..@....
 0210 b358b600 33160601 b3e61601 3336c000  .X..3.......36..
 0220 33e6c600 3357b700 3306a600 3307f700  3...3W..3...3...
 0230 b337a600 b307f700 13050600 13978700  .7..............
 0240 6354071a 93841400 1307f07f 6384e45c  cT..........c..\
 0250 b70680ff 9386f6ff b3f6d700 93551500  .............U..
 0260 13751500 9397f601 33e5a500 33e5a700  .u......3...3...
 0270 93d71600 6f004017 938605fe 93080002  ....o.@.........
 0280 b356d700 13080000 63881501 13080004  .V......c.......
 0290 b305b840 3318b700 3366c800 3336c000  ...@3...3f..36..
 02a0 33e6c600 13070000 6ff01ff8 3366c700  3.......o...3f..
 02b0 3336c000 6ff01fff 6302080e b3859840  36..o...c......@
 02c0 639e0402 b3e6a700 63860652 9386f5ff  c.......c..R....
 02d0 639c0600 3305c500 b387e700 3336c500  c...3.......36..
 02e0 b387c700 6ff05fee 1308f07f 63920503  ....o._.....c...
 02f0 93070700 13050600 6ff01fee 9306f07f  ........o.......
 0300 e388d8fe b7068000 b3e7d700 93860500  ................
 0310 93058003 63ced506 9305f001 63c0d504  ....c.......c...
 0320 13080002 3308d840 3353d500 b3950701  ....3..@3S......
 0330 33150501 b3e56500 3335a000 33e5a500  3.....e.35..3...
 0340 b3d6d700 3305c500 b387e600 3336c500  ....3.......36..
 0350 b387c700 93840800 6ff05fee 938506fe  ........o._.....
 0360 13030002 b3d5b700 13080000 63886600  ............c.f.
 0370 13080004 b306d840 3398d700 3365a800  .......@3...3e..
 0380 3335a000 33e5a500 93060000 6ff09ffb  35..3.......o...
 0390 33e5a700 3335a000 6ff01fff 93861400  3...35..o.......
 03a0 93f5e67f 63960508 b3e6a700 63920406  ....c.......c...
 03b0 638a0644 b366c700 63880602 3306c500  c..D.f..c...3...
 03c0 b387e700 3335a600 b387a700 13978700  ....35..........
 03d0 13050600 635a0700 370780ff 1307f7ff  ....cZ..7.......
 03e0 b3f7e700 93041000 13777500 63080742  .........wu.c..B
 03f0 1377f500 93064000 6302d742 93064500  .w....@.c..B..E.
 0400 33b5a600 b387a700 13850600 6f000041  3...........o..A
 0410 e38006ee 3366c700 e30006dc 13090000  ....3f..........
 0420 b7074000 13050000 9304f07f 6f00003f  ..@.........o..?
 0430 9305f07f 638eb63c 3306c500 3387e700  ....c..<3...3...
 0440 b337a600 3307f700 1315f701 13561600  .7..3........V..
 0450 3365c500 93571700 93840600 6ff0dff8  3e...W......o...
 0460 635c000f 639e0808 b366c700 638e0642  c\..c....f..c..B
 0470 9305f8ff 63900502 3306c540 3335c500  ....c...3..@35..
 0480 b387e740 b387a740 13050600 93041000  ...@...@........
 0490 6f004005 9306f07f e300d8d4 93068003  o.@.............
 04a0 63c6b60a 9306f001 63c8b606 13080002  c.......c.......
 04b0 3308b840 b3160701 b358b600 33160601  3..@.....X..3...
 04c0 b3e61601 3336c000 33e6c600 3357b700  ....36..3...3W..
 04d0 3306c540 3387e740 b337c500 b307f740  3..@3..@.7.....@
 04e0 13050600 13978700 e35007f0 37048000  .........P..7...
 04f0 1304f4ff 33f48700 93090500 6f00c020  ....3.......o.. 
 0500 9306f07f e382d4ee b7068000 3367d700  ............3g..
 0510 93050800 6ff09ff8 938605fe 93080002  ....o...........
 0520 b356d700 13080000 63881501 13080004  .V......c.......
 0530 b305b840 3318b700 3366c800 3336c000  ...@3...3f..36..
 0540 33e6c600 13070000 6ff09ff8 3366c700  3.......o...3f..
 0550 3336c000 6ff01fff 6308080e 33889840  36..o...c...3..@
 0560 63920404 b3e5a700 63840534 9305f8ff  c.......c..4....
 0570 639e0500 3305a640 b307f740 3336a600  c...3..@...@36..
 0580 b387c740 13890600 6ff05ff0 1303f07f  ...@....o._.....
 0590 63146802 93070700 13050600 9304f07f  c.h.............
 05a0 6f00000d 9305f07f e386b8fe b7058000  o...............
 05b0 b3e7b700 93050800 13088003 6340b808  ............c@..
 05c0 1308f001 6342b804 13030002 3303b340  ....cB......3..@
 05d0 335eb500 33986700 33156500 3368c801  3^..3.g.3.e.3h..
 05e0 3335a000 3365a800 b3d5b700 3305a640  35..3e......3..@
 05f0 b307b740 3336a600 b387c740 93840800  ...@36.....@....
 0600 13890600 6ff01fee 138805fe 130e0002  ....o...........
 0610 33d80701 13030000 6388c501 13030004  3.......c.......
 0620 b305b340 3393b700 3365a300 3335a000  ...@3...3e..35..
 0630 3365a800 93050000 6ff05ffb 33e5a700  3e......o._.3...
 0640 3335a000 6ff01fff 93851400 93f5e57f  35..o...........
 0650 63960508 33e8a700 b365c700 63900406  c...3....e..c...
 0660 631c0800 638e0524 93070700 13050600  c...c..$........
 0670 13890600 6ff05fd7 e38805d6 3308c540  ....o._.....3..@
 0680 b3380501 b385e740 b3851541 93988500  .8.....@...A....
 0690 63dc0800 3305a640 b307f740 3336a600  c...3..@...@36..
 06a0 b387c740 6ff0dffc 3365b800 63020522  ...@o...3e..c.."
 06b0 93870500 13050800 6ff01fd3 631c0800  ........o...c...
 06c0 638c0520 93070700 13050600 13890600  c.. ............
 06d0 6ff09fb0 e38205b0 6ff05fd4 b309c540  o.......o._....@
 06e0 b3353501 3384e740 3304b440 93158400  .55.3..@3..@....
 06f0 63d40508 b309a640 b307f740 33363601  c......@...@366.
 0700 3384c740 13890600 63020408 13050400  3..@....c.......
 0710 ef100025 130785ff 9307f001 63c0e708  ...%........c...
 0720 93070002 b387e740 3314e400 b3d7f900  .......@3.......
 0730 33e48700 3395e900 6344970a 33079740  3...3...cD..3..@
 0740 93071700 9306f001 63c2f606 13070002  ........c.......
 0750 3307f740 3356f500 b316e400 3315e500  3..@3V......3...
 0760 b3e6c600 3335a000 33e5a600 b357f400  ....35..3....W..
 0770 93040000 6ff05fc7 33e58900 e31605f8  ....o._.3.......
 0780 93070000 93040000 6f000014 13850900  ........o.......
 0790 ef10001d 13050502 6ff0dff7 130485fd  ........o.......
 07a0 33948900 13050000 6ff01ff9 130717fe  3.......o.......
 07b0 13060002 3357e400 93060000 6388c700  ....3W......c...
 07c0 93060004 b386f640 b316d400 3365d500  .......@....3e..
 07d0 3335a000 3365a700 93070000 6ff05ff9  35..3e......o._.
 07e0 b70780ff 9387f7ff b384e440 b377f400  ...........@.w..
 07f0 6ff09fbf 93070700 13050600 93840500  o...............
 0800 6ff09fbe 93070700 13050600 6ff0dfbd  o...........o...
 0810 9304f07f 93070000 13050000 13978700  ................
 0820 635e0700 93841400 1307f07f 638ee40a  c^..........c...
 0830 370780ff 1307f7ff b3f7e700 1397d701  7...............
 0840 13553500 3365a700 1307f07f 93d73700  .U5.3e........7.
 0850 639ee400 3365f500 93070000 63080500  c...3e......c...
 0860 b7070800 13050000 13090000 13f7f47f  ................
 0870 9397c700 13174701 8320c101 03248101  ......G.. ...$..
 0880 93d7c700 9315f901 b3e7e700 33e7b700  ............3...
 0890 83244101 03290101 8329c100 93050700  .$A..)...)......
 08a0 13010102 67800000 93040800 6ff0dfb3  ....g.......o...
 08b0 93070700 13050600 93040800 6ff05fdb  ............o._.
 08c0 93070000 13050000 13090000 6ff01ff5  ............o...
 08d0 93070000 6ff05fff 13050000 13090000  ....o._.........
 08e0 b7074000 6ff05fb4 93070000 13050000  ..@.o._.........
 08f0 6ff0dff4 13d84501 b7071000 9387f7ff  o.....E.........
 0900 13d74601 13030500 930e0500 1378f87f  ..F..........x..
 0910 1305f07f b3f8b700 130f0600 b3f7d700  ................
 0920 93d5f501 1377f77f 93d6f601 631aa800  .....w......c...
 0930 33ee6800 1305e0ff 630a0e08 67800000  3.h.....c...g...
 0940 6318a700 33eec700 1305e0ff 63160e02  c...3.......c...
 0950 63100808 33e56800 13351500 63160700  c...3.h..5..c...
 0960 33e6c700 630a0604 631a0500 638ed500  3...c...c...c...
 0970 13051000 63960500 67800000 e39e06fe  ....c...g.......
 0980 1305f0ff 67800000 e34407ff 635ae800  ....g....D..cZ..
 0990 1305f0ff e38205fe 13051000 67800000  ............g...
 09a0 e3e817fd 6390f802 e364dffd 13050000  ....c....d......
 09b0 e3f4eefd 6ff0dffd e30c05fa 13050000  ....o...........
 09c0 67800000 e3e6f8fc 6ff05fff e30c07f7  g.......o._.....
 09d0 e31e07f8 13050000 6ff09ff8 130101fd  ........o.......
 09e0 23202103 13d94501 232e3101 232c4101  # !...E.#.1.#,A.
 09f0 232a5101 23286101 23267101 939ac500  #*Q.#(a.#&q.....
 0a00 23261102 23248102 23229102 1379f97f  #&..#$..#"...y..
 0a10 130b0500 930b0600 138a0600 93daca00  ................
 0a20 93d9f501 6302090a 9307f07f 6300f910  ....c.......c...
 0a30 1354d501 939a3a00 b36a5401 37048000  .T....:..jT.7...
 0a40 33e48a00 93143500 130919c0 130b0000  3.....5.........
 0a50 13554a01 931aca00 1375f57f 13870b00  .UJ......u......
 0a60 93daca00 135afa01 63000510 9307f07f  .....Z..c.......
 0a70 6300f516 93d7db01 939a3a00 b3ea5701  c.........:...W.
 0a80 b7078000 b3e7fa00 13973b00 130515c0  ..........;.....
 0a90 93060000 13162b00 3366d600 3309a900  ......+.3f..3...
 0aa0 1306f6ff 9305e000 33c84901 93081900  ........3.I.....
 0ab0 63ecc514 13162600 93858119 3306b600  c.....&.....3...
 0ac0 03260600 67000600 33e4aa00 630e0406  .&..g...3...c...
 0ad0 63800a04 13850a00 ef009068 930755ff  c..........h..U.
 0ae0 1307c001 634cf702 1304d001 930485ff  ....cL..........
 0af0 3304f440 b39a9a00 33548b00 33645401  3..@....3T..3dT.
 0b00 b3149b00 1309d0c0 3309a940 6ff01ff4  ........3..@o...
 0b10 ef001065 13050502 6ff05ffc 130485fd  ...e....o._.....
 0b20 33148b00 93040000 6ff0dffd 33e4aa00  3.......o...3...
 0b30 63040402 93040500 13840a00 1309f07f  c...............
 0b40 130b3000 6ff0dff0 93040000 13090000  ..0.o...........
 0b50 130b1000 6ff0dfef 93040000 1309f07f  ....o...........
 0b60 130b2000 6ff0dfee b3e77a01 638e0706  .. .o.....z.c...
 0b70 63800a04 13850a00 ef00905e 930655ff  c..........^..U.
 0b80 9307c001 63ced702 9307d001 130785ff  ....c...........
 0b90 b387d740 b39aea00 b3d7fb00 b3e75701  ...@..........W.
 0ba0 3397eb00 1306d0c0 3305a640 6ff05fee  3.......3..@o._.
 0bb0 13850b00 ef00d05a 13050502 6ff01ffc  .......Z....o...
 0bc0 930785fd b397fb00 13070000 6ff09ffd  ............o...
 0bd0 b3e77a01 63820702 93870a00 1305f07f  ..z.c...........
 0be0 93063000 6ff01feb 13070000 13050000  ..0.o...........
 0bf0 93061000 6ff01fea 13070000 1305f07f  ....o...........
 0c00 93062000 6ff01fe9 b7030100 1383f3ff  .. .o...........
 0c10 93df0401 93520701 b3f46400 33776700  .....R....d.3wg.
 0c20 13850400 93050700 ef005051 930e0500  ..........PQ....
 0c30 93850200 13850400 ef005050 130e0500  ..........PP....
 0c40 93050700 13850f00 ef00504f 93090500  ..........PO....
 0c50 93850200 13850f00 ef00504e 93d60e01  ..........PN....
 0c60 330e3e01 b386c601 130f0500 63f43601  3.>.........c.6.
 0c70 330f7500 33fe6600 b3fe6e00 93d90701  3.u.3.f...n.....
 0c80 131e0e01 b3f76700 93d30601 330ede01  ......g.....3...
 0c90 13850400 93850700 ef00504a 930e0500  ..........PJ....
 0ca0 93850900 13850400 ef005049 13030500  ..........PI....
 0cb0 93850700 13850f00 ef005048 93040500  ..........PH....
 0cc0 93850900 13850f00 ef005047 13d60e01  ..........PG....
 0cd0 33039300 33066600 63769600 b7060100  3...3.f.cv......
 0ce0 3305d500 93560601 b70a0100 b38fa600  3....V..........
 0cf0 9386faff 3376d600 13160601 b3fede00  ....3v..........
 0d00 b30ed601 93540401 3374d400 b383d301  .....T..3t......
 0d10 13050400 93050700 ef005042 130a0500  ..........PB....
 0d20 93850200 13050400 ef005041 13030500  ..........PA....
 0d30 93050700 13850400 ef005040 130b0500  ..........P@....
 0d40 93850200 13850400 ef00503f 13570a01  ..........P?.W..
 0d50 33036301 33076700 63746701 33055501  3.c.3.g.ctg.3.U.
 0d60 b70a0100 9386faff 3373d700 93550701  ........3s...U..
 0d70 337ada00 13130301 b382a500 33034301  3z..........3.C.
 0d80 13050400 93850700 ef00503b 13070500  ..........P;....
 0d90 93850900 13050400 ef00503a 13040500  ..........P:....
 0da0 93850700 13850400 ef005039 130a0500  ..........P9....
 0db0 93850900 13850400 ef005038 13560701  ..........P8.V..
 0dc0 33044401 33068600 63744601 33055501  3.D.3...ctF.3.U.
 0dd0 b7070100 9387f7ff b376f600 3377f700  .........v..3w..
 0de0 93960601 b383e301 b386e600 b3bed301  ................
 0df0 b386f601 b387d601 b3836300 b3855700  ..........c...W.
 0e00 33b36300 338f6500 b3b6f601 b3b7d701  3.c.3.e.........
 0e10 b3e7f600 13560601 b3b55500 33336f00  .....V....U.33o.
 0e20 b387c700 33e36500 b3876700 13979300  ....3.e...g.....
 0e30 b387a700 3367c701 93979700 13557f01  ....3g.......U..
 0e40 3337e000 13de7301 93169f00 b3e7a700  37....s.........
 0e50 3367c701 3367d700 93967700 63d20610  3g..3g....w.c...
 0e60 93561700 13771700 33e7e600 9396f701  .V...w..3.......
 0e70 3367d700 93d71700 1386f83f 6356c00e  3g.........?cV..
 0e80 93767700 63800602 9376f700 93054000  .vw.c....v....@.
 0e90 638ab600 93064700 33b7e600 b387e700  c.....G.3.......
 0ea0 13870600 93967700 63da0600 b70600ff  ......w.c.......
 0eb0 9386f6ff b3f7d700 13860840 9306e07f  ...........@....
 0ec0 63c6c616 93563700 1397d701 3367d700  c....V7.....3g..
 0ed0 93d73700 9397c700 9376f67f 93964601  ..7......v....F.
 0ee0 8320c102 03248102 93d7c700 1318f801  . ...$..........
 0ef0 b3e7d700 b3e60701 83244102 03290102  .........$A..)..
 0f00 8329c101 032a8101 832a4101 032b0101  .)...*...*A..+..
 0f10 832bc100 13050700 93850600 13010103  .+..............
 0f20 67800000 13880900 93070400 13870400  g...............
 0f30 93060b00 13062000 638ac60e 13063000  ...... .c.....0.
 0f40 638cc60c 13061000 e398c6f2 93070000  c...............
 0f50 13070000 6f008008 13080a00 6ff09ffd  ....o.......o...
 0f60 93080900 6ff05ff1 93051000 b385c540  ....o._........@
 0f70 93068003 e3ccb6fc 9306f001 63c4b606  ............c...
 0f80 9388e841 b3961701 3356b700 33171701  ...A....3V..3...
 0f90 b3e6c600 3337e000 33e7e600 b3d7b700  ....37..3.......
 0fa0 93767700 63800602 9376f700 13064000  .vw.c....v....@.
 0fb0 638ac600 93064700 33b7e600 b387e700  c.....G.3.......
 0fc0 13870600 93968700 63ca0606 9396d701  ........c.......
 0fd0 13573700 33e7e600 93d73700 13060000  .W7.3.....7.....
 0fe0 6ff05fef 930610fe b386c640 13050002  o._........@....
 0ff0 b3d6d700 13060000 6386a500 9388e843  ........c......C
 1000 33961701 3367e600 3337e000 33e7e600  3...3g..37..3...
 1010 93070000 6ff0dff8 b7070800 13070000  ....o...........
 1020 1306f07f 13080000 6ff0dfea 93070000  ........o.......
 1030 13070000 1306f07f 6ff0dfe9 93070000  ........o.......
 1040 13070000 13061000 6ff0dfe8 37081000  ........o...7...
 1050 1308f8ff b378b800 93983800 9357d501  .....x....8..W..
 1060 130101fe 13d74501 3378d800 b3e71701  ......E.3x......
 1070 93d84601 232a9100 23282101 9374f77f  ..F.#*..#(!..t..
 1080 13d9f501 1357d601 13183800 232e1100  .....W....8.#...
 1090 232c8100 23263101 93f8f87f 9305f07f  #,..#&1.........
 10a0 13153500 93d6f601 33670701 13163600  ..5.....3g....6.
 10b0 6396b800 b365c700 63940500 93c61600  c....e..c.......
 10c0 33881441 6390262d 635c0013 63900806  3..Ac.&-c\..c...
 10d0 b366c700 63880602 1388f4ff 63100802  .f..c.......c...
 10e0 3306c500 3335a600 b387e700 b387a700  3...35..........
 10f0 13050600 93041000 6f00c008 9306f07f  ........o.......
 1100 639ed402 13777500 630c0762 1377f500  c....wu.c..b.w..
 1110 93064000 6306d762 93064500 33b5a600  ..@.c..b..E.3...
 1120 b387a700 13850600 6f008061 9306f07f  ........o..a....
 1130 e38ad4fc b7068000 3367d700 93068003  ........3g......
 1140 63ca060b 9306f001 63cc0607 93050002  c.......c.......
 1150 b3850541 b316b700 b3580601 3316b600  ...A.....X..3...
 1160 b3e61601 3336c000 33e6c600 33570701  ....36..3...3W..
 1170 3306a600 3307f700 b337a600 b307f700  3...3....7......
 1180 13050600 13978700 e35e07f6 93841400  .........^......
 1190 1307f07f 6382e45a b70680ff 9386f6ff  ....c..Z........
 11a0 b3f6d700 93551500 13751500 9397f601  .....U...u......
 11b0 33e5a500 33e5a700 93d71600 6ff09ff4  3...3.......o...
 11c0 930608fe 93080002 b356d700 93050000  .........V......
 11d0 63081801 93050004 33880541 b3150701  c.......3..A....
 11e0 33e6c500 3336c000 33e6c600 13070000  3...36..3.......
 11f0 6ff01ff8 3366c700 3336c000 6ff01fff  o...3f..36..o...
 1200 6302080e b3859840 639e0402 b3e6a700  c......@c.......
 1210 63840650 9386f5ff 639c0600 3305c500  c..P....c...3...
 1220 b387e700 3336c500 b387c700 6ff09fec  ....36......o...
 1230 1308f07f 63920503 93070700 13050600  ....c...........
 1240 6f00003b 9306f07f e388d8fe b7068000  o..;............
 1250 b3e7d700 93860500 93058003 63ced506  ............c...
 1260 9305f001 63c0d504 13080002 3308d840  ....c.......3..@
 1270 3353d500 b3950701 33150501 b3e56500  3S......3.....e.
 1280 3335a000 33e5a500 b3d6d700 3305c500  35..3.......3...
 1290 b387e600 3336c500 b387c700 93840800  ....36..........
 12a0 6ff05fee 938506fe 13030002 b3d5b700  o._.............
 12b0 13080000 63886600 13080004 b306d840  ....c.f........@
 12c0 3398d700 3365a800 3335a000 33e5a500  3...3e..35..3...
 12d0 93060000 6ff09ffb 33e5a700 3335a000  ....o...3...35..
 12e0 6ff01fff 93861400 93f5e67f 63940506  o...........c...
 12f0 b3e6a700 63900404 63880642 b366c700  ....c...c..B.f..
 1300 e38206e0 3306c500 b387e700 3335a600  ....3.......35..
 1310 b387a700 13978700 13050600 e35407de  .............T..
 1320 370780ff 1307f7ff b3f7e700 93041000  7...............
 1330 6ff05fdd e38206f0 3366c700 630a062a  o._.....3f..c..*
 1340 13090000 b7074000 13050000 9304f07f  ......@.........
 1350 6f00003f 9305f07f 638eb63c 3306c500  o..?....c..<3...
 1360 3387e700 b337a600 3307f700 1315f701  3....7..3.......
 1370 13561600 3365c500 93571700 93840600  .V..3e...W......
 1380 6ff05fd8 635a000f 639e0808 b366c700  o._.cZ..c....f..
 1390 e38a06d6 1388f4ff 63100802 3306c540  ........c...3..@
 13a0 3335c500 b387e740 b387a740 13050600  35.....@...@....
 13b0 93041000 6f004005 9306f07f e384d4d4  ....o.@.........
 13c0 93068003 63c4060b 9306f001 63c60607  ....c.......c...
 13d0 93050002 b3850541 b316b700 b3580601  .......A.....X..
 13e0 3316b600 b3e61601 3336c000 33e6c600  3.......36..3...
 13f0 33570701 3306c540 3387e740 b337c500  3W..3..@3..@.7..
 1400 b307f740 13050600 13978700 e35c07ce  ...@.........\..
 1410 37048000 1304f4ff 33f48700 93090500  7.......3.......
 1420 6f00c020 9306f07f e38ed4cc b7068000  o.. ............
 1430 3367d700 6ff0dff8 930608fe 93080002  3g..o...........
 1440 b356d700 93050000 63081801 93050004  .V......c.......
 1450 33880541 b3150701 33e6c500 3336c000  3..A....3...36..
 1460 33e6c600 13070000 6ff0dff8 3366c700  3.......o...3f..
 1470 3336c000 6ff01fff 6308080e 33889840  36..o...c...3..@
 1480 63920404 b3e5a700 63820534 9305f8ff  c.......c..4....
 1490 639e0500 3305a640 b307f740 3336a600  c...3..@...@36..
 14a0 b387c740 13890600 6ff09ff0 1303f07f  ...@....o.......
 14b0 63146802 93070700 13050600 9304f07f  c.h.............
 14c0 6f00000d 9305f07f e386b8fe b7058000  o...............
 14d0 b3e7b700 93050800 13088003 6340b808  ............c@..
 14e0 1308f001 6342b804 13030002 3303b340  ....cB......3..@
 14f0 335eb500 33986700 33156500 3368c801  3^..3.g.3.e.3h..
 1500 3335a000 3365a800 b3d5b700 3305a640  35..3e......3..@
 1510 b307b740 3336a600 b387c740 93840800  ...@36.....@....
 1520 13890600 6ff05fee 138805fe 130e0002  ....o._.........
 1530 33d80701 13030000 6388c501 13030004  3.......c.......
 1540 b305b340 3393b700 3365a300 3335a000  ...@3...3e..35..
 1550 3365a800 93050000 6ff05ffb 33e5a700  3e......o._.3...
 1560 3335a000 6ff01fff 93851400 93f5e57f  35..o...........
 1570 63980508 33e8a700 b365c700 63900406  c...3....e..c...
 1580 631c0800 638c0524 93070700 13050600  c...c..$........
 1590 13890600 6ff01fb7 e38605b6 3308c540  ....o.......3..@
 15a0 b3380501 b385e740 b3851541 93988500  .8.....@...A....
 15b0 63dc0800 3305a640 b307f740 3336a600  c...3..@...@36..
 15c0 b387c740 6ff0dffc 3365b800 63000522  ...@o...3e..c.."
 15d0 93870500 13050800 6ff0dfb2 631e0800  ........o...c...
 15e0 638a0520 93070700 13050600 13890600  c.. ............
 15f0 9304f07f 6ff01fb1 e38c05fe 6ff05fd4  ....o.......o._.
 1600 b309c540 b3353501 3384e740 3304b440  ...@.55.3..@3..@
 1610 93158400 63d40508 b309a640 b307f740  ....c......@...@
 1620 33363601 3384c740 13890600 63020408  366.3..@....c...
 1630 13050400 ef00c032 130785ff 9307f001  .......2........
 1640 63c0e708 93070002 b387e740 3314e400  c..........@3...
 1650 b3d7f900 33e48700 3395e900 6344970a  ....3...3...cD..
 1660 33079740 93071700 9306f001 63c2f606  3..@........c...
 1670 13070002 3307f740 3356f500 b316e400  ....3..@3V......
 1680 3315e500 b3e6c600 3335a000 33e5a600  3.......35..3...
 1690 b357f400 93040000 6ff0dfa6 33e58900  .W......o...3...
 16a0 e31605f8 93070000 93040000 6f008013  ............o...
 16b0 13850900 ef00c02a 13050502 6ff0dff7  .......*....o...
 16c0 130485fd 33948900 13050000 6ff01ff9  ....3.......o...
 16d0 130717fe 13060002 3357e400 93060000  ........3W......
 16e0 6388c700 93060004 b386f640 b316d400  c..........@....
 16f0 3365d500 3335a000 3365a700 93070000  3e..35..3e......
 1700 6ff05ff9 b70780ff 9387f7ff b384e440  o._............@
 1710 b377f400 6ff01f9f 93070700 13050600  .w..o...........
 1720 93840500 6ff01f9e 93070700 13050600  ....o...........
 1730 6ff05f9d 9304f07f 93070000 13050000  o._.............
 1740 13978700 635e0700 93841400 1307f07f  ....c^..........
 1750 638ae40a 370780ff 1307f7ff b3f7e700  c...7...........
 1760 1397d701 13553500 3365a700 1307f07f  .....U5.3e......
 1770 93d73700 639ee400 3365f500 93070000  ..7.c...3e......
 1780 63080500 b7070800 13050000 13090000  c...............
 1790 13f7f47f 9397c700 13174701 8320c101  ..........G.. ..
 17a0 03248101 93d7c700 9315f901 b3e7e700  .$..............
 17b0 33e7b700 83244101 03290101 8329c100  3....$A..)...)..
 17c0 93050700 13010102 67800000 93070700  ........g.......
 17d0 13050600 93040800 6ff09fdb 93070000  ........o.......
 17e0 13050000 13090000 6ff09ff5 93070000  ........o.......
 17f0 6ff05fff 13050000 13090000 b7074000  o._...........@.
 1800 6ff0dfb4 93070000 13050000 6ff05ff5  o...........o._.
 1810 13d74501 b7061000 9387f6ff 1377f77f  ..E..........w..
 1820 1306e03f b3f7b700 93d5f501 635ee604  ...?........c^..
 1830 1306d041 635ae600 37050080 1345f5ff  ...AcZ..7....E..
 1840 3385a500 67800000 b3e7d700 93063043  3...g.........0C
 1850 b386e640 1306f001 6340d602 1307d7be  ...@....c@......
 1860 b397e700 3355d500 33e5a700 63800502  ....3U..3...c...
 1870 3305a040 67800000 13053041 3305e540  3..@g.....0A3..@
 1880 33d5a700 6ff09ffe 13050000 67800000  3...o.......g...
 1890 130101ff 23261100 23248100 23229100  ....#&..#$..#"..
 18a0 63040508 9357f541 33c4a700 3304f440  c....W.A3...3..@
 18b0 9354f501 13050400 ef00800a 1307e041  .T.............A
 18c0 9307a000 3307a740 63c8a704 9307b000  ....3..@c.......
 18d0 b387a740 13055501 b357f400 3314a400  ...@..U..W..3...
 18e0 9397c700 1377f77f 13174701 13050400  .....w....G.....
 18f0 8320c100 03248100 93d7c700 9394f401  . ...$..........
 1900 b3e7e700 33e79700 93050700 83244100  ....3........$A.
 1910 13010101 67800000 130555ff b317a400  ....g.....U.....
 1920 13040000 6ff0dffb 93070000 13040000  ....o...........
 1930 13070000 93040000 6ff09ffa 13060500  ........o.......
 1940 13050000 93f61500 63840600 3305c500  ........c...3...
 1950 93d51500 13161600 e39605fe 67800000  ............g...
 1960 b7070100 6378f502 9307f00f b3b7a700  ....cx..........
 1970 93973700 13070002 3307f740 b357f500  ..7.....3..@.W..
 1980 1385411d b387a700 03c50700 3305a740  ..A.........3..@
 1990 67800000 37070001 93070001 e36ce5fc  g...7........l..
 19a0 93078001 6ff01ffd 93050500 93060000  ....o...........
 19b0 13060000 13050000 6f004021 130101ff  ........o.@!....
 19c0 93050000 23248100 23261100 13040500  ....#$..#&......
 19d0 ef008027 03a50109 8327c503 63840700  ...'.....'..c...
 19e0 e7800700 13050400 ef00c036 130101ff  ...........6....
 19f0 b7070000 23248100 37040000 13870700  ....#$..7.......
 1a00 13040400 3304e440 23229100 23261100  ....3..@#"..#&..
 1a10 13542440 93840700 631c0400 03248100  .T$@....c....$..
 1a20 8320c100 83244100 13010101 6fe04fe2  . ...$A.....o.O.
 1a30 1304f4ff 93172400 b387f400 83a70700  ......$.........
 1a40 e7800700 6ff05ffd 130101ff b7070000  ....o._.........
 1a50 23248100 37040000 13870700 13040400  #$..7...........
 1a60 3304e440 23229100 23202101 23261100  3..@#"..# !.#&..
 1a70 13542440 93040000 13890700 63928404  .T$@........c...
 1a80 efe00fdd b7070000 37040000 13870700  ........7.......
 1a90 13040400 3304e440 13542440 93040000  ....3..@.T$@....
 1aa0 13890700 639a8402 8320c100 03248100  ....c.... ...$..
 1ab0 83244100 03290100 13010101 67800000  .$A..)......g...
 1ac0 93972400 b307f900 83a70700 93841400  ..$.............
 1ad0 e7800700 6ff09ffa 93972400 b307f900  ....o.....$.....
 1ae0 83a70700 93841400 e7800700 6ff09ffb  ............o...
 1af0 1303f000 13070500 637ec302 9377f700  ........c~...w..
 1b00 6390070a 63920508 937606ff 1376f600  c...c....v...v..
 1b10 b386e600 2320b700 2322b700 2324b700  ....# ..#"..#$..
 1b20 2326b700 13070701 e366d7fe 63140600  #&.......f..c...
 1b30 67800000 b306c340 93962600 97020000  g......@..&.....
 1b40 b3865600 6780c600 2307b700 a306b700  ..V.g...#.......
 1b50 2306b700 a305b700 2305b700 a304b700  #.......#.......
 1b60 2304b700 a303b700 2303b700 a302b700  #.......#.......
 1b70 2302b700 a301b700 2301b700 a300b700  #.......#.......
 1b80 2300b700 67800000 93f5f50f 93968500  #...g...........
 1b90 b3e5d500 93960501 b3e5d500 6ff0dff6  ............o...
 1ba0 93962700 97020000 b3865600 93820000  ..'.......V.....
 1bb0 e78006fa 93800200 938707ff 3307f740  ............3..@
 1bc0 3306f600 e378c3f6 6ff0dff3 03a70109  3....x..o.......
 1bd0 13030500 83278714 63960700 9307c714  .....'..c.......
 1be0 2324f714 03a74700 1308f001 1305f0ff  #$....G.........
 1bf0 634ae804 93182700 630c0302 33851701  cJ....'.c...3...
 1c00 2324c508 03a88718 13061000 3316e600  #$..........3...
 1c10 3368c800 23a40719 2324d510 93062000  3h..#...#$.... .
 1c20 6318d300 83a6c718 33e6c600 23a6c718  c.......3...#...
 1c30 13071700 23a2e700 b3871701 23a4b700  ....#.......#...
 1c40 13050000 67800000 130101fd 232e3101  ....g.......#.1.
 1c50 83a90109 232c4101 232a5101 23286101  ....#,A.#*Q.#(a.
 1c60 23261102 23248102 23229102 23202103  #&..#$..#"..# !.
 1c70 23267101 930a0500 138a0500 130b1000  #&q.............
 1c80 83a48914 638c0400 03a44400 1309f4ff  ....c.....D.....
 1c90 13142400 33848400 63580902 8320c102  ..$.3...cX... ..
 1ca0 03248102 83244102 03290102 8329c101  .$...$A..)...)..
 1cb0 032a8101 832a4101 032b0101 832bc100  .*...*A..+...+..
 1cc0 13010103 67800000 630c0a00 83274410  ....g...c....'D.
 1cd0 63884701 1309f9ff 1304c4ff 6ff0dffb  c.G.........o...
 1ce0 03a74400 83274400 1307f7ff 631c2703  ..D..'D.....c.'.
 1cf0 23a22401 e38007fe 83a68418 33172b01  #.$.........3.+.
 1d00 83ab4400 b376d700 63920602 e7800700  ..D..v..c.......
 1d10 83a74400 e39677f7 83a78914 e38c97fa  ..D...w.........
 1d20 6ff01ff6 23220400 6ff0dffc 83a6c418  o...#"..o.......
 1d30 83254408 3377d700 63180700 13850a00  .%D.3w..c.......
 1d40 e7800700 6ff0dffc 13850500 e7800700  ....o...........
 1d50 6ff01ffc 93050000 13060000 93060000  o...............
 1d60 13070000 93070000 9308d005 73000000  ............s...
 1d70 63520502 130101ff 23248100 13040500  cR......#$......
 1d80 23261100 33048040 ef000001 23208500  #&..3..@....# ..
 1d90 6f000000 6f000000 03a5c106 67800000  o...o.......g...
Contents of section .text.startup:
 1da0 b7270000 03a8c761 83a78761 130101c6  .'.....a...a....
 1db0 232e0103 232cf102 b7270000 03a84762  #...#,...'....Gb
 1dc0 83a70762 232e1138 232a0105 2328f104  ...b#..8#*..#(..
 1dd0 b7270000 03a8c762 83a78762 232c8138  .'.....b...b#,.8
 1de0 232a9138 232cf104 93878109 2326f104  #*.8#,......#&..
 1df0 23282139 b7070811 23263139 23244139  #(!9....#&19#$A9
 1e00 23225139 23206139 232e7137 232c8137  #"Q9# a9#.q7#,.7
 1e10 232a9137 2328a137 2326b137 232e0105  #*.7#(.7#&.7#...
 1e20 13071000 23a0e700 93878111 2324f104  ....#.......#$..
 1e30 b7070811 13072000 23a0e700 8327c104  ...... .#....'..
 1e40 13070106 83a6c700 03a50700 83a54700  ..............G.
 1e50 03a68700 2326d700 83268104 2320a700  ....#&...&..# ..
 1e60 2322b700 2324c700 93870701 13070701  #"..#$..........
 1e70 e39ad7fc 93870600 1307010e 83a6c700  ................
 1e80 03a50700 83a54700 03a68700 2326d700  ......G.....#&..
 1e90 2320a700 2322b700 2324c700 93870701  # ..#"..#$......
 1ea0 93868119 13070701 e39ad7fc b7070811  ................
 1eb0 13074000 23a0e700 13040116 93041000  ..@.#...........
 1ec0 13850400 eff0df9c 2320a400 2322b400  ........# ..#"..
 1ed0 93070126 13048400 9384f4ff e312f4fe  ...&............
 1ee0 b7070811 13078000 23a0e700 93075000  ........#.....P.
 1ef0 2322f104 93070002 232af102 03274103  #"......#*...'A.
 1f00 930e0126 130e0000 93571740 2320f104  ...&.....W.@# ..
 1f10 930f0106 9302010e 13133700 93933700  ..........7...7.
 1f20 130f0116 93040e00 938d0e00 83a60f00  ................
 1f30 03a74f00 83270104 2320d100 2322e100  ..O..'..# ..#"..
 1f40 83a60200 03a74200 b387f400 2324d100  ......B.....#$..
 1f50 2326e100 63d6f418 3384e301 338db301  #&..c...3...3...
 1f60 938c0d00 232eb101 33087400 130c0f00  ....#...3.t.....
 1f70 938d0300 032b0400 832b4400 03250100  .....+...+D..%..
 1f80 83254100 13060b00 93860b00 2328f103  .%A.........#(..
 1f90 23265102 2324e103 23226102 23200103  #&Q.#$..#"a.# ..
 1fa0 03290d00 efe09fa3 83294d00 130a0500  .).......)M.....
 1fb0 938a0500 03258100 8325c100 13060900  .....%...%......
 1fc0 93860900 efe09fa1 13060500 93860500  ................
 1fd0 13050a00 93850a00 eff04f87 2328a100  ..........O.#(..
 1fe0 232ab100 03250100 83254100 13060900  #*...%...%A.....
 1ff0 93860900 efe09f9e 13090500 93890500  ................
 2000 03258100 8325c100 13060b00 93860b00  .%...%..........
 2010 efe0df9c 13060500 93860500 13050900  ................
 2020 93850900 efe00f91 032b0c00 832b4c00  .........+...+L.
 2030 130a0500 938a0500 03250101 83254101  .........%...%A.
 2040 03a90c00 83a94c00 13060b00 93860b00  ......L.........
 2050 efe04f8e 2320ac00 2322bc00 13060900  ..O.# ..#"......
 2060 93860900 13050a00 93850a00 efe08f8c  ................
 2070 03260101 83264101 23a0ac00 23a2bc00  .&...&A.#...#...
 2080 13050b00 93850b00 efe05ffc 2320a400  .........._.# ..
 2090 2322b400 13060a00 93860a00 13050900  #"..............
 20a0 93850900 efe09ffa 2320ad00 2322bd00  ........# ..#"..
 20b0 03280102 13048400 130d8d00 130c8c00  .(..............
 20c0 938c8c00 03234102 032f8102 8322c102  .....#A../..."..
 20d0 832f0103 e31004eb 93830d00 832dc101  ./...........-..
 20e0 83274103 938f8f00 93828200 b384f400  .'A.............
 20f0 9307f001 330f6f00 b38d6d00 e3d897e2  ....3.o...m.....
 2100 83274104 03270104 9387f7ff 2322f104  .'A..'......#"..
 2110 232ae102 e39407de b7070811 13070001  #*..............
 2120 832a0116 032a4116 13048116 23a0e700  .*...*A.....#...
 2130 130b0000 93041000 03294400 83290400  .........)D..)..
 2140 13860a00 93060a00 13850900 93050900  ................
 2150 efe0dfef 03268103 8326c103 efe08ff9  .....&...&......
 2160 6358a000 138b0400 938a0900 130a0900  cX..............
 2170 93841400 93070002 13048400 e39ef4fa  ................
 2180 37040811 2320f400 13050b00 eff04ff0  7...# ........O.
 2190 03260105 83264105 efe05f84 03268105  .&...&A..._..&..
 21a0 8326c105 efe09f83 eff08fe6 b7070c11  .&..............
 21b0 23a0a700 93070004 2320f400 6ff05fc7  #.......# ..o._.
Contents of section .data:
 21c0 00000000 00000000 00000000 00000000  ................
 21d0 00000000 00000000 00000000 00000000  ................
 21e0 00000000 cc240000 34250000 9c250000  .....$..4%...%..
 21f0 00000000 00000000 00000000 00000000  ................
 2200 00000000 00000000 00000000 00000000  ................
 2210 00000000 00000000 00000000 00000000  ................
 2220 00000000 00000000 00000000 00000000  ................
 2230 00000000 00000000 00000000 00000000  ................
 2240 00000000 00000000 00000000 00000000  ................
 2250 00000000 00000000 00000000 00000000  ................
 2260 00000000 00000000 00000000 00000000  ................
 2270 00000000 00000000 00000000 00000000  ................
 2280 00000000 00000000 01000000 00000000  ................
 2290 0e33cdab 34126de6 ecde0500 0b000000  .3..4.m.........
 22a0 00000000 00000000 00000000 00000000  ................
 22b0 00000000 00000000 00000000 00000000  ................
 22c0 00000000 00000000 00000000 00000000  ................
 22d0 00000000 00000000 00000000 00000000  ................
 22e0 00000000 00000000 00000000 00000000  ................
 22f0 00000000 00000000 00000000 00000000  ................
 2300 00000000 00000000 00000000 00000000  ................
 2310 00000000 00000000 00000000 00000000  ................
 2320 00000000 00000000 00000000 00000000  ................
 2330 00000000 00000000 00000000 00000000  ................
 2340 00000000 00000000 00000000 00000000  ................
 2350 00000000 00000000 00000000 00000000  ................
 2360 00000000 00000000 00000000 00000000  ................
 2370 00000000 00000000 00000000 00000000  ................
 2380 00000000 00000000 00000000 00000000  ................
 2390 00000000 00000000 00000000 00000000  ................
 23a0 00000000 00000000 00000000 00000000  ................
 23b0 00000000 00000000 00000000 00000000  ................
 23c0 00000000 00000000 00000000 00000000  ................
 23d0 00000000 00000000 00000000 00000000  ................
 23e0 00000000 00000000 00000000 00000000  ................
 23f0 00000000 00000000 00000000 00000000  ................
 2400 00000000 00000000 00000000 00000000  ................
 2410 00000000 00000000 00000000 00000000  ................
 2420 00000000 00000000 00000000 00000000  ................
 2430 00000000 00000000 00000000 00000000  ................
 2440 00000000 00000000 00000000 00000000  ................
 2450 00000000 00000000 00000000 00000000  ................
 2460 00000000 00000000 00000000 00000000  ................
 2470 00000000 00000000 00000000 00000000  ................
 2480 00000000 00000000 00000000 00000000  ................
 2490 00000000 00000000 00000000 00000000  ................
 24a0 00000000 00000000 00000000 00000000  ................
 24b0 00000000 00000000 00000000 00000000  ................
 24c0 00000000 00000000 00000000 00000000  ................
 24d0 00000000 00000000 00000000 00000000  ................
 24e0 00000000 00000000 00000000 00000000  ................
 24f0 00000000 00000000 00000000 00000000  ................
 2500 00000000 00000000 00000000 00000000  ................
 2510 00000000 00000000 00000000 00000000  ................
 2520 00000000 00000000 00000000 00000000  ................
 2530 00000000 00000000 00000000 00000000  ................
 2540 00000000 00000000 00000000 00000000  ................
 2550 00000000 00000000 00000000 00000000  ................
 2560 00000000 00000000 00000000 00000000  ................
 2570 00000000 00000000 00000000 00000000  ................
 2580 00000000 00000000 00000000 00000000  ................
 2590 00000000 00000000 00000000 00000000  ................
 25a0 00000000 00000000 00000000 00000000  ................
 25b0 00000000 00000000 00000000 00000000  ................
 25c0 00000000 00000000 00000000 00000000  ................
 25d0 00000000 00000000 00000000 00000000  ................
 25e0 00000000 00000000 00000000 00000000  ................
 25f0 00000000 00000000 00000000 00000000  ................
 2600 00000000 00000000 00000000 e0210000  .............!..
 2610 00000c11 00000811 00000000 0000f03f  ...............?
 2620 00000000 00004040 00000000 0000a03f  ......@@.......?
 2630 e0210000 00000000 00000000 0000f03f  .!.............?
 2640 00000000 00000000 3e986566 9ea0e63f  ........>.ef...?
 2650 3e986566 9ea0e6bf 58b875cf 6b90ed3f  >.ef....X.u.k..?
 2660 7a4e4aa6 e27dd8bf 7a4e4aa6 e27dd83f  zNJ..}..zNJ..}.?
 2670 58b875cf 6b90edbf 47f1bfcf 9762ef3f  X.u.k...G....b.?
 2680 31c8603c b8f8c8bf 17b7ab39 3bc7e13f  1.`<.......9;..?
 2690 c60ce528 669beabf c60ce528 669bea3f  ...(f......(f..?
 26a0 17b7ab39 3bc7e1bf 31c8603c b8f8c83f  ...9;...1.`<...?
 26b0 47f1bfcf 9762efbf 00000000 00000000  G....b..........
 26c0 00000000 0000f03f 3e986566 9ea0e63f  .......?>.ef...?
 26d0 3e986566 9ea0e63f 7a4e4aa6 e27dd83f  >.ef...?zNJ..}.?
 26e0 58b875cf 6b90ed3f 58b875cf 6b90ed3f  X.u.k..?X.u.k..?
 26f0 7a4e4aa6 e27dd83f 31c8603c b8f8c83f  zNJ..}.?1.`<...?
 2700 47f1bfcf 9762ef3f c60ce528 669bea3f  G....b.?...(f..?
 2710 17b7ab39 3bc7e13f 17b7ab39 3bc7e13f  ...9;..?...9;..?
 2720 c60ce528 669bea3f 47f1bfcf 9762ef3f  ...(f..?G....b.?
 2730 31c8603c b8f8c83f 340f0000 340f0000  1.`<...?4...4...
 2740 580f0000 280f0000 280f0000 18100000  X...(...(.......
 2750 580f0000 280f0000 18100000 280f0000  X...(.......(...
 2760 580f0000 240f0000 240f0000 240f0000  X...$...$...$...
 2770 18100000 00010202 03030303 04040404  ................
 2780 04040404 05050505 05050505 05050505  ................
 2790 05050505 06060606 06060606 06060606  ................
 27a0 06060606 06060606 06060606 06060606  ................
 27b0 06060606 07070707 07070707 07070707  ................
 27c0 07070707 07070707 07070707 07070707  ................
 27d0 07070707 07070707 07070707 07070707  ................
 27e0 07070707 07070707 07070707 07070707  ................
 27f0 07070707 08080808 08080808 08080808  ................
 2800 08080808 08080808 08080808 08080808  ................
 2810 08080808 08080808 08080808 08080808  ................
 2820 08080808 08080808 08080808 08080808  ................
 2830 08080808 08080808 08080808 08080808  ................
 2840 08080808 08080808 08080808 08080808  ................
 2850 08080808 08080808 08080808 08080808  ................
 2860 08080808 08080808 08080808 08080808  ................
 2870 08080808                             ....            
Contents of section .eh_frame:
 2874 00000000                             ....            
Contents of section .fini_array:
 2878 b0000000                             ....            
Contents of section .init_array:
 287c 00010000                             ....            
Contents of section .comment:
 0000 4743433a 2028474e 55292038 2e322e30  GCC: (GNU) 8.2.0
 0010 00                                   .               
Contents of section .debug_line:
 0000 41000000 02002100 00000101 fb0e0d00  A.....!.........
 0010 01010101 00000001 00000173 72630000  ...........src..
 0020 696e6974 2e730001 00000000 05020000  init.s..........
 0030 00001803 02090800 01030509 04000109  ................
 0040 04000001 01500500 000200f9 00000001  .....P..........
 0050 01fb0e0d 00010101 01000000 01000001  ................
 0060 73726300 2f686f6d 652f7374 7564656e  src./home/studen
 0070 742f6c6f 63616c2f 72697363 7633322d  t/local/riscv32-
 0080 756e6b6e 6f776e2d 656c662f 696e636c  unknown-elf/incl
 0090 7564652f 73797300 2f686f6d 652f7374  ude/sys./home/st
 00a0 7564656e 742f6c6f 63616c2f 6c69622f  udent/local/lib/
 00b0 6763632f 72697363 7633322d 756e6b6e  gcc/riscv32-unkn
 00c0 6f776e2d 656c662f 382e322e 302f696e  own-elf/8.2.0/in
 00d0 636c7564 65002f68 6f6d652f 73747564  clude./home/stud
 00e0 656e742f 6c6f6361 6c2f7269 73637633  ent/local/riscv3
 00f0 322d756e 6b6e6f77 6e2d656c 662f696e  2-unknown-elf/in
 0100 636c7564 65000066 66742e63 00010000  clude..fft.c....
 0110 6c6f636b 2e680002 00005f74 79706573  lock.h...._types
 0120 2e680002 00007374 64646566 2e680003  .h....stddef.h..
 0130 00007265 656e742e 68000200 006d6174  ..reent.h....mat
 0140 682e6800 04000000 05010005 02300100  h.h..........0..
 0150 00180502 03010900 00010506 03000900  ................
 0160 00010501 06030109 00000109 04000001  ................
 0170 01050100 0502a01d 000003d5 00010502  ................
 0180 03010900 00010517 06031d09 00000105  ................
 0190 01036209 0c000105 17031e09 04000105  ..b.............
 01a0 21030a09 08000105 01035809 0c000105  !.........X.....
 01b0 21032809 04000105 2d030009 08000105  !.(.....-.......
 01c0 01035809 0c000105 2d032809 08000105  ..X.....-.(.....
 01d0 01035809 0c000105 07030109 04000105  ..X.............
 01e0 01037f09 04000105 2d032809 24000105  ........-.(.$...
 01f0 07035909 04000105 05060301 09080001  ..Y.............
 0200 03010900 00010301 09000001 03010900  ................
 0210 00010503 03010908 00010502 03020900  ................
 0220 00010507 06030009 00000105 05060302  ................
 0230 090c0001 050c0603 00090000 01050506  ................
 0240 03010938 0001050c 06030009 00000105  ...8............
 0250 02060302 09380001 05070603 00090000  .....8..........
 0260 01050506 0301090c 00010509 03000900  ................
 0270 00010507 06037f09 00000105 06000204  ................
 0280 03060302 09080001 05130002 04030603  ................
 0290 00090000 01050500 02040303 7f091000  ................
 02a0 01050206 03030910 00010507 06030009  ................
 02b0 00000105 09060301 090c0001 05070603  ................
 02c0 7f090000 01050903 ba7f0908 00010505  ................
 02d0 06030309 08000105 08060300 09000001  ................
 02e0 050b0303 09080001 0508037d 09040001  ...........}....
 02f0 05050603 03090800 01050806 037d0910  .............}..
 0300 0001050b 03030904 00010507 06030b09  ................
 0310 08000105 0c060300 09000001 05070304  ................
 0320 09080001 050c037c 09040001 05070603  .......|........
 0330 01090800 01050c06 03000900 00010507  ................
 0340 03030908 0001050c 037d0904 00010507  .........}......
 0350 06030309 08000105 09030709 20000105  ............ ...
 0360 1b060300 09000001 05150300 09080001  ................
 0370 052f0300 09240001 05150300 09040001  ./...$..........
 0380 052f0300 09040001 05150300 09040001  ./..............
 0390 05290300 09080001 050e0300 09140001  .)..............
 03a0 05090603 01091400 01050e06 037f0900  ................
 03b0 00010515 03010908 00010529 0300091c  ...........)....
 03c0 0001050e 03000914 00010303 09140001  ................
 03d0 037d0908 00010509 06030309 08000103  .}..............
 03e0 01090000 01051806 03010900 0001050e  ................
 03f0 037f0908 00010509 06030109 08000105  ................
 0400 18060300 09000001 05110300 090c0001  ................
 0410 05090603 01090800 01051806 03000900  ................
 0420 0001051b 03010914 00010511 037f0908  ................
 0430 00010509 06030109 08000105 1b060300  ................
 0440 09000001 05140300 090c0001 05090603  ................
 0450 01090800 01051b06 03000900 00010514  ................
 0460 03000914 00010507 03700908 00010519  .........p......
 0470 03710930 00010505 03000910 00010514  .q.0............
 0480 037a0914 00010503 03000910 00010502  .z..............
 0490 0603c900 09040001 05070603 00090000  ................
 04a0 01051403 07090800 01050703 79090c00  ............y...
 04b0 01050d06 03070904 00010509 03010900  ................
 04c0 0001050d 03010900 00010511 03000900  ................
 04d0 0001050d 06037f09 00000105 15030109  ................
 04e0 04000106 03010904 00010522 06030009  ..........."....
 04f0 00000105 25030009 08000105 17030009  ....%...........
 0500 14000105 22030009 14000103 7f090800  ...."...........
 0510 01050d03 00090400 01050206 0309090c  ................
 0520 00010507 06030009 00000105 09060302  ................
 0530 09080001 05210603 00090000 01052d03  .....!........-.
 0540 00091400 01050d03 00090c00 01050906  ................
 0550 03010904 00010514 06030009 00000105  ................
 0560 02060304 09080001 05070603 00090000  ................
 0570 01050206 03010908 00010384 7f090000  ................
 0580 01050603 00090000 01050306 03d50009  ................
 0590 00000109 04000001 01ee0e00 00020091  ................
 05a0 00000001 01fb0e0d 00010101 01000000  ................
 05b0 01000001 2e2e2f2e 2e2f2e2e 2f2e2f72  ....../../.././r
 05c0 69736376 2d676363 2f6c6962 6763632f  iscv-gcc/libgcc/
 05d0 736f6674 2d667000 2e2e2f2e 2e2f2e2e  soft-fp.../../..
 05e0 2f2e2f72 69736376 2d676363 2f6c6962  /./riscv-gcc/lib
 05f0 6763632f 2e2e2f69 6e636c75 64650000  gcc/../include..
 0600 61646464 66332e63 00010000 736f6674  adddf3.c....soft
 0610 2d66702e 68000100 00646f75 626c652e  -fp.h....double.
 0620 68000100 006c6f6e 676c6f6e 672e6800  h....longlong.h.
 0630 02000000 05010005 02340100 00032301  .........4....#.
 0640 05030301 09000001 03000900 0001050d  ................
 0650 03000900 00010503 03010900 00010300  ................
 0660 09000001 03000900 00010300 09000001  ................
 0670 03010900 00010300 09000001 03000900  ................
 0680 00010300 09000001 03010900 00010300  ................
 0690 09000001 03000900 00010300 09000001  ................
 06a0 03010900 00010302 09000001 03010900  ................
 06b0 00010300 09000001 03000900 00010300  ................
 06c0 09000001 03000900 00010300 09000001  ................
 06d0 0300090c 00010501 06037809 08000105  ..........x.....
 06e0 03030809 04000103 01090400 01037f09  ................
 06f0 04000103 01090400 01050103 77090800  ............w...
 0700 01050303 08090800 01060300 09040001  ................
 0710 06030109 00000105 01037709 08000105  ..........w.....
 0720 03030809 0c000106 03000904 00010300  ................
 0730 09000001 03000900 00010300 09000001  ................
 0740 06030109 00000103 7f090800 01060300  ................
 0750 09040001 03010900 00010300 09000001  ................
 0760 03000900 00010300 09000001 03000900  ................
 0770 00010300 09000001 03000900 00010300  ................
 0780 09000001 03000900 00010300 09000001  ................
 0790 03000900 00010300 09000001 03000904  ................
 07a0 00010301 09000001 03000900 00010300  ................
 07b0 09000001 03000900 00010300 09000001  ................
 07c0 03000900 00010002 04070300 09080001  ................
 07d0 00020407 03000900 00010002 04070300  ................
 07e0 09000001 00020409 03000904 00010002  ................
 07f0 04090300 09000001 0002040b 03000904  ................
 0800 00010002 040e0300 09080001 0002040e  ................
 0810 03000900 00010002 040e0300 09040001  ................
 0820 00020417 03000904 00010002 04170300  ................
 0830 09000001 00020417 03000900 00010002  ................
 0840 04170300 09040001 00020417 0300090c  ................
 0850 00010002 04170300 09000001 00020450  ...............P
 0860 03000904 00010002 04500300 09000001  .........P......
 0870 00020450 06037f09 00000100 02045003  ...P..........P.
 0880 01090400 01000204 18060300 09040001  ................
 0890 06030009 08000100 02040c06 03000908  ................
 08a0 00010002 04260300 09080001 0002042f  .....&........./
 08b0 0300090c 00010002 04300300 09080001  .........0......
 08c0 00020432 03000908 00010002 04320300  ...2.........2..
 08d0 09200001 00020440 03000904 00010002  . .....@........
 08e0 04400300 09000001 00020440 03000900  .@.........@....
 08f0 00010002 04400300 09040001 00020440  .....@.........@
 0900 0300090c 00010002 047a0300 09040001  .........z......
 0910 000304b6 01030009 08000100 0304b601  ................
 0920 03000900 00010003 04b60103 00090400  ................
 0930 01000304 b6010300 09000001 000304b6  ................
 0940 01030009 00000100 0304b601 03000900  ................
 0950 00010603 00090800 01000204 33060300  ............3...
 0960 09280001 0002043a 06030009 14000100  .(.....:........
 0970 02043d03 00090c00 01000204 3d060300  ..=.........=...
 0980 090c0001 00020431 06030009 00000100  .......1........
 0990 02043106 03000908 00010002 040a0300  ..1.............
 09a0 090c0001 00020442 03000904 00010002  .......B........
 09b0 04420300 09040001 00020442 03000900  .B.........B....
 09c0 00010002 04440300 09040001 00020447  .....D.........G
 09d0 03000908 00010002 04470300 09000001  .........G......
 09e0 00020447 03000904 00010002 04500300  ...G.........P..
 09f0 09040001 00020450 03000900 00010002  .......P........
 0a00 04500300 09000001 00020450 03000904  .P.........P....
 0a10 00010002 04510300 09100001 06037f09  .....Q..........
 0a20 08000100 02044506 0301090c 00010002  ......E.........
 0a30 045f0300 09080001 00020468 0300090c  ._.........h....
 0a40 00010002 04690300 09080001 0002046b  .....i.........k
 0a50 03000908 00010002 046b0300 09200001  .........k... ..
 0a60 00020479 03000904 00010002 04790300  ...y.........y..
 0a70 09000001 00020479 03000900 00010002  .......y........
 0a80 04790300 09040001 00020479 0300090c  .y.........y....
 0a90 00010002 04790603 7f090000 01000204  .....y..........
 0aa0 6c060301 09080001 00020473 06030009  l..........s....
 0ab0 14000100 02047603 00090c00 01000204  ......v.........
 0ac0 76060300 090c0001 0002046a 06030009  v..........j....
 0ad0 00000100 02046a06 03000908 00010002  ......j.........
 0ae0 04430300 090c0001 0002047b 0300090c  .C.........{....
 0af0 00010002 047d0300 09080001 0002047d  .....}.........}
 0b00 03000900 00010003 04800103 00090400  ................
 0b10 01000304 86010300 09080001 00030486  ................
 0b20 01030009 00000100 03048601 03000900  ................
 0b30 00010003 04860103 00090000 01000304  ................
 0b40 86010300 09040001 00030486 01030009  ................
 0b50 0c000100 03048601 03000900 00010003  ................
 0b60 04880103 00090c00 01000304 88010300  ................
 0b70 090c0001 000304a1 03030009 04000100  ................
 0b80 0304a103 03010900 00010003 04a10303  ................
 0b90 00090000 01000304 a1030300 09000001  ................
 0ba0 000304a1 03030009 00000100 0304a103  ................
 0bb0 03000900 00010002 04250300 09080001  .........%......
 0bc0 00020425 03000900 00010002 04250300  ...%.........%..
 0bd0 09000001 00020425 03000900 00010002  .......%........
 0be0 042c0300 090c0001 0002042c 03000900  .,.........,....
 0bf0 00010002 042c0300 09000001 0002042c  .....,.........,
 0c00 03000904 00010002 042c0300 09080001  .........,......
 0c10 00030499 01037f09 08000100 03049901  ................
 0c20 03000900 00010003 04990103 00090000  ................
 0c30 01000304 99010300 09000001 00030499  ................
 0c40 01030009 00000100 03049901 03000900  ................
 0c50 00010003 049b0103 00090400 01060300  ................
 0c60 09080001 0002047c 06030009 14000100  .......|........
 0c70 02047c03 00090000 01000204 7c030009  ..|.........|...
 0c80 00000100 02047c03 00090000 01000204  ......|.........
 0c90 7c030009 00000100 02047c03 00090000  |.........|.....
 0ca0 01000204 7c030009 00000100 02047c03  ....|.........|.
 0cb0 00090000 01000204 7c030009 00000100  ........|.......
 0cc0 02047c03 00090000 01060300 09080001  ..|.............
 0cd0 00020408 06030009 28000100 02040803  ........(.......
 0ce0 00090000 01000304 c8010300 09040001  ................
 0cf0 000304c8 01030009 00000100 0304c801  ................
 0d00 03000900 00010003 04ca0103 00090400  ................
 0d10 01000304 cd010300 09080001 000304cd  ................
 0d20 01030009 00000100 0304cd01 03000904  ................
 0d30 00010003 04d60103 00090400 01000304  ................
 0d40 d6010300 09000001 000304d6 01030009  ................
 0d50 00000100 0304d601 03000904 00010003  ................
 0d60 04d60103 00090c00 01000304 d6010300  ................
 0d70 09000001 0003048f 0206037f 09040001  ................
 0d80 0003048f 02030109 04000100 0304d701  ................
 0d90 06030009 04000100 0304ee01 03000908  ................
 0da0 00010003 04ef0103 00090800 01000304  ................
 0db0 f1010300 09080001 000304f1 01030009  ................
 0dc0 20000100 0304ff01 03000904 00010003   ...............
 0dd0 04ff0103 00090000 01000304 ff010300  ................
 0de0 09000001 000304ff 01030009 04000100  ................
 0df0 0304ff01 0300090c 00010003 04b90203  ................
 0e00 00090400 01000304 f5020300 09080001  ................
 0e10 000304f5 02030009 00000100 0304cb01  ................
 0e20 03000914 00010003 04e50103 00090800  ................
 0e30 01000304 f2010300 09100001 000304f9  ................
 0e40 01060300 09140001 000304fc 01030009  ................
 0e50 0c000100 0304fc01 06030009 0c000100  ................
 0e60 0304f001 06030009 00000100 0304f001  ................
 0e70 06030009 08000100 0304c901 0300090c  ................
 0e80 00010003 04810203 00090400 01000304  ................
 0e90 81020300 09040001 00030481 02030009  ................
 0ea0 00000100 03048102 03000900 00010003  ................
 0eb0 04830203 00090400 01000304 86020300  ................
 0ec0 09080001 00030486 02030009 00000100  ................
 0ed0 03048602 03000904 00010003 048f0203  ................
 0ee0 00090400 01000304 8f020300 09000001  ................
 0ef0 0003048f 02030009 00000100 03048f02  ................
 0f00 03000904 00010003 048f0203 00090c00  ................
 0f10 01000304 8f020300 09000001 00030490  ................
 0f20 02030009 08000106 037f0908 00010301  ................
 0f30 09080001 00030484 02060300 09080001  ................
 0f40 0003049e 02030009 08000100 0304a702  ................
 0f50 0300090c 00010003 04a80203 00090800  ................
 0f60 01000304 aa020300 09080001 000304aa  ................
 0f70 02030009 20000100 0304b802 03000904  .... ...........
 0f80 00010003 04b80203 00090000 01000304  ................
 0f90 b8020300 09000001 000304b8 02030009  ................
 0fa0 04000100 0304b802 0300090c 00010003  ................
 0fb0 04b80206 037f0900 00010003 04ab0206  ................
 0fc0 0301090c 00010003 04b20206 03000914  ................
 0fd0 00010003 04b50203 00090c00 01000304  ................
 0fe0 b5020603 00090c00 01000304 a9020603  ................
 0ff0 00090000 01000304 a9020603 00090800  ................
 1000 01000304 82020300 090c0001 000304ba  ................
 1010 02030009 0c000100 0304bc02 0300090c  ................
 1020 00010003 04bc0203 00090000 01000304  ................
 1030 be020300 09040001 000304be 02030009  ................
 1040 00000106 037f0904 00010003 04bf0206  ................
 1050 03010910 00010003 04c60203 00090400  ................
 1060 01000304 c6020300 09000001 000304c6  ................
 1070 02030009 00000100 0304c602 03000900  ................
 1080 00010003 04c60203 00090400 01000304  ................
 1090 c6020300 090c0001 000304c6 02030009  ................
 10a0 00000100 0304c602 03000900 00010003  ................
 10b0 04c80203 00090800 01000304 c8020300  ................
 10c0 09000001 000304c8 02030009 00000100  ................
 10d0 0304c802 03000904 00010003 04c80203  ................
 10e0 00090c00 01000304 c8020300 09000001  ................
 10f0 000304c9 02030009 04000106 03000908  ................
 1100 00010003 04dc0206 0300090c 00010003  ................
 1110 04dc0203 00090000 01000304 dc020300  ................
 1120 09000001 000304dc 02030009 00000100  ................
 1130 0304dc02 03000900 00010003 04dc0203  ................
 1140 00090000 01000304 dd020300 09040001  ................
 1150 06037f09 04000103 01090800 01000304  ................
 1160 de020603 00090800 01000304 bb020300  ................
 1170 09080001 000304bb 02030009 00000100  ................
 1180 0304bb02 03000900 00010003 04bb0203  ................
 1190 00090000 01000304 bb020300 09040001  ................
 11a0 000304bb 02030009 0c000100 0304bb02  ................
 11b0 03000900 00010003 04bb0203 00090000  ................
 11c0 01000304 ee020300 09080001 000304ee  ................
 11d0 02030009 00000100 0304ee02 03000900  ................
 11e0 00010003 04ee0203 00090400 01000304  ................
 11f0 ee020300 090c0001 000304ee 02030009  ................
 1200 00000100 0304f702 03000904 00010003  ................
 1210 04f70203 00090000 01000304 fa020300  ................
 1220 09040001 000304fa 02030009 00000100  ................
 1230 0304fa02 03000900 00010003 04fa0203  ................
 1240 00090000 01000304 85030300 09080001  ................
 1250 00030485 03030009 04000100 03048603  ................
 1260 03000908 00010003 04860303 00090000  ................
 1270 01000304 86030300 09140001 0003048f  ................
 1280 03030009 04000100 03049003 03000904  ................
 1290 00010003 04900303 00090800 01000304  ................
 12a0 92030300 09080001 00030492 03030009  ................
 12b0 20000100 03049e03 06030009 04000100   ...............
 12c0 0304ef02 06030009 08000106 0300090c  ................
 12d0 00010003 04fe0206 03000908 00010003  ................
 12e0 04fe0203 00090000 01000304 fe020300  ................
 12f0 09000001 000304fe 02030009 00000100  ................
 1300 0304fe02 03000908 00010003 04870303  ................
 1310 00090800 01000304 87030300 09080001  ................
 1320 00030493 03030009 08000100 03049b03  ................
 1330 06030009 14000100 03049e03 0300090c  ................
 1340 00010003 049e0306 0300090c 00010003  ................
 1350 04910303 00090800 01000304 91030300  ................
 1360 090c0001 06037f09 08000103 01090800  ................
 1370 01037f09 08000100 02042f06 03020918  ........../.....
 1380 00010002 042f0300 09000001 0002043f  ...../.........?
 1390 03000908 00010002 043f0300 09000001  .........?......
 13a0 0002043f 03000904 00010603 00090800  ...?............
 13b0 01000204 4f060300 090c0001 0002044f  ....O..........O
 13c0 03000900 00010002 044f0300 090c0001  .........O......
 13d0 0002044f 03000908 00010002 04500603  ...O.........P..
 13e0 00090400 01030009 0c000100 02045a06  ..............Z.
 13f0 0300090c 00010002 045a0300 09000001  .........Z......
 1400 0002045a 03000900 00010002 045a0300  ...Z.........Z..
 1410 09000001 0002045a 03000900 00010002  .......Z........
 1420 045a0300 09000001 0002045a 03000900  .Z.........Z....
 1430 00010501 0002045a 06030409 0c000105  .......Z........
 1440 03000204 5a037c09 08000100 02045a06  ....Z.|.......Z.
 1450 03010910 00010002 045a0300 09000001  .........Z......
 1460 0002045a 03020900 00010501 0002045a  ...Z...........Z
 1470 06030109 00000105 03037a09 20000103  ..........z. ...
 1480 01090800 01093c00 000101f1 02000002  ......<.........
 1490 00a30000 000101fb 0e0d0001 01010100  ................
 14a0 00000100 00012e2e 2f2e2e2f 2e2e2f2e  ......../../../.
 14b0 2f726973 63762d67 63632f6c 69626763  /riscv-gcc/libgc
 14c0 632f736f 66742d66 70002e00 2e2e2f2e  c/soft-fp...../.
 14d0 2e2f2e2e 2f2e2f72 69736376 2d676363  ./.././riscv-gcc
 14e0 2f6c6962 6763632f 2e2e2f69 6e636c75  /libgcc/../inclu
 14f0 64650000 67656466 322e6300 01000073  de..gedf2.c....s
 1500 66702d6d 61636869 6e652e68 00020000  fp-machine.h....
 1510 736f6674 2d66702e 68000100 00646f75  soft-fp.h....dou
 1520 626c652e 68000100 006c6f6e 676c6f6e  ble.h....longlon
 1530 672e6800 03000000 05010005 02f40800  g.h.............
 1540 00032301 05030301 09000001 03000900  ..#.............
 1550 0001050d 03000900 00010503 03010900  ................
 1560 00010300 09000001 03000900 00010300  ................
 1570 09000001 03010900 00010300 09000001  ................
 1580 03000900 00010300 09000001 03010900  ................
 1590 00010302 09000001 03010900 00010300  ................
 15a0 09000001 03000900 00010300 09000001  ................
 15b0 06030109 0c000105 01037809 04000105  ..........x.....
 15c0 03060307 09080001 06030209 04000103  ................
 15d0 7e090400 01060300 09040001 03000900  ~...............
 15e0 00010603 01090400 01037f09 04000106  ................
 15f0 03010904 00010300 09000001 03000900  ................
 1600 00010300 09000001 03000900 00010300  ................
 1610 09000001 03000904 00010301 09040001  ................
 1620 03000900 00010300 09000001 03000900  ................
 1630 00010002 04120603 00090400 01000204  ................
 1640 15030009 10000100 02041603 00090400  ................
 1650 01000204 39060300 090c0001 00020439  ....9..........9
 1660 03000900 00010002 04390300 09000001  .........9......
 1670 00020439 03000900 00010002 04390300  ...9.........9..
 1680 09000001 00020439 03000900 00010002  .......9........
 1690 04390300 09000001 00020439 03000900  .9.........9....
 16a0 00010002 04390300 09000001 0002043a  .....9.........:
 16b0 06030009 04000100 02043a06 03000908  ..........:.....
 16c0 00010002 04400603 00090400 01060300  .....@..........
 16d0 09080001 03000904 00010300 09000001  ................
 16e0 03000900 00010002 046c0300 09040001  .........l......
 16f0 05010603 04090800 01050300 02044a06  ..............J.
 1700 037c0904 00010002 044a0300 09000001  .|.......J......
 1710 06030009 04000100 02045706 03000908  ..........W.....
 1720 00010002 045d0300 09040001 00020476  .....].........v
 1730 03000904 00010603 00090800 01000204  ................
 1740 63060300 09080001 00020469 06030009  c..........i....
 1750 04000100 02046a03 00090400 01000204  ......j.........
 1760 74060300 09040001 0300090c 00010300  t...............
 1770 090c0001 0300090c 0001090c 00000101  ................
 1780 860e0000 02009100 00000101 fb0e0d00  ................
 1790 01010101 00000001 0000012e 2e2f2e2e  ............./..
 17a0 2f2e2e2f 2e2f7269 7363762d 6763632f  /.././riscv-gcc/
 17b0 6c696267 63632f73 6f66742d 6670002e  libgcc/soft-fp..
 17c0 2e2f2e2e 2f2e2e2f 2e2f7269 7363762d  ./../.././riscv-
 17d0 6763632f 6c696267 63632f2e 2e2f696e  gcc/libgcc/../in
 17e0 636c7564 6500006d 756c6466 332e6300  clude..muldf3.c.
 17f0 01000073 6f66742d 66702e68 00010000  ...soft-fp.h....
 1800 646f7562 6c652e68 00010000 6c6f6e67  double.h....long
 1810 6c6f6e67 2e680002 00000005 01000502  long.h..........
 1820 dc090000 03230105 03030109 00000103  .....#..........
 1830 00090000 01050d03 00090000 01050303  ................
 1840 01090000 01030009 00000103 00090000  ................
 1850 01030009 00000103 01090000 01030009  ................
 1860 00000103 00090000 01030009 00000103  ................
 1870 01090000 01030009 00000103 00090000  ................
 1880 01030009 00000103 01090000 01030209  ................
 1890 00000103 01090000 01030009 00000103  ................
 18a0 00090000 01030009 00000103 00090000  ................
 18b0 01030009 00000105 01060378 09000001  ...........x....
 18c0 05030308 09080001 05010378 09040001  ...........x....
 18d0 05030308 09140001 05010378 09040001  ...........x....
 18e0 05030308 090c0001 05010378 09040001  ...........x....
 18f0 05030308 090c0001 06030009 04000103  ................
 1900 00090000 01030009 04000103 00090000  ................
 1910 01000204 01030009 0c000100 02040103  ................
 1920 00090000 01000204 01030009 00000100  ................
 1930 02040103 00090000 01000204 01030009  ................
 1940 14000100 02040103 00090400 01000204  ................
 1950 01030009 00000100 02040103 00090400  ................
 1960 01000204 01030009 00000100 02042503  ..............%.
 1970 00090000 01000204 25030009 00000103  ........%.......
 1980 01090400 01030009 00000103 00090000  ................
 1990 01030009 00000103 00090000 01030009  ................
 19a0 10000103 00090400 01030009 00000103  ................
 19b0 00090400 01030009 00000100 02040103  ................
 19c0 00090c00 01000204 01030009 00000100  ................
 19d0 02040103 00090000 01000204 01030009  ................
 19e0 00000100 02040103 00091400 01000204  ................
 19f0 01030009 04000100 02040103 00090000  ................
 1a00 01000204 01030009 04000100 02040103  ................
 1a10 00090000 01000204 25030009 00000100  ........%.......
 1a20 02042503 00090000 01030109 04000103  ..%.............
 1a30 00090000 01030009 18000103 00090400  ................
 1a40 01000204 02037e09 18000100 02040c03  ......~.........
 1a50 00090800 01000204 0c030009 00000100  ................
 1a60 02040c03 00090000 01000204 0c030009  ................
 1a70 00000100 02041003 00090400 01000204  ................
 1a80 10030009 00000100 02041003 00090000  ................
 1a90 01000204 10030009 00000100 02041b03  ................
 1aa0 00090800 01000204 1b030009 04000100  ................
 1ab0 02041c03 00090800 01000204 1c030009  ................
 1ac0 08000100 02041c03 00091000 01000204  ................
 1ad0 1c030009 04000100 02042503 00090000  ..........%.....
 1ae0 01000204 14030009 0c000100 02041403  ................
 1af0 00090000 01000204 14030009 00000100  ................
 1b00 02041403 00090000 01000204 14030009  ................
 1b10 04000100 02041d03 00090800 01000204  ................
 1b20 1d030009 08000100 02040303 00090800  ................
 1b30 01060300 090c0001 00020402 06030109  ................
 1b40 30000100 02040c03 00090800 01000204  0...............
 1b50 0c030009 00000100 02040c03 00090000  ................
 1b60 01000204 0c030009 00000100 02041003  ................
 1b70 00090400 01000204 10030009 00000100  ................
 1b80 02041003 00090000 01000204 10030009  ................
 1b90 00000100 02041b03 00090800 01000204  ................
 1ba0 1b030009 04000100 02041c03 00090800  ................
 1bb0 01000204 1c030009 08000100 02041c03  ................
 1bc0 00091000 01000204 1c030009 04000100  ................
 1bd0 02042503 00090000 01000204 14030009  ..%.............
 1be0 0c000100 02041403 00090000 01000204  ................
 1bf0 14030009 00000100 02041403 00090000  ................
 1c00 01000204 14030009 08000100 02041d03  ................
 1c10 00090800 01000204 1d030009 08000100  ................
 1c20 02040303 00090800 01060300 09080001  ................
 1c30 00020402 06030109 30000100 02040203  ........0.......
 1c40 00090000 01000204 02030009 00000100  ................
 1c50 02040203 00090000 01000204 02030009  ................
 1c60 00000100 02040203 00090000 01000204  ................
 1c70 02030009 00000100 02040203 00090000  ................
 1c80 01000204 02030009 00000100 02040203  ................
 1c90 00090000 01000204 02030009 00000100  ................
 1ca0 02040203 00090c00 01000204 02030009  ................
 1cb0 00000100 02040203 00090400 01000204  ................
 1cc0 02030009 00000100 02040203 00090c00  ................
 1cd0 01000204 02030009 04000100 02040203  ................
 1ce0 00090400 01000204 02030009 04000100  ................
 1cf0 02040203 00090000 01000204 02030009  ................
 1d00 08000100 02040203 00090000 01000204  ................
 1d10 02030009 04000100 02040203 00090400  ................
 1d20 01000204 02030009 00000100 02040203  ................
 1d30 00090800 01000204 02030009 00000100  ................
 1d40 02040203 00090400 01000204 02030009  ................
 1d50 04000100 02040203 00090000 01000204  ................
 1d60 02030009 08000100 02040203 00090000  ................
 1d70 01000204 02030009 04000100 02040203  ................
 1d80 00091000 01000204 02030009 00000100  ................
 1d90 02040203 00090000 01000204 09030009  ................
 1da0 04000100 02040b03 00090400 01000204  ................
 1db0 0b030009 18000100 02040b03 00090400  ................
 1dc0 01000204 0b030009 00000100 02040b03  ................
 1dd0 00090000 01000204 0b030009 00000100  ................
 1de0 02040b03 00090000 01000204 0b030009  ................
 1df0 00000100 02040b03 00090000 01000204  ................
 1e00 0b030009 00000100 02040b03 00090000  ................
 1e10 01000204 0b030009 04000100 02040b03  ................
 1e20 00090400 01000204 0b030009 04000100  ................
 1e30 02040b03 00090400 01000204 0b030009  ................
 1e40 00000100 02040b03 00090800 01000204  ................
 1e50 0b030009 00000100 02040b03 00090400  ................
 1e60 01000204 0b030009 04000100 02040b03  ................
 1e70 00090000 01000204 0b030009 08000100  ................
 1e80 02040b03 00090000 01000204 0b030009  ................
 1e90 04000100 02040b03 00090400 01000204  ................
 1ea0 0b030009 00000100 02040b03 00090800  ................
 1eb0 01000204 0b030009 00000100 02040b03  ................
 1ec0 00090400 01000204 0b030009 00000100  ................
 1ed0 02040b03 00090000 01000204 0b030009  ................
 1ee0 0c000100 02040c03 00090400 01000204  ................
 1ef0 0e030009 08000100 02040e03 00090c00  ................
 1f00 01000204 0e030009 20000100 02040e03  ........ .......
 1f10 00090000 01000204 0e030009 00000100  ................
 1f20 02040e03 00090000 01000204 0e030009  ................
 1f30 00000100 02040e03 00090000 01000204  ................
 1f40 0e030009 00000100 02040e03 00090000  ................
 1f50 01000204 0e030009 00000100 02040e03  ................
 1f60 00090400 01000204 0e030009 04000100  ................
 1f70 02040e03 00090400 01000204 0e030009  ................
 1f80 04000100 02040e03 00090000 01000204  ................
 1f90 0e030009 08000100 02040e03 00090000  ................
 1fa0 01000204 0e030009 04000100 02040e03  ................
 1fb0 00090400 01000204 0e030009 00000100  ................
 1fc0 02040e03 00090800 01000204 0e030009  ................
 1fd0 00000100 02040e03 00090400 01000204  ................
 1fe0 0e030009 04000100 02040e03 00090000  ................
 1ff0 01000204 0e030009 08000100 02040e03  ................
 2000 00090000 01000204 0e030009 04000100  ................
 2010 02040e03 00090000 01000204 0e030009  ................
 2020 00000100 02040e03 00090c00 01000204  ................
 2030 0f030009 04000100 02041103 00090400  ................
 2040 01000204 11030009 1c000100 02041103  ................
 2050 00090400 01000204 11030009 00000100  ................
 2060 02041103 00090000 01000204 11030009  ................
 2070 00000100 02041103 00090000 01000204  ................
 2080 11030009 00000100 02041103 00090000  ................
 2090 01000204 11030009 00000100 02041103  ................
 20a0 00090000 01000204 11030009 04000100  ................
 20b0 02041103 00090400 01000204 11030009  ................
 20c0 04000100 02041103 00090400 01000204  ................
 20d0 11030009 00000100 02041103 00090800  ................
 20e0 01000204 11030009 00000100 02041103  ................
 20f0 00090400 01000204 11030009 04000100  ................
 2100 02041103 00090000 01000204 11030009  ................
 2110 08000100 02041103 00090000 01000204  ................
 2120 11030009 04000100 02041103 00090400  ................
 2130 01000204 11030009 00000100 02041103  ................
 2140 00090800 01000204 11030009 00000100  ................
 2150 02041103 00090400 01000204 11030009  ................
 2160 00000100 02041103 00090000 01000204  ................
 2170 11030009 0c000100 02041203 00090400  ................
 2180 01000204 14030009 04000100 02041403  ................
 2190 00090000 01000204 14030009 00000100  ................
 21a0 02041403 00090000 01000204 14030009  ................
 21b0 00000100 02041403 00091800 01000204  ................
 21c0 14030009 08000100 02041403 00090400  ................
 21d0 01000204 14030009 00000100 02041403  ................
 21e0 00090400 01000204 14030009 00000100  ................
 21f0 02041403 00090000 01000204 14030009  ................
 2200 00000100 02041403 00090000 01000204  ................
 2210 14030009 04000100 02041403 00090800  ................
 2220 01000204 14030009 00000100 02041403  ................
 2230 00090000 01000204 14030009 04000100  ................
 2240 02041403 00090000 01000204 14030009  ................
 2250 00000100 02041403 00090000 01000204  ................
 2260 14030009 00000100 02041403 00090000  ................
 2270 01000204 14030009 00000100 02041403  ................
 2280 00090000 01000204 14030009 00000100  ................
 2290 02041403 00090000 01000204 14030009  ................
 22a0 00000100 02041403 00090000 01000204  ................
 22b0 14030009 00000100 02041403 00090000  ................
 22c0 01000204 14030009 00000100 02041403  ................
 22d0 00090000 01000204 14030009 00000100  ................
 22e0 02041403 00090000 01000204 14030009  ................
 22f0 48000100 02041403 00090000 01000204  H...............
 2300 14030009 00000100 02041403 00090800  ................
 2310 01000204 14030009 00000100 02041403  ................
 2320 00090000 01000204 26030009 08000100  ........&.......
 2330 02042603 00090000 01000204 26030009  ..&.........&...
 2340 14000100 02040203 01090400 01000204  ................
 2350 02030009 04000100 02040603 00090400  ................
 2360 01000204 06030009 00000100 02040803  ................
 2370 00090800 01000204 08030009 00000100  ................
 2380 02040803 00090000 01000204 08030009  ................
 2390 00000100 02040a03 00090c00 01000204  ................
 23a0 0a030009 00000100 02040a03 00090000  ................
 23b0 01000204 0a030009 04000100 02040a03  ................
 23c0 00090800 01000204 09030009 04000100  ................
 23d0 02041803 00090800 01000204 18030009  ................
 23e0 0c000100 02041a03 00090400 01000204  ................
 23f0 1a030009 00000100 02041a03 00090000  ................
 2400 01000204 1a030009 00000106 03000908  ................
 2410 00010002 04780603 00091000 01000204  .....x..........
 2420 78030009 00000100 02047803 00090000  x.........x.....
 2430 01000204 78030009 00000100 02047803  ....x.........x.
 2440 00090000 01000204 78030009 00000100  ........x.......
 2450 02047803 00090000 01050100 02047806  ..x...........x.
 2460 0304090c 00010503 00020478 037c0908  ...........x.|..
 2470 00010002 04780603 01091000 01000204  .....x..........
 2480 78030009 00000100 02047803 02090000  x.........x.....
 2490 01050100 02047806 03010900 00010503  ......x.........
 24a0 00020407 0379092c 00010002 04070603  .....y.,........
 24b0 02090400 01030109 0c000103 00090000  ................
 24c0 01030009 00000100 02040406 037e0924  .............~.$
 24d0 00010002 04040603 01090400 01060300  ................
 24e0 09040001 0002043b 06030109 08000100  .......;........
 24f0 02043b03 00090000 01000204 3b030009  ..;.........;...
 2500 00000100 02043b03 00090800 01000204  ......;.........
 2510 3c030009 08000100 02043e03 00090800  <.........>.....
 2520 01000204 3e030009 1c000100 02044b03  ....>.........K.
 2530 00090400 01000204 4b030009 00000100  ........K.......
 2540 02044c03 00090800 01000204 4c030009  ..L.........L...
 2550 00000100 02044c03 00090000 01000204  ......L.........
 2560 4c030009 00000100 02044e03 00090c00  L.........N.....
 2570 01000204 4e030009 00000100 02044e03  ....N.........N.
 2580 00090000 01000204 4e030009 04000100  ........N.......
 2590 02044e03 00090800 01000204 4d030009  ..N.........M...
 25a0 04000100 02045d03 00090800 01000204  ......].........
 25b0 5d030009 00000100 02045d03 00090000  ].........].....
 25c0 01000204 5d030009 0c000106 03000904  ....]...........
 25d0 00010002 043f0603 00090800 01000204  .....?..........
 25e0 47060300 09180001 0002044a 03000908  G..........J....
 25f0 00010002 044a0603 00090c00 01060300  .....J..........
 2600 09080001 09340000 01012b0f 00000200  .....4....+.....
 2610 91000000 0101fb0e 0d000101 01010000  ................
 2620 00010000 012e2e2f 2e2e2f2e 2e2f2e2f  ......./../.././
 2630 72697363 762d6763 632f6c69 62676363  riscv-gcc/libgcc
 2640 2f736f66 742d6670 002e2e2f 2e2e2f2e  /soft-fp.../../.
 2650 2e2f2e2f 72697363 762d6763 632f6c69  ././riscv-gcc/li
 2660 62676363 2f2e2e2f 696e636c 75646500  bgcc/../include.
 2670 00737562 6466332e 63000100 00736f66  .subdf3.c....sof
 2680 742d6670 2e680001 0000646f 75626c65  t-fp.h....double
 2690 2e680001 00006c6f 6e676c6f 6e672e68  .h....longlong.h
 26a0 00020000 00050100 05024c10 00000323  ..........L....#
 26b0 01050303 01090000 01030009 00000105  ................
 26c0 0d030009 00000105 03030109 00000103  ................
 26d0 00090000 01030009 00000103 00090000  ................
 26e0 01030109 00000103 00090000 01030009  ................
 26f0 00000103 00090000 01030109 00000103  ................
 2700 00090000 01030009 00000103 00090000  ................
 2710 01030109 00000103 02090000 01030109  ................
 2720 00000103 00090000 01030009 00000103  ................
 2730 00090000 01030009 00000103 00090000  ................
 2740 01030009 0c000105 01060378 09080001  ...........x....
 2750 05030308 09040001 03010904 0001037f  ................
 2760 09040001 03010904 00010501 03770904  .............w..
 2770 00010503 03080908 00010603 00090400  ................
 2780 01030009 04000103 00090000 01030009  ................
 2790 00000103 00090000 01060301 09000001  ................
 27a0 05010377 09080001 05030309 090c0001  ...w............
 27b0 03010904 0001037e 09040001 06030009  .......~........
 27c0 04000103 01090000 01030009 00000103  ................
 27d0 00090000 01030009 00000103 00090000  ................
 27e0 01030009 00000103 00090000 01030009  ................
 27f0 00000103 00090400 01030009 00000103  ................
 2800 00090000 01030009 04000103 00090400  ................
 2810 01030109 00000103 00090000 01000204  ................
 2820 02060300 09040001 00020403 06030009  ................
 2830 08000100 02040b03 00090400 01000204  ................
 2840 0b030009 00000100 02040b03 00090000  ................
 2850 01000204 0b030009 00000100 02040b03  ................
 2860 00090000 01000204 0b030009 00000100  ................
 2870 02040c03 00090800 01000204 0c030009  ................
 2880 00000100 02040c03 00090000 01000204  ................
 2890 0e030009 04000100 02040e03 00090000  ................
 28a0 01000204 10030009 04000100 02041303  ................
 28b0 00090800 01000204 13030009 00000100  ................
 28c0 02041303 00090400 01000204 1c030009  ................
 28d0 04000100 02041c03 00090000 01000204  ................
 28e0 1c030009 00000100 02041c03 00090400  ................
 28f0 01000204 1c030009 0c000100 02041c03  ................
 2900 00090000 01000204 55030009 04000100  ........U.......
 2910 02045503 00090000 01000204 5506037f  ..U.........U...
 2920 09000001 00020455 03010904 00010002  .......U........
 2930 041d0603 00090400 01000304 a6030300  ................
 2940 09080001 000304a6 03030109 00000100  ................
 2950 0304a603 03000900 00010003 04a60303  ................
 2960 00090000 01000304 a6030300 09000001  ................
 2970 000304a6 03030009 00000100 02042503  ..............%.
 2980 00090800 01000204 25030009 00000100  ........%.......
 2990 02042503 00090000 01000204 25030009  ..%.........%...
 29a0 00000100 02042c03 00090c00 01000204  ......,.........
 29b0 2c030009 00000100 02042c03 00090000  ,.........,.....
 29c0 01000204 2c030009 04000100 02042c03  ....,.........,.
 29d0 00090800 01000204 11037f09 08000100  ................
 29e0 02042b03 00090800 01000204 34030009  ..+.........4...
 29f0 08000100 02043503 00090800 01000204  ......5.........
 2a00 37030009 08000100 02043703 00092000  7.........7... .
 2a10 01000204 45030009 04000100 02044503  ....E.........E.
 2a20 00090000 01000204 45030009 00000100  ........E.......
 2a30 02044503 00090400 01000204 45030009  ..E.........E...
 2a40 0c000100 02047f03 00090400 01000304  ................
 2a50 bb010300 09080001 000304bb 01030009  ................
 2a60 00000100 0304bb01 03000904 00010003  ................
 2a70 04bb0103 00090000 01000304 bb010300  ................
 2a80 09000001 000304bb 01030009 00000106  ................
 2a90 03000908 00010002 04380603 00092800  .........8....(.
 2aa0 01000204 3f060300 09140001 00020442  ....?..........B
 2ab0 0300090c 00010002 04420603 00090c00  .........B......
 2ac0 01000204 36060300 09000001 00020436  ....6..........6
 2ad0 06030009 08000100 02040f03 00090c00  ................
 2ae0 01000204 47030009 04000100 02044703  ....G.........G.
 2af0 00090400 01000204 47030009 00000100  ........G.......
 2b00 02044903 00090400 01000204 4c030009  ..I.........L...
 2b10 08000100 02044c03 00090000 01000204  ......L.........
 2b20 4c030009 04000100 02045503 00090400  L.........U.....
 2b30 01000204 55030009 00000100 02045503  ....U.........U.
 2b40 00090000 01000204 55030009 04000100  ........U.......
 2b50 02045603 00091000 0106037f 09080001  ..V.............
 2b60 0002044a 06030109 0c000100 02046403  ...J..........d.
 2b70 00090800 01000204 6d030009 0c000100  ........m.......
 2b80 02046e03 00090800 01000204 70030009  ..n.........p...
 2b90 08000100 02047003 00092000 01000204  ......p... .....
 2ba0 7e030009 04000100 02047e03 00090000  ~.........~.....
 2bb0 01000204 7e030009 00000100 02047e03  ....~.........~.
 2bc0 00090400 01000204 7e030009 0c000100  ........~.......
 2bd0 02047e06 037f0900 00010002 04710603  ..~..........q..
 2be0 01090800 01000204 78060300 09140001  ........x.......
 2bf0 0002047b 0300090c 00010002 047b0603  ...{.........{..
 2c00 00090c00 01000204 6f060300 09000001  ........o.......
 2c10 0002046f 06030009 08000100 02044803  ...o..........H.
 2c20 00090c00 01000304 80010300 090c0001  ................
 2c30 00030482 01030009 08000100 03048201  ................
 2c40 03000900 00010003 04850103 00090400  ................
 2c50 01000304 8b010300 09080001 0003048b  ................
 2c60 01030009 00000100 03048b01 03000900  ................
 2c70 00010003 048b0103 00090000 01000304  ................
 2c80 8b010300 09040001 0003048b 01030009  ................
 2c90 0c000100 03048b01 03000900 00010003  ................
 2ca0 048d0103 00090c00 01000304 8d010300  ................
 2cb0 090c0001 0003049e 01030009 08000100  ................
 2cc0 03049e01 03000900 00010003 049e0103  ................
 2cd0 00090000 01000304 9e010300 09000001  ................
 2ce0 0003049e 01030009 00000100 03049e01  ................
 2cf0 03000900 00010003 04a00103 00090400  ................
 2d00 01060300 09080001 00030481 01060300  ................
 2d10 09140001 00030481 01030009 00000100  ................
 2d20 03048101 03000900 00010003 04810103  ................
 2d30 00090000 01000304 81010300 09000001  ................
 2d40 00030481 01030009 00000100 03048101  ................
 2d50 03000900 00010003 04810103 00090000  ................
 2d60 01000304 81010300 09000001 00030481  ................
 2d70 01030009 00000106 03000908 00010002  ................
 2d80 040d0603 00092800 01000204 0d030009  ......(.........
 2d90 00000100 0304cd01 03000904 00010003  ................
 2da0 04cd0103 00090000 01000304 cd010300  ................
 2db0 09000001 000304cf 01030009 04000100  ................
 2dc0 0304d201 03000908 00010003 04d20103  ................
 2dd0 00090000 01000304 d2010300 09040001  ................
 2de0 000304db 01030009 04000100 0304db01  ................
 2df0 03000900 00010003 04db0103 00090000  ................
 2e00 01000304 db010300 09040001 000304db  ................
 2e10 01030009 0c000100 0304db01 03000900  ................
 2e20 00010003 04940206 037f0904 00010003  ................
 2e30 04940203 01090400 01000304 dc010603  ................
 2e40 00090400 01000304 f3010300 09080001  ................
 2e50 000304f4 01030009 08000100 0304f601  ................
 2e60 03000908 00010003 04f60103 00092000  .............. .
 2e70 01000304 84020300 09040001 00030484  ................
 2e80 02030009 00000100 03048402 03000900  ................
 2e90 00010003 04840203 00090400 01000304  ................
 2ea0 84020300 090c0001 000304be 02030009  ................
 2eb0 04000100 0304fa02 03000908 00010003  ................
 2ec0 04fa0203 00090000 01000304 d0010300  ................
 2ed0 09140001 000304ea 01030009 08000100  ................
 2ee0 0304f701 0300090c 00010003 04fe0106  ................
 2ef0 03000914 00010003 04810203 00090c00  ................
 2f00 01000304 81020603 00090c00 01000304  ................
 2f10 f5010603 00090000 01000304 f5010603  ................
 2f20 00090800 01000304 ce010300 090c0001  ................
 2f30 00030486 02030009 04000100 03048602  ................
 2f40 03000904 00010003 04860203 00090000  ................
 2f50 01000304 86020300 09000001 00030488  ................
 2f60 02030009 04000100 03048b02 03000908  ................
 2f70 00010003 048b0203 00090000 01000304  ................
 2f80 8b020300 09040001 00030494 02030009  ................
 2f90 04000100 03049402 03000900 00010003  ................
 2fa0 04940203 00090000 01000304 94020300  ................
 2fb0 09040001 00030494 02030009 0c000100  ................
 2fc0 03049402 03000900 00010003 04950203  ................
 2fd0 00090800 0106037f 09080001 03010908  ................
 2fe0 00010003 04890206 03000908 00010003  ................
 2ff0 04a30203 00090800 01000304 ac020300  ................
 3000 090c0001 000304ad 02030009 08000100  ................
 3010 0304af02 03000908 00010003 04af0203  ................
 3020 00092000 01000304 bd020300 09040001  .. .............
 3030 000304bd 02030009 00000100 0304bd02  ................
 3040 03000900 00010003 04bd0203 00090400  ................
 3050 01000304 bd020300 090c0001 000304bd  ................
 3060 0206037f 09000001 000304b0 02060301  ................
 3070 090c0001 000304b7 02060300 09140001  ................
 3080 000304ba 02030009 0c000100 0304ba02  ................
 3090 06030009 0c000100 0304ae02 06030009  ................
 30a0 00000100 0304ae02 06030009 08000100  ................
 30b0 03048702 0300090c 00010003 04bf0203  ................
 30c0 00090c00 01000304 c1020300 090c0001  ................
 30d0 000304c1 02030009 00000100 0304c302  ................
 30e0 03000904 00010003 04c30203 00090000  ................
 30f0 0106037f 09040001 000304c4 02060301  ................
 3100 09100001 000304cb 02030009 04000100  ................
 3110 0304cb02 03000900 00010003 04cb0203  ................
 3120 00090000 01000304 cb020300 09000001  ................
 3130 000304cb 02030009 04000100 0304cb02  ................
 3140 0300090c 00010003 04cb0203 00090000  ................
 3150 01000304 cb020300 09000001 000304cd  ................
 3160 02030009 08000100 0304cd02 03000900  ................
 3170 00010003 04cd0203 00090000 01000304  ................
 3180 cd020300 09040001 000304cd 02030009  ................
 3190 0c000100 0304cd02 03000900 00010003  ................
 31a0 04ce0203 00090400 01060300 09080001  ................
 31b0 000304e1 02060300 090c0001 000304e1  ................
 31c0 02030009 00000100 0304e102 03000900  ................
 31d0 00010003 04e10203 00090000 01000304  ................
 31e0 e1020300 09000001 000304e1 02030009  ................
 31f0 00000100 0304e202 03000904 00010603  ................
 3200 7f090400 01030109 08000100 0304e302  ................
 3210 06030009 0c000100 0304c002 03000908  ................
 3220 00010003 04c00203 00090000 01000304  ................
 3230 c0020300 09000001 000304c0 02030009  ................
 3240 00000100 0304c002 03000904 00010003  ................
 3250 04c00203 00090c00 01000304 c0020300  ................
 3260 09000001 000304c0 02030009 00000100  ................
 3270 0304f302 03000908 00010003 04f30203  ................
 3280 00090000 01000304 f3020300 09000001  ................
 3290 000304f3 02030009 04000100 0304f302  ................
 32a0 0300090c 00010003 04f30203 00090000  ................
 32b0 01000304 fc020300 09040001 000304fc  ................
 32c0 02030009 00000100 0304ff02 03000904  ................
 32d0 00010003 04ff0203 00090000 01000304  ................
 32e0 ff020300 09000001 000304ff 02030009  ................
 32f0 00000100 03048a03 03000908 00010003  ................
 3300 048a0303 00090400 01000304 8b030300  ................
 3310 09080001 0003048b 03030009 00000100  ................
 3320 03048b03 03000914 00010003 04940303  ................
 3330 00090400 01000304 95030300 09040001  ................
 3340 00030495 03030009 08000100 03049703  ................
 3350 03000908 00010003 04970303 00092000  .............. .
 3360 01000304 a3030603 00090400 01000304  ................
 3370 f4020603 00090800 01060300 090c0001  ................
 3380 00030483 03060300 09080001 00030483  ................
 3390 03030009 00000100 03048303 03000900  ................
 33a0 00010003 04830303 00090000 01000304  ................
 33b0 83030300 09080001 0003048c 03030009  ................
 33c0 08000100 03048c03 03000908 00010003  ................
 33d0 04980303 00090800 01000304 a0030603  ................
 33e0 00091400 01000304 a3030300 090c0001  ................
 33f0 000304a3 03060300 090c0001 00030496  ................
 3400 03030009 08000100 03049603 0300090c  ................
 3410 00010603 7f090800 01030109 08000103  ................
 3420 7f090800 01000204 2f060302 09180001  ......../.......
 3430 0002042f 03000900 00010002 043f0300  .../.........?..
 3440 09080001 0002043f 03000900 00010002  .......?........
 3450 043f0300 09040001 06030009 08000100  .?..............
 3460 02044f06 0300090c 00010002 044f0300  ..O..........O..
 3470 09000001 0002044f 0300090c 00010002  .......O........
 3480 044f0300 09080001 00020450 06030009  .O.........P....
 3490 04000103 00090c00 01000204 5a060300  ............Z...
 34a0 090c0001 0002045a 03000900 00010002  .......Z........
 34b0 045a0300 09000001 0002045a 03000900  .Z.........Z....
 34c0 00010002 045a0300 09000001 0002045a  .....Z.........Z
 34d0 03000900 00010002 045a0300 09000001  .........Z......
 34e0 05010002 045a0603 04090c00 01050300  .....Z..........
 34f0 02045a03 7c090800 01000204 5a060301  ..Z.|.......Z...
 3500 09100001 0002045a 03000900 00010002  .......Z........
 3510 045a0302 09000001 05010002 045a0603  .Z...........Z..
 3520 01090000 01050303 7a091800 01030109  ........z.......
 3530 08000109 3c000001 01150200 00020092  ....<...........
 3540 00000001 01fb0e0d 00010101 01000000  ................
 3550 01000001 2e2e2f2e 2e2f2e2e 2f2e2f72  ....../../.././r
 3560 69736376 2d676363 2f6c6962 6763632f  iscv-gcc/libgcc/
 3570 736f6674 2d667000 2e2e2f2e 2e2f2e2e  soft-fp.../../..
 3580 2f2e2f72 69736376 2d676363 2f6c6962  /./riscv-gcc/lib
 3590 6763632f 2e2e2f69 6e636c75 64650000  gcc/../include..
 35a0 66697864 6673692e 63000100 00736f66  fixdfsi.c....sof
 35b0 742d6670 2e680001 0000646f 75626c65  t-fp.h....double
 35c0 2e680001 00006c6f 6e676c6f 6e672e68  .h....longlong.h
 35d0 00020000 00050100 05021018 00000323  ...............#
 35e0 01050303 01090000 01030009 00000105  ................
 35f0 0d030009 00000105 03030109 00000103  ................
 3600 00090000 01030009 00000103 00090000  ................
 3610 01030109 00000103 02090000 01030109  ................
 3620 00000103 00090000 01030009 00000103  ................
 3630 00090000 01030009 00000106 03010910  ................
 3640 0001037f 09040001 06030009 04000103  ................
 3650 00090000 01030109 04000103 00090000  ................
 3660 01000204 0a030009 04000100 02040a03  ................
 3670 00090000 01000204 0d030009 08000100  ................
 3680 02040d03 00090000 01000204 0d030009  ................
 3690 00000100 02040d03 00090000 01000204  ................
 36a0 0d030009 0c000100 02040c03 00090400  ................
 36b0 01000204 0c030009 00000100 02040c03  ................
 36c0 00090400 01000204 0c030009 00000100  ................
 36d0 02041d03 00091000 01000204 1d030009  ................
 36e0 00000100 02041d03 00091000 01000204  ................
 36f0 2a030009 00000100 02042a03 00090000  *.........*.....
 3700 01000204 2c030009 04000100 02042903  ....,.........).
 3710 00090800 01000204 29030009 00000100  ........).......
 3720 02042903 00090c00 01060300 09040001  ..).............
 3730 06030109 04000103 00090000 01030209  ................
 3740 00000105 01060301 09000001 09040000  ................
 3750 01012502 00000200 94000000 0101fb0e  ..%.............
 3760 0d000101 01010000 00010000 012e2e2f  .............../
 3770 2e2e2f2e 2e2f2e2f 72697363 762d6763  ../.././riscv-gc
 3780 632f6c69 62676363 2f736f66 742d6670  c/libgcc/soft-fp
 3790 002e2e2f 2e2e2f2e 2e2f2e2f 72697363  .../../.././risc
 37a0 762d6763 632f6c69 62676363 2f2e2e2f  v-gcc/libgcc/../
 37b0 696e636c 75646500 00666c6f 61747369  include..floatsi
 37c0 64662e63 00010000 736f6674 2d66702e  df.c....soft-fp.
 37d0 68000100 00646f75 626c652e 68000100  h....double.h...
 37e0 006c6f6e 676c6f6e 672e6800 02000000  .longlong.h.....
 37f0 05010005 02901800 00032401 05030301  ..........$.....
 3800 09000001 03000900 00010300 09000001  ................
 3810 03000900 00010301 09000001 03020900  ................
 3820 00010300 09000001 05010603 7c090000  ............|...
 3830 01050303 04091000 01000204 01060300  ................
 3840 09040001 00020401 03000900 00010002  ................
 3850 04010300 09100001 00020401 03000900  ................
 3860 00010002 04010300 09000001 00020401  ................
 3870 03000900 00010002 04010300 09000001  ................
 3880 00020401 03000900 00010002 04010300  ................
 3890 09000001 00020401 03000908 00010002  ................
 38a0 04010300 090c0001 00020401 03000900  ................
 38b0 00010002 04010300 09000001 00020401  ................
 38c0 03000900 00010002 04010300 09000001  ................
 38d0 00020401 03000900 00010002 04010300  ................
 38e0 09000001 00020417 03000904 00010002  ................
 38f0 04170300 09000001 00020417 03000910  ................
 3900 00010002 04170300 09040001 03010900  ................
 3910 00010300 09000001 03000900 00010300  ................
 3920 09000001 03000900 00010300 09000001  ................
 3930 03000900 00010501 06030309 0c000105  ................
 3940 03037d09 0c000106 03020910 00010501  ..}.............
 3950 06030109 00000105 03000204 1806037c  ...............|
 3960 09100001 00020418 03000908 00010603  ................
 3970 00090800 01091400 0001018e 00000002  ................
 3980 00480000 000101fb 0e0d0001 01010100  .H..............
 3990 00000100 00012e2e 2f2e2e2f 2e2e2f2e  ......../../../.
 39a0 2f726973 63762d67 63632f6c 69626763  /riscv-gcc/libgc
 39b0 632f636f 6e666967 2f726973 63760000  c/config/riscv..
 39c0 6d756c64 69332e53 00010000 00000502  muldi3.S........
 39d0 3c190000 03240103 01090400 01030209  <....$..........
 39e0 04000103 01090400 01030109 04000103  ................
 39f0 02090400 01030109 04000103 01090400  ................
 3a00 01030109 04000109 04000001 01750200  .............u..
 3a10 000200ed 01000001 01fb0e0d 00010101  ................
 3a20 01000000 01000001 2e2e2f2e 2e2f2e2e  ........../../..
 3a30 2f2e2f72 69736376 2d676363 2f6c6962  /./riscv-gcc/lib
 3a40 67636300 2f686f6d 652f7374 7564656e  gcc./home/studen
 3a50 742f6c6f 63616c2f 72697363 7633322d  t/local/riscv32-
 3a60 756e6b6e 6f776e2d 656c662f 696e636c  unknown-elf/incl
 3a70 7564652f 73797300 2f686f6d 652f7374  ude/sys./home/st
 3a80 7564656e 742f7269 7363762d 746f6f6c  udent/riscv-tool
 3a90 732f7269 7363762d 676e752d 746f6f6c  s/riscv-gnu-tool
 3aa0 63686169 6e2f6275 696c642d 6763632d  chain/build-gcc-
 3ab0 6e65776c 69622d73 74616765 322f6763  newlib-stage2/gc
 3ac0 632f696e 636c7564 65002f68 6f6d652f  c/include./home/
 3ad0 73747564 656e742f 6c6f6361 6c2f7269  student/local/ri
 3ae0 73637633 322d756e 6b6e6f77 6e2d656c  scv32-unknown-el
 3af0 662f696e 636c7564 65002e2e 2f2e2e2f  f/include.../../
 3b00 2e2e2f2e 2f726973 63762d67 63632f6c  .././riscv-gcc/l
 3b10 69626763 632f2e2e 2f696e63 6c756465  ibgcc/../include
 3b20 002e2e2f 2e2e2f2e 2e2f2e2f 72697363  .../../.././risc
 3b30 762d6763 632f6c69 62676363 2f2e2e2f  v-gcc/libgcc/../
 3b40 6763632f 636f6e66 69672f72 69736376  gcc/config/riscv
 3b50 002e2e2f 2e2e2f2e 2f676363 00006c69  .../.././gcc..li
 3b60 62676363 322e6300 0100006c 6f636b2e  bgcc2.c....lock.
 3b70 68000200 005f7479 7065732e 68000200  h...._types.h...
 3b80 00737464 6465662e 68000300 00726565  .stddef.h....ree
 3b90 6e742e68 00020000 6572726e 6f2e6800  nt.h....errno.h.
 3ba0 02000073 74646c69 622e6800 04000075  ...stdlib.h....u
 3bb0 6e697374 642e6800 02000074 696d652e  nistd.h....time.
 3bc0 68000400 00686173 68746162 2e680005  h....hashtab.h..
 3bd0 00007269 7363762d 6f707473 2e680006  ..riscv-opts.h..
 3be0 0000696e 736e2d63 6f6e7374 616e7473  ..insn-constants
 3bf0 2e680007 00006c69 62676363 322e6800  .h....libgcc2.h.
 3c00 01000000 05010005 02601900 0003c205  .........`......
 3c10 01050303 01090000 01030209 00000103  ................
 3c20 00090000 01030009 00000103 00090000  ................
 3c30 01030009 00000100 02040306 03000908  ................
 3c40 00010002 040e0603 00090c00 01000204  ................
 3c50 0e030209 00000100 02040e06 037e0900  .............~..
 3c60 00010501 0002040e 03030918 00010503  ................
 3c70 00020404 037d0908 00010300 090c0001  .....}..........
 3c80 09080000 0101f301 00000200 ed010000  ................
 3c90 0101fb0e 0d000101 01010000 00010000  ................
 3ca0 012f686f 6d652f73 74756465 6e742f6c  ./home/student/l
 3cb0 6f63616c 2f726973 63763332 2d756e6b  ocal/riscv32-unk
 3cc0 6e6f776e 2d656c66 2f696e63 6c756465  nown-elf/include
 3cd0 2f737973 002f686f 6d652f73 74756465  /sys./home/stude
 3ce0 6e742f72 69736376 2d746f6f 6c732f72  nt/riscv-tools/r
 3cf0 69736376 2d676e75 2d746f6f 6c636861  iscv-gnu-toolcha
 3d00 696e2f62 75696c64 2d676363 2d6e6577  in/build-gcc-new
 3d10 6c69622d 73746167 65322f67 63632f69  lib-stage2/gcc/i
 3d20 6e636c75 6465002f 686f6d65 2f737475  nclude./home/stu
 3d30 64656e74 2f6c6f63 616c2f72 69736376  dent/local/riscv
 3d40 33322d75 6e6b6e6f 776e2d65 6c662f69  32-unknown-elf/i
 3d50 6e636c75 6465002e 2e2f2e2e 2f2e2e2f  nclude.../../../
 3d60 2e2f7269 7363762d 6763632f 6c696267  ./riscv-gcc/libg
 3d70 63632f2e 2e2f696e 636c7564 65002e2e  cc/../include...
 3d80 2f2e2e2f 2e2e2f2e 2f726973 63762d67  /../.././riscv-g
 3d90 63632f6c 69626763 632f2e2e 2f676363  cc/libgcc/../gcc
 3da0 2f636f6e 6669672f 72697363 76002e2e  /config/riscv...
 3db0 2f2e2e2f 2e2f6763 63002e2e 2f2e2e2f  /.././gcc.../../
 3dc0 2e2e2f2e 2f726973 63762d67 63632f6c  .././riscv-gcc/l
 3dd0 69626763 6300006c 6f636b2e 68000100  ibgcc..lock.h...
 3de0 005f7479 7065732e 68000100 00737464  ._types.h....std
 3df0 6465662e 68000200 00726565 6e742e68  def.h....reent.h
 3e00 00010000 6572726e 6f2e6800 01000073  ....errno.h....s
 3e10 74646c69 622e6800 03000075 6e697374  tdlib.h....unist
 3e20 642e6800 01000074 696d652e 68000300  d.h....time.h...
 3e30 00686173 68746162 2e680004 00007269  .hashtab.h....ri
 3e40 7363762d 6f707473 2e680005 0000696e  scv-opts.h....in
 3e50 736e2d63 6f6e7374 616e7473 2e680006  sn-constants.h..
 3e60 00006c69 62676363 322e6800 0700006c  ..libgcc2.h....l
 3e70 69626763 63322e63 00070000 00        ibgcc2.c.....   
Contents of section .debug_info:
 0000 22000000 02000000 00000401 00000000  "...............
 0010 00000000 10000000 00000000 0b000000  ................
 0020 2c000000 0180580c 00000400 14000000  ,.....X.........
 0030 04019602 00000c3a 0000000b 00000078  .......:.......x
 0040 00000000 00000045 00000002 0405696e  .......E......in
 0050 74000325 00000004 04079200 00000408  t..%............
 0060 05f70000 00041004 230c0000 04010659  ........#......Y
 0070 03000004 01085703 00000402 05730300  ......W......s..
 0080 00040207 3e020000 040405fc 00000004  ....>...........
 0090 04078d00 00000408 07880000 00054503  ..............E.
 00a0 0000020c 0d250000 00051e03 0000032c  .....%.........,
 00b0 0e620000 00052f04 00000372 0e620000  .b..../....r.b..
 00c0 00050205 00000391 17250000 00068102  .........%......
 00d0 00000465 01173100 00000704 03a603d6  ...e..1.........
 00e0 00000008 7b020000 03a80ca7 00000008  ....{...........
 00f0 ff010000 03a913d6 00000000 094d0000  .............M..
 0100 00e60000 000a3100 00000300 0b0803a3  ......1.........
 0110 090a0100 000c1904 000003a5 07250000  .............%..
 0120 00000c21 04000003 aa05b400 00000400  ...!............
 0130 059b0300 0003ab03 e6000000 05c20100  ................
 0140 0003af1b 77000000 0d040e04 2a010000  ....w.......*...
 0150 04010860 0300000f 2a010000 05790400  ...`....*....y..
 0160 00051619 69000000 10d30100 0018052f  ....i........../
 0170 089c0100 000cbc03 00000531 139c0100  ...........1....
 0180 0000115f 6b000532 07250000 00040c04  ..._k..2.%......
 0190 04000005 320b2500 0000080c bc010000  ....2.%.........
 01a0 05321425 0000000c 0cdd0400 0005321b  .2.%..........2.
 01b0 25000000 10115f78 0005330b a2010000  %....._x..3.....
 01c0 14000e04 42010000 09360100 00b20100  ....B....6......
 01d0 000a3100 00000000 10fa0100 00240537  ..1..........$.7
 01e0 08350200 000cee00 00000539 09250000  .5.........9.%..
 01f0 00000c46 04000005 3a092500 0000040c  ...F....:.%.....
 0200 21010000 053b0925 00000008 0c750500  !....;.%.....u..
 0210 00053c09 25000000 0c0cfc02 0000053d  ..<.%..........=
 0220 09250000 00100ccb 02000005 3e092500  .%..........>.%.
 0230 0000140c e2040000 053f0925 00000018  .........?.%....
 0240 0c7d0300 00054009 25000000 1c0c3705  .}....@.%.....7.
 0250 00000541 09250000 00200012 35010000  ...A.%... ..5...
 0260 0801054a 087a0200 000caf01 0000054b  ...J.z.........K
 0270 0a7a0200 00000c1e 02000005 4c097a02  .z..........L.z.
 0280 00008013 62040000 054e0a36 01000000  ....b....N.6....
 0290 01135a01 00000551 0a360100 00040100  ..Z....Q.6......
 02a0 09220100 008a0200 000a3100 00001f00  ."........1.....
 02b0 12050300 00900105 5d08cd02 00000cbc  ........].......
 02c0 03000005 5e12cd02 0000000c d4030000  ....^...........
 02d0 055f0625 00000004 0cb70100 00056109  ._.%..........a.
 02e0 d3020000 080c3501 00000562 1e350200  ......5....b.5..
 02f0 0088000e 048a0200 0009e302 0000e302  ................
 0300 00000a31 0000001f 000e04e9 02000014  ...1............
 0310 10870300 00080575 08120300 000c1b01  .......u........
 0320 00000576 11120300 00000c44 00000005  ...v.......D....
 0330 77062500 00000400 0e044d00 000010a6  w.%.......M.....
 0340 03000068 05b5085b 04000011 5f700005  ...h...[...._p..
 0350 b6121203 00000011 5f720005 b7072500  ........_r....%.
 0360 00000411 5f770005 b8072500 0000080c  ...._w....%.....
 0370 53010000 05b90954 0000000c 0cd70400  S......T........
 0380 0005ba09 54000000 0e115f62 660005bb  ....T....._bf...
 0390 11ea0200 00100cae 00000005 bc072500  ..............%.
 03a0 0000180c 43010000 05c30a22 0100001c  ....C......"....
 03b0 0cea0100 0005c51d cd050000 200cc402  ............ ...
 03c0 000005c7 1df70500 00240c29 04000005  .........$.)....
 03d0 ca0d1b06 0000280c 51050000 05cb0935  ......(.Q......5
 03e0 0600002c 115f7562 0005ce11 ea020000  ...,._ub........
 03f0 30115f75 700005cf 12120300 0038115f  0._up........8._
 0400 75720005 d0072500 00003c0c 0f010000  ur....%...<.....
 0410 05d3113b 06000040 0c290500 0005d411  ...;...@.)......
 0420 4b060000 43115f6c 620005d7 11ea0200  K...C._lb.......
 0430 00440c77 01000005 da072500 00004c0c  .D.w......%...L.
 0440 88010000 05db0a83 00000050 0c620000  ...........P.b..
 0450 0005de12 79040000 540c8802 000005e2  ....y...T.......
 0460 0c160100 00580cae 03000005 e40e0a01  .....X..........
 0470 00005c0c 8e020000 05e50925 00000064  ..\........%...d
 0480 00159b00 00007904 00001679 04000016  ......y....y....
 0490 22010000 16240100 00162500 0000000e  "....$....%.....
 04a0 04840400 000f7904 0000170c 04000028  ......y........(
 04b0 04053902 08cd0500 00186c03 0000053b  ..9.......l....;
 04c0 02072500 00000018 62010000 0540020b  ..%.....b....@..
 04d0 a7060000 04180602 00000540 0214a706  ...........@....
 04e0 00000818 cb010000 0540021e a7060000  .........@......
 04f0 0c18cf03 00000542 02082500 00001018  .......B..%.....
 0500 57000000 05430208 a7080000 1418eb03  W....C..........
 0510 00000546 02072500 00003018 d9030000  ...F..%...0.....
 0520 05470216 bc080000 34181303 00000549  .G......4......I
 0530 02072500 00003818 e1030000 054b020a  ..%...8......K..
 0540 cd080000 3c187302 0000054e 02139c01  ....<.s....N....
 0550 00004018 f0010000 054f0207 25000000  ..@......O..%...
 0560 44186b05 00000550 02139c01 00004818  D.k....P......H.
 0570 31030000 05510214 d3080000 4c180e02  1....Q......L...
 0580 00000554 02072500 00005018 80010000  ...T..%...P.....
 0590 05550209 24010000 54186503 00000578  .U..$...T.e....x
 05a0 02078208 00005819 05030000 057c0213  ......X......|..
 05b0 cd020000 48011951 02000005 7d02128a  ....H..Q....}...
 05c0 0200004c 01191505 00000581 020ce408  ...L............
 05d0 0000dc02 194b0100 00058602 10680600  .....K.......h..
 05e0 00e00219 30010000 0588020a f0080000  ....0...........
 05f0 ec02000e 045b0400 00159b00 0000f105  .....[..........
 0600 00001679 04000016 22010000 16f10500  ...y....".......
 0610 00162500 0000000e 04310100 000e04d3  ..%......1......
 0620 05000015 8f000000 1b060000 16790400  .............y..
 0630 00162201 0000168f 00000016 25000000  ..".........%...
 0640 000e04fd 05000015 25000000 35060000  ........%...5...
 0650 16790400 00162201 0000000e 04210600  .y...."......!..
 0660 00094d00 00004b06 00000a31 00000002  ..M...K....1....
 0670 00094d00 00005b06 00000a31 00000000  ..M...[....1....
 0680 00069403 0000051f 011a1803 00001aec  ................
 0690 0400000c 05230108 a1060000 18bc0300  .....#..........
 06a0 00052501 11a10600 00001837 02000005  ..%........7....
 06b0 26010725 00000004 188e0300 00052701  &..%..........'.
 06c0 0ba70600 0008000e 04680600 000e045b  .........h.....[
 06d0 0600001a 4f000000 0e053f01 08e60600  ....O.....?.....
 06e0 00181304 00000540 0112e606 00000018  .......@........
 06f0 4f040000 05410112 e6060000 06187404  O....A........t.
 0700 00000542 01125b00 00000c00 095b0000  ...B..[......[..
 0710 00f60600 000a3100 00000200 1bd00559  ......1........Y
 0720 02070b08 000018c5 04000005 5b021831  ............[..1
 0730 00000000 18550400 00055c02 12240100  .....U....\..$..
 0740 00041866 02000005 5d02100b 08000008  ...f....].......
 0750 18420500 00055e02 17b20100 002418db  .B....^......$..
 0760 01000005 5f020f25 00000048 18b70300  ...._..%...H....
 0770 00056002 2c700000 00501858 05000005  ..`.,p...P.X....
 0780 61021aad 06000058 18c20300 00056202  a......X......b.
 0790 160a0100 0068185d 05000005 6302160a  .....h.]....c...
 07a0 01000070 18e00000 00056402 160a0100  ...p......d.....
 07b0 0078180b 05000005 6502101b 08000080  .x......e.......
 07c0 185a0200 00056602 102b0800 00881881  .Z....f..+......
 07d0 04000005 67020f25 000000a0 18a10100  ....g..%........
 07e0 00056802 160a0100 00a418d1 00000005  ..h.............
 07f0 6902160a 010000ac 18900100 00056a02  i.............j.
 0800 160a0100 00b41868 00000005 6b02160a  .......h....k...
 0810 010000bc 18770000 00056c02 160a0100  .....w....l.....
 0820 00c4186a 03000005 6d020825 000000cc  ...j....m..%....
 0830 00092a01 00001b08 00000a31 00000019  ..*........1....
 0840 00092a01 00002b08 00000a31 00000007  ..*...+....1....
 0850 00092a01 00003b08 00000a31 00000017  ..*...;....1....
 0860 001bf005 72020762 08000018 ed020000  ....r..b........
 0870 0575021b 62080000 0018d502 00000576  .u..b..........v
 0880 02187208 00007800 09120300 00720800  ..r...x......r..
 0890 000a3100 00001d00 09310000 00820800  ..1......1......
 08a0 000a3100 00001d00 1cf00557 0203a708  ..1........W....
 08b0 00001d0c 04000005 6e020bf6 0600001d  ........n.......
 08c0 2f050000 0577020b 3b080000 00092a01  /....w..;.....*.
 08d0 0000b708 00000a31 00000018 001eb700  .......1........
 08e0 00000e04 b7080000 1fcd0800 00167904  ..............y.
 08f0 0000000e 04c20800 000e049c 0100001f  ................
 0900 e4080000 16250000 00000e04 ea080000  .....%..........
 0910 0e04d908 0000095b 06000000 0900000a  .......[........
 0920 31000000 020020a6 04000005 07031779  1..... ........y
 0930 04000020 9f040000 0508031d 7f040000  ... ............
 0940 040404ee 0c000004 0804280c 0000218e  ..........(...!.
 0950 04000005 04250000 00068202 06540900  .....%.......T..
 0960 0022b204 00007f23 69010000 0023c200  .".....#i....#..
 0970 00000123 9f000000 020020f2 04000006  ...#...... .....
 0980 8d022328 09000024 d2040000 01501b79  ..#(...$.....P.y
 0990 09000005 03142600 000e042c 0000000f  ......&....,....
 09a0 73090000 24050100 0001521a 79090000  s...$.....R.y...
 09b0 05031026 00002570 05000001 5506a01d  ...&..%p....U...
 09c0 00002004 0000019c 1b0b0000 26250300  .. .........&%..
 09d0 0001580c 21090000 08000000 00000040  ..X.!..........@
 09e0 40276e00 01590925 00000020 283b0300  @'n..Y.%... (;..
 09f0 00015a0c 1b0b0000 00000000 28150100  ..Z.........(...
 0a00 00015b0c 2c0b0000 47000000 29000000  ..[.,...G...)...
 0a10 002a2f02 00000160 0c3d0b00 000391c0  .*/....`.=......
 0a20 792a1602 00000161 0c3d0b00 000391c0  y*.....a.=......
 0a30 7a28f402 00000171 14210900 008e0000  z(.....q.!......
 0a40 0028de02 00000172 0d250000 00b60000  .(.....r.%......
 0a50 002a6b04 0000017e 0d250000 00015a2b  .*k....~.%....Z+
 0a60 60000000 510a0000 2c690001 640d2500  `...Q...,i..d.%.
 0a70 0000e000 0000002b 38000000 690a0000  .......+8...i...
 0a80 2c6a0001 73152500 00002101 0000002d  ,j..s.%...!....-
 0a90 4d0b0000 f41e0000 24020000 0168092e  M.......$....h..
 0aa0 5a0b0000 40010000 2e880b00 00550100  Z...@........U..
 0ab0 002e7c0b 00008401 00002e70 0b0000b3  ..|........p....
 0ac0 0100002e 640b0000 e2010000 2ff41e00  ....d......./...
 0ad0 00240200 0030940b 00001102 000030a0  .$...0........0.
 0ae0 0b000025 02000030 ac0b0000 3a020000  ...%...0....:...
 0af0 30b80b00 00520200 0030c40b 00006a02  0....R...0....j.
 0b00 000030d0 0b00007f 02000030 dc0b0000  ..0........0....
 0b10 97020000 30e60b00 00c60200 0030f00b  ....0........0..
 0b20 0000e502 000031fa 0b000030 040c0000  ......1....0....
 0b30 f8020000 300f0c00 00180300 00000000  ....0...........
 0b40 00092109 00002c0b 00003231 00000001  ..!...,...21....
 0b50 4f000921 0900003d 0b000032 31000000  O..!...=...21...
 0b60 014f0009 21090000 4d0b0000 0a310000  .O..!...M....1..
 0b70 000f0033 66667400 011a0d01 1a0c0000  ...3fft.........
 0b80 346e0001 1a152500 0000352a 02000001  4n....%...5*....
 0b90 1a201a0c 0000352b 01000001 1a2e1a0c  . ....5+........
 0ba0 0000351f 05000001 1a3c1a0c 00003537  ..5......<....57
 0bb0 04000001 1a4a1a0c 00003641 04000001  .....J....6A....
 0bc0 1c0a2109 000036e8 02000001 1c102109  ..!...6.......!.
 0bd0 00003624 05000001 1c162109 0000363c  ..6$......!...6<
 0be0 04000001 1c1c2109 0000364a 00000001  ......!...6J....
 0bf0 1c222109 000036c0 04000001 1c282109  ."!...6......(!.
 0c00 0000376d 00011d07 25000000 37670001  ..7m....%...7g..
 0c10 1d0a2500 00003762 00011d0d 25000000  ..%...7b....%...
 0c20 37690001 1e072500 0000376d 7400011e  7i....%...7mt...
 0c30 0a250000 00376b00 011e0e25 00000000  .%...7k....%....
 0c40 0e042109 0000380d 03000001 06060144  ..!...8........D
 0c50 0c000034 74000106 10250000 00393769  ...4t....%...97i
 0c60 0001080a 25000000 00003a20 0c000030  ....%.....: ...0
 0c70 01000004 00000001 9c3b2d0c 0000015a  .........;-....Z
 0c80 0000a105 00000400 34030000 04014607  ........4.....F.
 0c90 00000c30 06000096 06000034 010000c0  ...0.......4....
 0ca0 07000099 05000002 0804280c 00000304  ..........(.....
 0cb0 05696e74 00020106 59030000 020805f7  .int....Y.......
 0cc0 00000004 1e060000 024a0116 53000000  .........J..S...
 0cd0 05410000 00020108 57030000 02040792  .A......W.......
 0ce0 00000002 08078800 00000202 073e0200  .............>..
 0cf0 00064e00 00007f00 0000075a 000000ff  ..N........Z....
 0d00 00056f00 00000826 06000004 3c167f00  ..o....&....<...
 0d10 000009ac 05000003 480f2500 00000a08  ........H.%.....
 0d20 034f03e6 0000000b 8d050000 03570e5a  .O...........W.Z
 0d30 00000004 2000000b 93050000 03580e5a  .... ........X.Z
 0d40 00000004 140c040c 65787000 03590e5a  ........exp..Y.Z
 0d50 00000004 0b01040b bd010000 035a0e5a  .............Z.Z
 0d60 00000004 01000400 0d3a0700 0008034c  .........:.....L
 0d70 070c0100 000e666c 7400034e 0a900000  ......flt..N....
 0d80 000f0408 0000035c 059c0000 00001084  .......\........
 0d90 05000001 23019000 00003401 0000c007  ....#.....4.....
 0da0 0000019c 96050000 11610001 23129000  .........a..#...
 0db0 00002c03 00001162 0001231c 90000000  ..,....b..#.....
 0dc0 54030000 12f50500 00012503 2c000000  T.........%.,...
 0dd0 7c030000 13090800 00012503 2c000000  |.........%.,...
 0de0 0014415f 63000126 03960500 0015415f  ..A_c..&......A_
 0df0 73000126 03960500 00cc0300 0015415f  s..&..........A_
 0e00 65000126 03960500 006e0400 00121906  e..&.....n......
 0e10 00000126 039d0500 00720500 0012eb05  ...&.....r......
 0e20 00000126 039d0500 00da0600 0014425f  ...&..........B_
 0e30 63000127 03960500 0015425f 73000127  c..'......B_s..'
 0e40 03960500 00650800 0015425f 65000127  .....e....B_e..'
 0e50 03960500 00db0800 00125d06 00000127  ..........]....'
 0e60 039d0500 00670900 00126206 00000127  .....g....b....'
 0e70 039d0500 00770a00 0014525f 63000128  .....w....R_c..(
 0e80 03960500 0015525f 73000128 03960500  ......R_s..(....
 0e90 00ed0a00 0015525f 65000128 03960500  ......R_e..(....
 0ea0 009a0b00 0012bc05 00000128 039d0500  ...........(....
 0eb0 00120d00 00120e08 00000128 039d0500  ...........(....
 0ec0 00980f00 00147200 01290a90 00000016  ......r..)......
 0ed0 90000000 63020000 17c10500 00012c03  ....c.........,.
 0ee0 e6000000 0016b800 00007902 000017c1  ..........y.....
 0ef0 05000001 2d03e600 00000016 08010000  ....-...........
 0f00 63030000 18f50700 00012e03 f4010000  c...............
 0f10 18fa0700 00012e03 10030000 18ff0700  ................
 0f20 00012e03 3c020000 18b30500 00012e03  ....<...........
 0f30 e8030000 12230700 00012e03 2c000000  .....#......,...
 0f40 91110000 16580100 00dc0200 00155f5f  .....X........__
 0f50 7800012e 039d0500 006a1200 00001928  x........j.....(
 0f60 02000014 000000fa 02000015 5f5f7800  ............__x.
 0f70 012e039d 0500007d 12000000 16700100  .......}.....p..
 0f80 00140300 00155f5f 7800012e 039d0500  ......__x.......
 0f90 00901200 00001944 03000010 00000032  .......D.......2
 0fa0 03000015 5f5f7800 012e039d 050000a3  ....__x.........
 0fb0 12000000 16880100 004c0300 00155f5f  .........L....__
 0fc0 7800012e 039d0500 00b61200 00001aa0  x...............
 0fd0 01000015 5f5f7800 012e039d 050000c9  ....__x.........
 0fe0 12000000 0016b801 0000b704 000018f0  ................
 0ff0 05000001 2e039c04 0000187f 05000001  ................
 1000 2e03b805 000018fa 05000001 2e03e404  ................
 1010 00001814 06000001 2e030807 000018ec  ................
 1020 07000001 2e03e803 00001223 07000001  ...........#....
 1030 2e032c00 0000fc12 00001618 020000d2  ..,.............
 1040 03000015 5f5f7800 012e039d 050000f9  ....__x.........
 1050 13000000 19d00400 00140000 00f00300  ................
 1060 00155f5f 7800012e 039d0500 000c1400  ..__x...........
 1070 00001974 05000010 0000000e 04000015  ...t............
 1080 5f5f7800 012e039d 0500001f 14000000  __x.............
 1090 19ec0500 00100000 002c0400 00155f5f  .........,....__
 10a0 7800012e 039d0500 00321400 00001650  x........2.....P
 10b0 02000046 04000015 5f5f7800 012e039d  ...F....__x.....
 10c0 05000045 14000000 19940600 00100000  ...E............
 10d0 00640400 00155f5f 7800012e 039d0500  .d....__x.......
 10e0 00631400 000019dc 06000010 00000082  .c..............
 10f0 04000015 5f5f7800 012e039d 05000076  ....__x........v
 1100 14000000 19f40600 00100000 00a00400  ................
 1110 00155f5f 7800012e 039d0500 00a41400  ..__x...........
 1120 00001a30 02000012 67060000 012e032c  ...0....g......,
 1130 000000b7 14000000 00166802 00008305  ..........h.....
 1140 0000127d 06000001 2f032c00 00000c15  ...}..../.,.....
 1150 00001b44 05000017 d7070000 012f0396  ...D........./..
 1160 05000017 d6050000 012f0396 05000017  ........./......
 1170 ff050000 012f0396 05000017 0d070000  ...../..........
 1180 012f039d 05000017 f7060000 012f039d  ./.........../..
 1190 0500001b 23050000 145f5f78 00012f03  ....#....__x../.
 11a0 9d050000 001b3505 0000145f 5f780001  ......5....__x..
 11b0 2f039d05 0000001c 145f5f78 00012f03  /........__x../.
 11c0 9d050000 000019fc 03000014 00000062  ...............b
 11d0 05000015 5f5f7800 012f039d 05000020  ....__x../..... 
 11e0 15000000 1b740500 00145f5f 7800012f  .....t....__x../
 11f0 039d0500 00001c14 5f5f7800 012f039d  ........__x../..
 1200 05000000 001a8802 00001799 05000001  ................
 1210 2f03e600 00000000 020405fc 00000002  /...............
 1220 04078d00 00000080 02000004 00ca0400  ................
 1230 00040146 0700000c 5e080000 96060000  ...F....^.......
 1240 f4080000 e8000000 8b140000 02080428  ...............(
 1250 0c000003 2d080000 02500d38 00000004  ....-....P.8....
 1260 0405696e 74000201 06590300 00020805  ..int....Y......
 1270 f7000000 051e0600 00034a01 165f0000  ..........J.._..
 1280 00064d00 00000201 08570300 00020407  ..M......W......
 1290 92000000 02080788 00000002 02073e02  ..............>.
 12a0 0000075a 0000008b 00000008 66000000  ...Z........f...
 12b0 ff00067b 00000009 26060000 053c168b  ...{....&....<..
 12c0 00000003 ac050000 04480f25 0000000a  .........H.%....
 12d0 08044f03 f2000000 0b8d0500 0004570e  ..O...........W.
 12e0 66000000 04200000 0b930500 0004580e  f.... ........X.
 12f0 66000000 04140c04 0c657870 0004590e  f........exp..Y.
 1300 66000000 040b0104 0bbd0100 00045a0e  f.............Z.
 1310 66000000 04010004 000d3a07 00000804  f.........:.....
 1320 4c071801 00000e66 6c740004 4e0a9c00  L......flt..N...
 1330 00000f04 08000004 5c05a800 00000010  ........\.......
 1340 13080000 0123012c 000000f4 080000e8  .....#.,........
 1350 00000001 9c750200 00116100 0123119c  .....u....a..#..
 1360 00000033 15000011 62000123 1b9c0000  ...3....b..#....
 1370 005b1500 0012f505 00000125 03380000  .[.........%.8..
 1380 00001209 08000001 25033800 00000013  ........%.8.....
 1390 415f6300 01260375 02000014 415f7300  A_c..&.u....A_s.
 13a0 01260375 02000001 5b14415f 65000126  .&.u....[.A_e..&
 13b0 03750200 00016015 19060000 0126037c  .u....`......&.|
 13c0 02000001 5615eb05 00000126 037c0200  ....V......&.|..
 13d0 00016113 425f6300 01270375 02000014  ..a.B_c..'.u....
 13e0 425f7300 01270375 02000001 5d14425f  B_s..'.u....].B_
 13f0 65000127 03750200 00015e16 5d060000  e..'.u....^.]...
 1400 0127037c 02000093 15000015 62060000  .'.|........b...
 1410 0127037c 02000001 5f147200 01280b2c  .'.|...._.r..(.,
 1420 00000001 5a17a002 00001402 000018c1  ....Z...........
 1430 05000001 2b03f200 00000017 c8020000  ....+...........
 1440 2a020000 18c10500 00012c03 f2000000  *.........,.....
 1450 00193c02 0000183b 08000001 2d033800  ..<....;....-.8.
 1460 00000019 4e020000 183b0800 00012d03  ....N....;....-.
 1470 38000000 001ae802 0000164c 08000001  8..........L....
 1480 2d033800 0000bc15 0000161b 08000001  -.8.............
 1490 2d033800 0000db15 00000000 020405fc  -.8.............
 14a0 00000002 04078d00 000000ec 09000004  ................
 14b0 00520600 00040146 0700000c f8080000  .R.....F........
 14c0 96060000 dc090000 70060000 80170000  ........p.......
 14d0 02080428 0c000003 0405696e 74000201  ...(......int...
 14e0 06590300 00020805 f7000000 041e0600  .Y..............
 14f0 00024a01 16530000 00054100 00000201  ..J..S....A.....
 1500 08570300 00020407 92000000 02080788  .W..............
 1510 00000004 c4080000 024e0116 75000000  .........N..u...
 1520 0202073e 02000006 4e000000 8c000000  ...>....N.......
 1530 075a0000 00ff0005 7c000000 08260600  .Z......|....&..
 1540 00043c16 8c000000 09ac0500 0003480f  ..<...........H.
 1550 25000000 0a08034f 03f30000 000b8d05  %......O........
 1560 00000357 0e5a0000 00042000 000b9305  ...W.Z.... .....
 1570 00000358 0e5a0000 0004140c 040c6578  ...X.Z........ex
 1580 70000359 0e5a0000 00040b01 040bbd01  p..Y.Z..........
 1590 0000035a 0e5a0000 00040100 04000d3a  ...Z.Z.........:
 15a0 07000008 034c0719 0100000e 666c7400  .....L......flt.
 15b0 034e0a9d 0000000f 04080000 035c05a9  .N...........\..
 15c0 00000000 10100a00 00012301 9d000000  ..........#.....
 15d0 dc090000 70060000 019cd509 00001161  ....p..........a
 15e0 00012312 9d000000 1f160000 11620001  ..#..........b..
 15f0 231c9d00 0000a716 000012f5 05000001  #...............
 1600 25032c00 00002f17 00001309 08000001  %.,.../.........
 1610 25032c00 00000014 415f6300 012603d5  %.,.....A_c..&..
 1620 0900004f 17000014 415f7300 012603d5  ...O....A_s..&..
 1630 0900009a 17000014 415f6500 012603d5  ........A_e..&..
 1640 090000e2 17000012 19060000 012603dc  .............&..
 1650 0900008e 18000012 eb050000 012603dc  .............&..
 1660 09000026 19000014 425f6300 012703d5  ...&....B_c..'..
 1670 090000cd 19000014 425f7300 012703d5  ........B_s..'..
 1680 0900000d 1a000014 425f6500 012703d5  ........B_e..'..
 1690 09000065 1a000012 5d060000 012703dc  ...e....]....'..
 16a0 0900000a 1b000012 62060000 012703dc  ........b....'..
 16b0 090000a2 1b000014 525f6300 012803d5  ........R_c..(..
 16c0 09000029 1c000014 525f7300 012803d5  ...)....R_s..(..
 16d0 09000054 1c000014 525f6500 012803d5  ...T....R_e..(..
 16e0 090000be 1c000012 bc050000 012803dc  .............(..
 16f0 0900004d 1d000012 0e080000 012803dc  ...M.........(..
 1700 09000051 1e000015 72000129 0a9d0000  ...Q....r..)....
 1710 00160803 00007c02 000017c1 05000001  ......|.........
 1720 2c03f300 00000016 48030000 96020000  ,.......H.......
 1730 12dd0800 00012c03 d5090000 b61e0000  ......,.........
 1740 00166003 0000ac02 000017c1 05000001  ..`.............
 1750 2d03f300 00000016 80030000 c6020000  -...............
 1760 12dd0800 00012d03 d5090000 ea1e0000  ......-.........
 1770 0018080c 00005002 00008208 00001264  ......P........d
 1780 0a000001 2e03e309 00001e1f 00001698  ................
 1790 03000019 08000012 940a0000 012e03dc  ................
 17a0 09000062 1f000012 b00a0000 012e03dc  ...b............
 17b0 09000075 1f000012 190a0000 012e03dc  ...u............
 17c0 09000093 1f000012 350a0000 012e03dc  ........5.......
 17d0 090000a6 1f000016 b8030000 56040000  ............V...
 17e0 127c0a00 00012e03 dc090000 c41f0000  .|..............
 17f0 12e90900 00012e03 dc090000 e21f0000  ................
 1800 12d80800 00012e03 dc090000 0b200000  ............. ..
 1810 12ee0900 00012e03 dc090000 29200000  ............) ..
 1820 12bf0800 00012e03 68000000 47200000  ........h...G ..
 1830 120b0a00 00012e03 68000000 5a200000  ........h...Z ..
 1840 12ba0800 00012e03 68000000 6d200000  ........h...m ..
 1850 12f30900 00012e03 68000000 80200000  ........h.... ..
 1860 18180c00 00180000 00df0300 0019cc08  ................
 1870 0000012e 03dc0900 00015a19 d2080000  ..........Z.....
 1880 012e03dc 09000001 5b001830 0c000010  ........[..0....
 1890 00000009 04000019 cc080000 012e03dc  ................
 18a0 09000001 5a19d208 0000012e 03dc0900  ....Z...........
 18b0 00015b00 18400c00 00100000 00330400  ..[..@.......3..
 18c0 0019cc08 0000012e 03dc0900 00015a19  ..............Z.
 18d0 d2080000 012e03dc 09000001 5b001ad0  ............[...
 18e0 03000019 cc080000 012e03dc 09000001  ................
 18f0 5a19d208 0000012e 03dc0900 00015b00  Z.............[.
 1900 0016e803 00007c05 0000127c 0a000001  ......|....|....
 1910 2e03dc09 00009320 000012e9 09000001  ....... ........
 1920 2e03dc09 0000b120 000012d8 08000001  ....... ........
 1930 2e03dc09 0000f320 000012ee 09000001  ....... ........
 1940 2e03dc09 00000621 000017bf 08000001  .......!........
 1950 2e036800 0000170b 0a000001 2e036800  ..h...........h.
 1960 000012ba 08000001 2e036800 00001921  ..........h....!
 1970 000012f3 09000001 2e036800 00002c21  ..........h...,!
 1980 00001890 0c000010 00000001 05000019  ................
 1990 cc080000 012e03dc 09000001 5a19d208  ............Z...
 19a0 0000012e 03dc0900 00015b00 18a00c00  ..........[.....
 19b0 00100000 002b0500 0019cc08 0000012e  .....+..........
 19c0 03dc0900 00015a19 d2080000 012e03dc  ......Z.........
 19d0 09000001 5b0018b0 0c000010 00000055  ....[..........U
 19e0 05000019 cc080000 012e03dc 09000001  ................
 19f0 5a19d208 0000012e 03dc0900 00015b00  Z.............[.
 1a00 1bc00c00 000c0000 0019cc08 0000012e  ................
 1a10 03dc0900 00015a19 d2080000 012e03dc  ......Z.........
 1a20 09000001 5b000016 00040000 a2060000  ....[...........
 1a30 127c0a00 00012e03 dc090000 4a210000  .|..........J!..
 1a40 12e90900 00012e03 dc090000 68210000  ............h!..
 1a50 12d80800 00012e03 dc090000 98210000  .............!..
 1a60 12ee0900 00012e03 dc090000 c1210000  .............!..
 1a70 17bf0800 00012e03 68000000 170b0a00  ........h.......
 1a80 00012e03 68000000 12ba0800 00012e03  ....h...........
 1a90 68000000 d4210000 12f30900 00012e03  h....!..........
 1aa0 68000000 f2210000 18100d00 00100000  h....!..........
 1ab0 00270600 0019cc08 0000012e 03dc0900  .'..............
 1ac0 00015a19 d2080000 012e03dc 09000001  ..Z.............
 1ad0 5b001820 0d000010 00000051 06000019  [.. .......Q....
 1ae0 cc080000 012e03dc 09000001 5a19d208  ............Z...
 1af0 0000012e 03dc0900 00015b00 18300d00  ..........[..0..
 1b00 00100000 007b0600 0019cc08 0000012e  .....{..........
 1b10 03dc0900 00015a19 d2080000 012e03dc  ......Z.........
 1b20 09000001 5b001b40 0d00000c 00000019  ....[..@........
 1b30 cc080000 012e03dc 09000001 5a19d208  ............Z...
 1b40 0000012e 03dc0900 00015b00 00161804  ..........[.....
 1b50 0000c807 0000127c 0a000001 2e03dc09  .......|........
 1b60 00000522 000012e9 09000001 2e03dc09  ..."............
 1b70 00002322 000012d8 08000001 2e03dc09  ..#"............
 1b80 00005322 000012ee 09000001 2e03dc09  ..S"............
 1b90 00007c22 000017bf 08000001 2e036800  ..|"..........h.
 1ba0 0000170b 0a000001 2e036800 000012ba  ..........h.....
 1bb0 08000001 2e036800 00008f22 000012f3  ......h...."....
 1bc0 09000001 2e036800 0000ad22 00001880  ......h...."....
 1bd0 0d000010 0000004d 07000019 cc080000  .......M........
 1be0 012e03dc 09000001 5a19d208 0000012e  ........Z.......
 1bf0 03dc0900 00015b00 18900d00 00100000  ......[.........
 1c00 00770700 0019cc08 0000012e 03dc0900  .w..............
 1c10 00015a19 d2080000 012e03dc 09000001  ..Z.............
 1c20 5b0018a0 0d000010 000000a1 07000019  [...............
 1c30 cc080000 012e03dc 09000001 5a19d208  ............Z...
 1c40 0000012e 03dc0900 00015b00 1bb00d00  ..........[.....
 1c50 000c0000 0019cc08 0000012e 03dc0900  ................
 1c60 00015a19 d2080000 012e03dc 09000001  ..Z.............
 1c70 5b000016 40040000 f2070000 12810a00  [...@...........
 1c80 00012e03 dc090000 cb220000 12510a00  ........."...Q..
 1c90 00012e03 dc090000 e9220000 001a6804  ........."....h.
 1ca0 00001281 0a000001 2e03dc09 0000bb23  ...............#
 1cb0 00001251 0a000001 2e03dc09 0000ce23  ...Q...........#
 1cc0 00000000 1a880400 00172509 0000012e  ..........%.....
 1cd0 032c0000 001aa804 000012f8 09000001  .,..............
 1ce0 2e03d509 00001a24 0000123b 09000001  .......$...;....
 1cf0 2e03d509 00003a24 00001279 09000001  ......:$...y....
 1d00 2e03d509 00005a24 00001267 09000001  ......Z$...g....
 1d10 2e03d509 00007a24 000012c0 09000001  ......z$........
 1d20 2e03dc09 0000a624 00000000 0018940e  .......$........
 1d30 00001000 0000a008 0000145f 5f780001  ...........__x..
 1d40 2f03dc09 0000dd24 0000001c b2080000  /......$........
 1d50 155f5f78 00012f03 dc090000 001cc408  .__x../.........
 1d60 0000155f 5f780001 2f03dc09 00000016  ...__x../.......
 1d70 e0040000 c2090000 17a50900 00012f03  ............../.
 1d80 2c000000 1c4d0900 0017d209 0000012f  ,....M........./
 1d90 03d50900 00178e09 0000012f 03d50900  .........../....
 1da0 00175009 0000012f 03d50900 00178a08  ..P..../........
 1db0 0000012f 03dc0900 0017a208 0000012f  .../.........../
 1dc0 03dc0900 001c2c09 0000155f 5f780001  ......,....__x..
 1dd0 2f03dc09 0000001c 3e090000 155f5f78  /.......>....__x
 1de0 00012f03 dc090000 001d155f 5f780001  ../........__x..
 1df0 2f03dc09 00000000 18b40f00 00100000  /...............
 1e00 006b0900 00145f5f 7800012f 03dc0900  .k....__x../....
 1e10 00f02400 00001c7d 09000015 5f5f7800  ..$....}....__x.
 1e20 012f03dc 09000000 1c8f0900 00155f5f  ./............__
 1e30 7800012f 03dc0900 00001ca1 09000015  x../............
 1e40 5f5f7800 012f03dc 09000000 1cb30900  __x../..........
 1e50 00155f5f 7800012f 03dc0900 00001d15  ..__x../........
 1e60 5f5f7800 012f03dc 09000000 001ac804  __x../..........
 1e70 00001799 05000001 2f03f300 00000000  ......../.......
 1e80 020405fc 00000002 04078d00 00001edc  ................
 1e90 09000007 5a000000 030000a1 05000004  ....Z...........
 1ea0 00fa0700 00040146 0700000c d50a0000  .......F........
 1eb0 96060000 4c100000 c4070000 0a260000  ....L........&..
 1ec0 02080428 0c000003 0405696e 74000201  ...(......int...
 1ed0 06590300 00020805 f7000000 041e0600  .Y..............
 1ee0 00024a01 16530000 00054100 00000201  ..J..S....A.....
 1ef0 08570300 00020407 92000000 02080788  .W..............
 1f00 00000002 02073e02 0000064e 0000007f  ......>....N....
 1f10 00000007 5a000000 ff00056f 00000008  ....Z......o....
 1f20 26060000 043c167f 00000009 ac050000  &....<..........
 1f30 03480f25 0000000a 08034f03 e6000000  .H.%......O.....
 1f40 0b8d0500 0003570e 5a000000 04200000  ......W.Z.... ..
 1f50 0b930500 0003580e 5a000000 04140c04  ......X.Z.......
 1f60 0c657870 0003590e 5a000000 040b0104  .exp..Y.Z.......
 1f70 0bbd0100 00035a0e 5a000000 04010004  ......Z.Z.......
 1f80 000d3a07 00000803 4c070c01 00000e66  ..:.....L......f
 1f90 6c740003 4e0a9000 00000f04 08000003  lt..N...........
 1fa0 5c059c00 00000010 cc0a0000 01230190  \............#..
 1fb0 0000004c 100000c4 07000001 9c960500  ...L............
 1fc0 00116100 01231290 00000003 25000011  ..a..#......%...
 1fd0 62000123 1c900000 002b2500 0012f505  b..#.....+%.....
 1fe0 00000125 032c0000 00532500 00130908  ...%.,...S%.....
 1ff0 00000125 032c0000 00001441 5f630001  ...%.,.....A_c..
 2000 26039605 00001541 5f730001 26039605  &......A_s..&...
 2010 0000a325 00001541 5f650001 26039605  ...%...A_e..&...
 2020 00003a26 00001219 06000001 26039d05  ..:&........&...
 2030 00002b27 000012eb 05000001 26039d05  ..+'........&...
 2040 00009328 00001442 5f630001 27039605  ...(...B_c..'...
 2050 00001542 5f730001 27039605 00001e2a  ...B_s..'......*
 2060 00001542 5f650001 27039605 0000af2a  ...B_e..'......*
 2070 0000125d 06000001 27039d05 00003b2b  ...]....'.....;+
 2080 00001262 06000001 27039d05 0000562c  ...b....'.....V,
 2090 00001452 5f630001 28039605 00001552  ...R_c..(......R
 20a0 5f730001 28039605 0000d72c 00001552  _s..(......,...R
 20b0 5f650001 28039605 00006e2d 000012bc  _e..(.....n-....
 20c0 05000001 28039d05 0000c02e 0000120e  ....(...........
 20d0 08000001 28039d05 00004631 00001472  ....(.....F1...r
 20e0 0001290a 90000000 16000500 00630200  ..)..........c..
 20f0 0017c105 0000012c 03e60000 00001620  .......,....... 
 2100 05000079 02000017 c1050000 012d03e6  ...y.........-..
 2110 00000000 16680500 00630300 0018f507  .....h...c......
 2120 0000012e 033c1100 0018fa07 0000012e  .....<..........
 2130 03581200 0018ff07 0000012e 03841100  .X..............
 2140 0018b305 0000012e 03041100 00122307  ..............#.
 2150 0000012e 032c0000 004a3300 0016b005  .....,...J3.....
 2160 0000dc02 0000155f 5f780001 2e039d05  .......__x......
 2170 00003734 00000019 70110000 14000000  ..74....p.......
 2180 fa020000 155f5f78 00012e03 9d050000  .....__x........
 2190 4a340000 0016c805 00001403 0000155f  J4............._
 21a0 5f780001 2e039d05 00005d34 00000019  _x........]4....
 21b0 8c120000 10000000 32030000 155f5f78  ........2....__x
 21c0 00012e03 9d050000 70340000 0016e005  ........p4......
 21d0 00004c03 0000155f 5f780001 2e039d05  ..L....__x......
 21e0 00008334 0000001a f8050000 155f5f78  ...4.........__x
 21f0 00012e03 9d050000 96340000 00001610  .........4......
 2200 060000b7 04000018 f0050000 012e03c0  ................
 2210 13000018 7f050000 012e03d8 14000018  ................
 2220 fa050000 012e0308 14000018 14060000  ................
 2230 012e032c 16000018 ec070000 012e0304  ...,............
 2240 11000012 23070000 012e032c 000000c9  ....#......,....
 2250 34000016 60060000 d2030000 155f5f78  4...`........__x
 2260 00012e03 9d050000 ea350000 0019f413  .........5......
 2270 00001400 0000f003 0000155f 5f780001  ...........__x..
 2280 2e039d05 0000fd35 00000019 94140000  .......5........
 2290 10000000 0e040000 155f5f78 00012e03  .........__x....
 22a0 9d050000 10360000 00190c15 00001000  .....6..........
 22b0 00002c04 0000155f 5f780001 2e039d05  ..,....__x......
 22c0 00002336 00000016 98060000 46040000  ..#6........F...
 22d0 155f5f78 00012e03 9d050000 36360000  .__x........66..
 22e0 0019b415 00001000 00006404 0000155f  ..........d...._
 22f0 5f780001 2e039d05 00005436 00000019  _x........T6....
 2300 00160000 10000000 82040000 155f5f78  .............__x
 2310 00012e03 9d050000 67360000 00191816  ........g6......
 2320 00001000 0000a004 0000155f 5f780001  ...........__x..
 2330 2e039d05 00009536 0000001a 78060000  .......6....x...
 2340 12670600 00012e03 2c000000 a8360000  .g......,....6..
 2350 000016b0 06000083 05000012 7d060000  ............}...
 2360 012f032c 000000fd 3600001b 44050000  ./.,....6...D...
 2370 17d70700 00012f03 96050000 17d60500  ....../.........
 2380 00012f03 96050000 17ff0500 00012f03  ../.........../.
 2390 96050000 170d0700 00012f03 9d050000  ........../.....
 23a0 17f70600 00012f03 9d050000 1b230500  ....../......#..
 23b0 00145f5f 7800012f 039d0500 00001b35  ..__x../.......5
 23c0 05000014 5f5f7800 012f039d 05000000  ....__x../......
 23d0 1c145f5f 7800012f 039d0500 00000019  ..__x../........
 23e0 18110000 14000000 62050000 155f5f78  ........b....__x
 23f0 00012f03 9d050000 11370000 001b7405  ../......7....t.
 2400 0000145f 5f780001 2f039d05 0000001c  ...__x../.......
 2410 145f5f78 00012f03 9d050000 00001ad0  .__x../.........
 2420 06000017 99050000 012f03e6 00000000  ........./......
 2430 00020405 fc000000 0204078d 00000000  ................
 2440 13020000 04009009 00000401 46070000  ............F...
 2450 0c020b00 00960600 00101800 00800000  ................
 2460 00393500 00020804 280c0000 03040569  .95.....(......i
 2470 6e740002 01065903 0000044e 0b000002  nt....Y....N....
 2480 48010d2c 00000002 0805f700 0000041e  H..,............
 2490 06000002 4a011660 00000005 4e000000  ....J..`....N...
 24a0 02010857 03000004 4d0b0000 024b0116  ...W....M....K..
 24b0 74000000 02040792 00000002 08078800  t...............
 24c0 00000202 073e0200 00065b00 00009900  .....>....[.....
 24d0 00000774 000000ff 00058900 00000826  ...t...........&
 24e0 06000004 3c169900 000009ac 05000003  ....<...........
 24f0 480f2500 00000a08 034f0300 0100000b  H.%......O......
 2500 8d050000 03570e74 00000004 2000000b  .....W.t.... ...
 2510 93050000 03580e74 00000004 140c040c  .....X.t........
 2520 65787000 03590e74 00000004 0b01040b  exp..Y.t........
 2530 bd010000 035a0e74 00000004 01000400  .....Z.t........
 2540 0d3a0700 0008034c 07260100 000e666c  .:.....L.&....fl
 2550 7400034e 0aaa0000 000f0408 0000035c  t..N...........\
 2560 05b60000 00001043 0b000001 23013a00  .......C....#.:.
 2570 00001018 00008000 0000019c 08020000  ................
 2580 11610001 2313aa00 00002437 000012f5  .a..#.....$7....
 2590 05000001 25032c00 00000012 09080000  ....%.,.........
 25a0 0125032c 00000000 13415f63 00012603  .%.,.....A_c..&.
 25b0 08020000 14415f73 00012603 08020000  .....A_s..&.....
 25c0 067b0008 ff1a9f15 415f6500 01260308  .{......A_e..&..
 25d0 020000ac 37000016 19060000 0126030f  ....7........&..
 25e0 020000d8 37000016 eb050000 0126030f  ....7........&..
 25f0 02000004 38000015 72000127 0b670000  ....8...r..'.g..
 2600 00453800 0017e806 0000db01 000018c1  .E8.............
 2610 05000001 2a030001 00000019 ed010000  ....*...........
 2620 18300b00 00012b03 2c000000 001a4818  .0....+.,.....H.
 2630 00004000 00001630 0b000001 2b032c00  ..@....0....+.,.
 2640 00007d38 00000000 020405fc 00000002  ..}8............
 2650 04078d00 000000b8 02000004 001a0b00  ................
 2660 00040146 0700000c 550b0000 96060000  ...F....U.......
 2670 90180000 ac000000 52370000 02040569  ........R7.....i
 2680 6e740003 01065903 0000044e 0b000002  nt....Y....N....
 2690 48010d25 00000003 0805f700 0000041e  H..%............
 26a0 06000002 4a011659 00000005 47000000  ....J..Y....G...
 26b0 03010857 03000004 4d0b0000 024b0116  ...W....M....K..
 26c0 6d000000 03040792 00000003 08078800  m...............
 26d0 00000302 073e0200 00065400 00009200  .....>....T.....
 26e0 0000076d 000000ff 00058200 00000826  ...m...........&
 26f0 06000004 3c169200 000009ac 05000003  ....<...........
 2700 480faf00 00000308 04280c00 000a0803  H........(......
 2710 4f030001 00000b8d 05000003 570e6d00  O...........W.m.
 2720 00000420 00000b93 05000003 580e6d00  ... ........X.m.
 2730 00000414 0c040c65 78700003 590e6d00  .......exp..Y.m.
 2740 0000040b 01040bbd 01000003 5a0e6d00  ............Z.m.
 2750 00000401 0004000d 3a070000 08034c07  ........:.....L.
 2760 26010000 0e666c74 00034e0a a3000000  &....flt..N.....
 2770 0f040800 00035c05 b6000000 0010b20b  ......\.........
 2780 00000124 01a30000 00901800 00ac0000  ...$............
 2790 00019cad 02000011 69000124 15330000  ........i..$.3..
 27a0 00913800 0012415f 63000126 03ad0200  ..8...A_c..&....
 27b0 0013415f 73000126 03ad0200 00bd3800  ..A_s..&......8.
 27c0 0013415f 65000126 03ad0200 00db3800  ..A_e..&......8.
 27d0 00141906 00000126 03b40200 00f93800  .......&......8.
 27e0 0014eb05 00000126 03b40200 002e3900  .......&......9.
 27f0 00126100 01270aa3 00000015 00070000  ..a..'..........
 2800 9a020000 16850b00 00012903 17200700  ..........).. ..
 2810 0014920b 00000129 03600000 00643900  .......).`...d9.
 2820 00153807 0000e401 000014a2 0b000001  ..8.............
 2830 29032500 0000a739 00000018 197d0600  ).%....9.....}..
 2840 00012903 25000000 1a650200 0019d707  ..).%....e......
 2850 00000129 03ad0200 0019d605 00000129  ...)...........)
 2860 03ad0200 0019ff05 00000129 03ad0200  ...........)....
 2870 00190d07 00000129 03b40200 0019f706  .......)........
 2880 00000129 03b40200 001a4402 0000125f  ...)......D...._
 2890 5f780001 2903b402 0000001a 56020000  _x..).......V...
 28a0 125f5f78 00012903 b4020000 0018125f  .__x..)........_
 28b0 5f780001 2903b402 00000000 1a770200  _x..)........w..
 28c0 00125f5f 78000129 03b40200 00001a89  ..__x..)........
 28d0 02000012 5f5f7800 012903b4 02000000  ....__x..)......
 28e0 18125f5f 78000129 03b40200 00000000  ..__x..)........
 28f0 00175007 00001999 05000001 2a030001  ..P.........*...
 2900 00000000 030405fc 00000003 04078d00  ................
 2910 00000022 00000002 00920c00 0004017b  ..."...........{
 2920 3900003c 19000060 190000be 0b000096  9..<...`........
 2930 0600002c 00000001 80a80b00 000400a6  ...,............
 2940 0c000004 01460700 000c900d 00009606  .....F..........
 2950 00006019 00004800 00000d3a 00000204  ..`...H....:....
 2960 05696e74 00030407 92000000 030805f7  .int............
 2970 00000003 1004230c 00000301 06590300  ......#......Y..
 2980 00030108 57030000 03020573 03000003  ....W......s....
 2990 02073e02 00000304 05fc0000 00030407  ..>.............
 29a0 8d000000 03080788 00000004 45030000  ............E...
 29b0 020c0d25 00000004 1e030000 032c0e5d  ...%.........,.]
 29c0 00000004 2f040000 03720e5d 00000004  ..../....r.]....
 29d0 02050000 03911725 00000005 81020000  .......%........
 29e0 04650117 2c000000 060403a6 03d10000  .e..,...........
 29f0 00077b02 000003a8 0ca20000 0007ff01  ..{.............
 2a00 000003a9 13d10000 00000848 000000e1  ...........H....
 2a10 00000009 2c000000 03000a08 03a30905  ....,...........
 2a20 0100000b 19040000 03a50725 00000000  ...........%....
 2a30 0b210400 0003aa05 af000000 0400049b  .!..............
 2a40 03000003 ab03e100 000004c2 01000003  ................
 2a50 af1b7200 00000c04 04790400 00051619  ..r......y......
 2a60 64000000 0dd30100 0018052f 08850100  d........../....
 2a70 000bbc03 00000531 13850100 00000e5f  .......1......._
 2a80 6b000532 07250000 00040b04 04000005  k..2.%..........
 2a90 320b2500 0000080b bc010000 05321425  2.%..........2.%
 2aa0 0000000c 0bdd0400 0005321b 25000000  ..........2.%...
 2ab0 100e5f78 0005330b 8b010000 14000f04  .._x..3.........
 2ac0 2b010000 081f0100 009b0100 00092c00  +.............,.
 2ad0 00000000 0dfa0100 00240537 081e0200  .........$.7....
 2ae0 000bee00 00000539 09250000 00000b46  .......9.%.....F
 2af0 04000005 3a092500 0000040b 21010000  ....:.%.....!...
 2b00 053b0925 00000008 0b750500 00053c09  .;.%.....u....<.
 2b10 25000000 0c0bfc02 0000053d 09250000  %..........=.%..
 2b20 00100bcb 02000005 3e092500 0000140b  ........>.%.....
 2b30 e2040000 053f0925 00000018 0b7d0300  .....?.%.....}..
 2b40 00054009 25000000 1c0b3705 00000541  ..@.%.....7....A
 2b50 09250000 00200010 35010000 0801054a  .%... ..5......J
 2b60 08630200 000baf01 0000054b 0a630200  .c.........K.c..
 2b70 00000b1e 02000005 4c096302 00008011  ........L.c.....
 2b80 62040000 054e0a1f 01000000 01115a01  b....N........Z.
 2b90 00000551 0a1f0100 00040100 081d0100  ...Q............
 2ba0 00730200 00092c00 00001f00 10050300  .s....,.........
 2bb0 00900105 5d08b602 00000bbc 03000005  ....]...........
 2bc0 5e12b602 0000000b d4030000 055f0625  ^............_.%
 2bd0 00000004 0bb70100 00056109 bc020000  ..........a.....
 2be0 080b3501 00000562 1e1e0200 0088000f  ..5....b........
 2bf0 04730200 0008cc02 0000cc02 0000092c  .s.............,
 2c00 0000001f 000f04d2 02000012 0d870300  ................
 2c10 00080575 08fb0200 000b1b01 00000576  ...u...........v
 2c20 11fb0200 00000b44 00000005 77062500  .......D....w.%.
 2c30 00000400 0f044800 00000da6 03000068  ......H........h
 2c40 05b50844 0400000e 5f700005 b612fb02  ...D...._p......
 2c50 0000000e 5f720005 b7072500 0000040e  ...._r....%.....
 2c60 5f770005 b8072500 0000080b 53010000  _w....%.....S...
 2c70 05b9094f 0000000c 0bd70400 0005ba09  ...O............
 2c80 4f000000 0e0e5f62 660005bb 11d30200  O....._bf.......
 2c90 00100bae 00000005 bc072500 0000180b  ..........%.....
 2ca0 43010000 05c30a1d 0100001c 0bea0100  C...............
 2cb0 0005c51d c8050000 200bc402 000005c7  ........ .......
 2cc0 1df70500 00240b29 04000005 ca0d1b06  .....$.)........
 2cd0 0000280b 51050000 05cb0935 0600002c  ..(.Q......5...,
 2ce0 0e5f7562 0005ce11 d3020000 300e5f75  ._ub........0._u
 2cf0 700005cf 12fb0200 00380e5f 75720005  p........8._ur..
 2d00 d0072500 00003c0b 0f010000 05d3113b  ..%...<........;
 2d10 06000040 0b290500 0005d411 4b060000  ...@.)......K...
 2d20 430e5f6c 620005d7 11d30200 00440b77  C._lb........D.w
 2d30 01000005 da072500 00004c0b 88010000  ......%...L.....
 2d40 05db0a7e 00000050 0b620000 0005de12  ...~...P.b......
 2d50 62040000 540b8802 000005e2 0c110100  b...T...........
 2d60 00580bae 03000005 e40e0501 00005c0b  .X............\.
 2d70 8e020000 05e50925 00000064 00139600  .......%...d....
 2d80 00006204 00001462 04000014 1d010000  ..b....b........
 2d90 14b60500 00142500 0000000f 046d0400  ......%......m..
 2da0 00156204 0000160c 04000028 04053902  ..b........(..9.
 2db0 08b60500 00176c03 0000053b 02072500  ......l....;..%.
 2dc0 00000017 62010000 0540020b a7060000  ....b....@......
 2dd0 04170602 00000540 0214a706 00000817  .......@........
 2de0 cb010000 0540021e a7060000 0c17cf03  .....@..........
 2df0 00000542 02082500 00001017 57000000  ...B..%.....W...
 2e00 05430208 a7080000 1417eb03 00000546  .C.............F
 2e10 02072500 00003017 d9030000 05470216  ..%...0......G..
 2e20 bc080000 34171303 00000549 02072500  ....4......I..%.
 2e30 00003817 e1030000 054b020a cd080000  ..8......K......
 2e40 3c177302 0000054e 02138501 00004017  <.s....N......@.
 2e50 f0010000 054f0207 25000000 44176b05  .....O..%...D.k.
 2e60 00000550 02138501 00004817 31030000  ...P......H.1...
 2e70 05510214 d3080000 4c170e02 00000554  .Q......L......T
 2e80 02072500 00005017 80010000 05550209  ..%...P......U..
 2e90 b6050000 54176503 00000578 02078208  ....T.e....x....
 2ea0 00005818 05030000 057c0213 b6020000  ..X......|......
 2eb0 48011851 02000005 7d021273 0200004c  H..Q....}..s...L
 2ec0 01181505 00000581 020ce408 0000dc02  ................
 2ed0 184b0100 00058602 10680600 00e00218  .K.......h......
 2ee0 30010000 0588020a f0080000 ec02000f  0...............
 2ef0 04bc0500 00030108 60030000 15bc0500  ........`.......
 2f00 000f0444 04000013 96000000 ec050000  ...D............
 2f10 14620400 00141d01 000014ec 05000014  .b..............
 2f20 25000000 000f04c3 05000015 ec050000  %...............
 2f30 0f04ce05 0000138a 0000001b 06000014  ................
 2f40 62040000 141d0100 00148a00 00001425  b..............%
 2f50 00000000 0f04fd05 00001325 00000035  ...........%...5
 2f60 06000014 62040000 141d0100 00000f04  ....b...........
 2f70 21060000 08480000 004b0600 00092c00  !....H...K....,.
 2f80 00000200 08480000 005b0600 00092c00  .....H...[....,.
 2f90 00000000 05940300 00051f01 1a010300  ................
 2fa0 0019ec04 00000c05 230108a1 06000017  ........#.......
 2fb0 bc030000 05250111 a1060000 00173702  .....%........7.
 2fc0 00000526 01072500 00000417 8e030000  ...&..%.........
 2fd0 0527010b a7060000 08000f04 68060000  .'..........h...
 2fe0 0f045b06 0000194f 0000000e 053f0108  ..[....O.....?..
 2ff0 e6060000 17130400 00054001 12e60600  ..........@.....
 3000 0000174f 04000005 410112e6 06000006  ...O....A.......
 3010 17740400 00054201 12560000 000c0008  .t....B..V......
 3020 56000000 f6060000 092c0000 0002001a  V........,......
 3030 d0055902 070b0800 0017c504 0000055b  ..Y............[
 3040 02182c00 00000017 55040000 055c0212  ..,.....U....\..
 3050 b6050000 04176602 0000055d 02100b08  ......f....]....
 3060 00000817 42050000 055e0217 9b010000  ....B....^......
 3070 2417db01 0000055f 020f2500 00004817  $......_..%...H.
 3080 b7030000 0560022c 6b000000 50175805  .....`.,k...P.X.
 3090 00000561 021aad06 00005817 c2030000  ...a......X.....
 30a0 05620216 05010000 68175d05 00000563  .b......h.]....c
 30b0 02160501 00007017 e0000000 05640216  ......p......d..
 30c0 05010000 78170b05 00000565 02101b08  ....x......e....
 30d0 00008017 5a020000 05660210 2b080000  ....Z....f..+...
 30e0 88178104 00000567 020f2500 0000a017  .......g..%.....
 30f0 a1010000 05680216 05010000 a417d100  .....h..........
 3100 00000569 02160501 0000ac17 90010000  ...i............
 3110 056a0216 05010000 b4176800 0000056b  .j........h....k
 3120 02160501 0000bc17 77000000 056c0216  ........w....l..
 3130 05010000 c4176a03 0000056d 02082500  ......j....m..%.
 3140 0000cc00 08bc0500 001b0800 00092c00  ..............,.
 3150 00001900 08bc0500 002b0800 00092c00  .........+....,.
 3160 00000700 08bc0500 003b0800 00092c00  .........;....,.
 3170 00001700 1af00572 02076208 000017ed  .......r..b.....
 3180 02000005 75021b62 08000000 17d50200  ....u..b........
 3190 00057602 18720800 00780008 fb020000  ..v..r...x......
 31a0 72080000 092c0000 001d0008 2c000000  r....,......,...
 31b0 82080000 092c0000 001d001b f0055702  .....,........W.
 31c0 03a70800 001c0c04 0000056e 020bf606  ...........n....
 31d0 00001c2f 05000005 77020b3b 08000000  .../....w..;....
 31e0 08bc0500 00b70800 00092c00 00001800  ..........,.....
 31f0 1db70000 000f04b7 0800001e cd080000  ................
 3200 14620400 00000f04 c2080000 0f048501  .b..............
 3210 00001ee4 08000014 25000000 000f04ea  ........%.......
 3220 0800000f 04d90800 00085b06 00000009  ..........[.....
 3230 0000092c 00000002 001fa604 00000507  ...,............
 3240 03176204 00001f9f 04000005 08031d68  ..b............h
 3250 04000008 f2050000 25090000 2000151a  ........%... ...
 3260 09000021 510c0000 06142425 09000021  ...!Q.....$%...!
 3270 390d0000 06151525 0000000f 04480900  9......%.....H..
 3280 00132500 00005c09 0000145c 09000014  ..%...\....\....
 3290 5c090000 000f0462 09000022 21f40c00  \......b..."!...
 32a0 0007630e b6050000 21980c00 0008100f  ..c.....!.......
 32b0 7b090000 0f04b605 000021f7 0c000008  {.........!.....
 32c0 fc0eb605 000021df 0c000008 fd0c2500  ......!.......%.
 32d0 00002143 0d000008 fd142500 0000217f  ..!C......%...!.
 32e0 0d000008 fd1c2500 000021c5 0c000008  ......%...!.....
 32f0 ff0c2500 000021fe 0c000009 9a165d00  ..%...!.......].
 3300 00002102 0c000009 9b152500 000008b6  ..!.......%.....
 3310 050000e5 09000009 2c000000 01002139  ........,.....!9
 3320 0c000009 9e17d509 0000047a 0c00000a  ...........z....
 3330 2a162c00 0000042f 0d00000a 2f15090a  *.,..../..../...
 3340 00000f04 0f0a0000 13f10900 001e0a00  ................
 3350 00145c09 00000004 b60d0000 0a360f42  ..\..........6.B
 3360 09000021 f00b0000 0abb12fd 09000021  ...!...........!
 3370 510d0000 0abe101e 0a000023 6b0c0000  Q..........#k...
 3380 07042c00 00000b18 067f0a00 0024110d  ..,..........$..
 3390 00000024 ab0c0000 01248d0c 00000224  ...$.....$.....$
 33a0 a00c0000 0324080d 00000424 860d0000  .....$.....$....
 33b0 0524750d 00000600 212f0c00 000b211c  .$u.....!/....!.
 33c0 420a0000 23ce0c00 0007042c 0000000b  B...#......,....
 33d0 2306b00a 00002425 0d000000 241b0d00  #.....$%....$...
 33e0 0001244a 0d000002 00215e0c 00000b28  ..$J.....!^....(
 33f0 1e8b0a00 0021b60c 00000c29 1a250900  .....!.....).%..
 3400 0021410c 00000c38 1a250900 00041e06  .!A....8.%......
 3410 00000d7b 16480000 0015d40a 0000044e  ...{.H.........N
 3420 0b00000d 800f2500 0000044d 0b00000d  ......%....M....
 3430 81162c00 00000304 04ee0c00 00030803  ..,.............
 3440 e60c0000 03080428 0c000003 10030c0c  .......(........
 3450 00000320 031b0c00 0008e00a 0000300b  ... ..........0.
 3460 0000092c 000000ff 0015200b 00001f66  ...,...... ....f
 3470 0d00000d fc011630 0b00001f 26060000  .......0....&...
 3480 0d020216 300b0000 25840c00 0001c202  ....0...%.......
 3490 01250000 00601900 00480000 00019c26  .%...`...H.....&
 34a0 780001c2 0212f10a 0000df39 00002772  x..........9..'r
 34b0 65740001 c40209e5 0a000028 68070000  et.........(h...
 34c0 29610d00 0001c602 03f10a00 000b3a00  )a............:.
 34d0 002a5f5f 610001c6 0203f10a 0000373a  .*__a.........7:
 34e0 00000000 003b0b00 000400e8 0e000004  .....;..........
 34f0 01460700 000c900d 00009606 0000863c  .F.............<
 3500 00000204 05696e74 00030407 92000000  .....int........
 3510 030805f7 00000003 1004230c 00000301  ..........#.....
 3520 06590300 00030108 57030000 03020573  .Y......W......s
 3530 03000003 02073e02 00000304 05fc0000  ......>.........
 3540 00030407 8d000000 03080788 00000004  ................
 3550 45030000 010c0d1d 00000004 1e030000  E...............
 3560 022c0e55 00000004 2f040000 02720e55  .,.U..../....r.U
 3570 00000004 02050000 0291171d 00000005  ................
 3580 81020000 03650117 24000000 060402a6  .....e..$.......
 3590 03c90000 00077b02 000002a8 0c9a0000  ......{.........
 35a0 0007ff01 000002a9 13c90000 00000840  ...............@
 35b0 000000d9 00000009 24000000 03000a08  ........$.......
 35c0 02a309fd 0000000b 19040000 02a5071d  ................
 35d0 00000000 0b210400 0002aa05 a7000000  .....!..........
 35e0 0400049b 03000002 ab03d900 000004c2  ................
 35f0 01000002 af1b6a00 00000c04 04790400  ......j......y..
 3600 00041619 5c000000 0dd30100 0018042f  ....\........../
 3610 087d0100 000bbc03 00000431 137d0100  .}.........1.}..
 3620 00000e5f 6b000432 071d0000 00040b04  ..._k..2........
 3630 04000004 320b1d00 0000080b bc010000  ....2...........
 3640 0432141d 0000000c 0bdd0400 0004321b  .2............2.
 3650 1d000000 100e5f78 0004330b 83010000  ......_x..3.....
 3660 14000f04 23010000 08170100 00930100  ....#...........
 3670 00092400 00000000 0dfa0100 00240437  ..$..........$.7
 3680 08160200 000bee00 00000439 091d0000  ...........9....
 3690 00000b46 04000004 3a091d00 0000040b  ...F....:.......
 36a0 21010000 043b091d 00000008 0b750500  !....;.......u..
 36b0 00043c09 1d000000 0c0bfc02 0000043d  ..<............=
 36c0 091d0000 00100bcb 02000004 3e091d00  ............>...
 36d0 0000140b e2040000 043f091d 00000018  .........?......
 36e0 0b7d0300 00044009 1d000000 1c0b3705  .}....@.......7.
 36f0 00000441 091d0000 00200010 35010000  ...A..... ..5...
 3700 0801044a 085b0200 000baf01 0000044b  ...J.[.........K
 3710 0a5b0200 00000b1e 02000004 4c095b02  .[..........L.[.
 3720 00008011 62040000 044e0a17 01000000  ....b....N......
 3730 01115a01 00000451 0a170100 00040100  ..Z....Q........
 3740 08150100 006b0200 00092400 00001f00  .....k....$.....
 3750 10050300 00900104 5d08ae02 00000bbc  ........].......
 3760 03000004 5e12ae02 0000000b d4030000  ....^...........
 3770 045f061d 00000004 0bb70100 00046109  ._............a.
 3780 b4020000 080b3501 00000462 1e160200  ......5....b....
 3790 0088000f 046b0200 0008c402 0000c402  .....k..........
 37a0 00000924 0000001f 000f04ca 02000012  ...$............
 37b0 0d870300 00080475 08f30200 000b1b01  .......u........
 37c0 00000476 11f30200 00000b44 00000004  ...v.......D....
 37d0 77061d00 00000400 0f044000 00000da6  w.........@.....
 37e0 03000068 04b5083c 0400000e 5f700004  ...h...<...._p..
 37f0 b612f302 0000000e 5f720004 b7071d00  ........_r......
 3800 0000040e 5f770004 b8071d00 0000080b  ...._w..........
 3810 53010000 04b90947 0000000c 0bd70400  S......G........
 3820 0004ba09 47000000 0e0e5f62 660004bb  ....G....._bf...
 3830 11cb0200 00100bae 00000004 bc071d00  ................
 3840 0000180b 43010000 04c30a15 0100001c  ....C...........
 3850 0bea0100 0004c51d c0050000 200bc402  ............ ...
 3860 000004c7 1def0500 00240b29 04000004  .........$.)....
 3870 ca0d1306 0000280b 51050000 04cb092d  ......(.Q......-
 3880 0600002c 0e5f7562 0004ce11 cb020000  ...,._ub........
 3890 300e5f75 700004cf 12f30200 00380e5f  0._up........8._
 38a0 75720004 d0071d00 00003c0b 0f010000  ur........<.....
 38b0 04d31133 06000040 0b290500 0004d411  ...3...@.)......
 38c0 43060000 430e5f6c 620004d7 11cb0200  C...C._lb.......
 38d0 00440b77 01000004 da071d00 00004c0b  .D.w..........L.
 38e0 88010000 04db0a76 00000050 0b620000  .......v...P.b..
 38f0 0004de12 5a040000 540b8802 000004e2  ....Z...T.......
 3900 0c090100 00580bae 03000004 e40efd00  .....X..........
 3910 00005c0b 8e020000 04e5091d 00000064  ..\............d
 3920 00138e00 00005a04 0000145a 04000014  ......Z....Z....
 3930 15010000 14ae0500 00141d00 0000000f  ................
 3940 04650400 00155a04 0000160c 04000028  .e....Z........(
 3950 04043902 08ae0500 00176c03 0000043b  ..9.......l....;
 3960 02071d00 00000017 62010000 0440020b  ........b....@..
 3970 9f060000 04170602 00000440 02149f06  ...........@....
 3980 00000817 cb010000 0440021e 9f060000  .........@......
 3990 0c17cf03 00000442 02081d00 00001017  .......B........
 39a0 57000000 04430208 9f080000 1417eb03  W....C..........
 39b0 00000446 02071d00 00003017 d9030000  ...F......0.....
 39c0 04470216 b4080000 34171303 00000449  .G......4......I
 39d0 02071d00 00003817 e1030000 044b020a  ......8......K..
 39e0 c5080000 3c177302 0000044e 02137d01  ....<.s....N..}.
 39f0 00004017 f0010000 044f0207 1d000000  ..@......O......
 3a00 44176b05 00000450 02137d01 00004817  D.k....P..}...H.
 3a10 31030000 04510214 cb080000 4c170e02  1....Q......L...
 3a20 00000454 02071d00 00005017 80010000  ...T......P.....
 3a30 04550209 ae050000 54176503 00000478  .U......T.e....x
 3a40 02077a08 00005818 05030000 047c0213  ..z...X......|..
 3a50 ae020000 48011851 02000004 7d02126b  ....H..Q....}..k
 3a60 0200004c 01181505 00000481 020cdc08  ...L............
 3a70 0000dc02 184b0100 00048602 10600600  .....K.......`..
 3a80 00e00218 30010000 0488020a e8080000  ....0...........
 3a90 ec02000f 04b40500 00030108 60030000  ............`...
 3aa0 15b40500 000f043c 04000013 8e000000  .......<........
 3ab0 e4050000 145a0400 00141501 000014e4  .....Z..........
 3ac0 05000014 1d000000 000f04bb 05000015  ................
 3ad0 e4050000 0f04c605 00001382 00000013  ................
 3ae0 06000014 5a040000 14150100 00148200  ....Z...........
 3af0 0000141d 00000000 0f04f505 0000131d  ................
 3b00 0000002d 06000014 5a040000 14150100  ...-....Z.......
 3b10 00000f04 19060000 08400000 00430600  .........@...C..
 3b20 00092400 00000200 08400000 00530600  ..$......@...S..
 3b30 00092400 00000000 05940300 00041f01  ..$.............
 3b40 1af90200 0019ec04 00000c04 23010899  ............#...
 3b50 06000017 bc030000 04250111 99060000  .........%......
 3b60 00173702 00000426 01071d00 00000417  ..7....&........
 3b70 8e030000 0427010b 9f060000 08000f04  .....'..........
 3b80 60060000 0f045306 0000194f 0000000e  `.....S....O....
 3b90 043f0108 de060000 17130400 00044001  .?............@.
 3ba0 12de0600 0000174f 04000004 410112de  .......O....A...
 3bb0 06000006 17740400 00044201 124e0000  .....t....B..N..
 3bc0 000c0008 4e000000 ee060000 09240000  ....N........$..
 3bd0 0002001a d0045902 07030800 0017c504  ......Y.........
 3be0 0000045b 02182400 00000017 55040000  ...[..$.....U...
 3bf0 045c0212 ae050000 04176602 0000045d  .\........f....]
 3c00 02100308 00000817 42050000 045e0217  ........B....^..
 3c10 93010000 2417db01 0000045f 020f1d00  ....$......_....
 3c20 00004817 b7030000 0460022c 63000000  ..H......`.,c...
 3c30 50175805 00000461 021aa506 00005817  P.X....a......X.
 3c40 c2030000 04620216 fd000000 68175d05  .....b......h.].
 3c50 00000463 0216fd00 00007017 e0000000  ...c......p.....
 3c60 04640216 fd000000 78170b05 00000465  .d......x......e
 3c70 02101308 00008017 5a020000 04660210  ........Z....f..
 3c80 23080000 88178104 00000467 020f1d00  #..........g....
 3c90 0000a017 a1010000 04680216 fd000000  .........h......
 3ca0 a417d100 00000469 0216fd00 0000ac17  .......i........
 3cb0 90010000 046a0216 fd000000 b4176800  .....j........h.
 3cc0 0000046b 0216fd00 0000bc17 77000000  ...k........w...
 3cd0 046c0216 fd000000 c4176a03 0000046d  .l........j....m
 3ce0 02081d00 0000cc00 08b40500 00130800  ................
 3cf0 00092400 00001900 08b40500 00230800  ..$..........#..
 3d00 00092400 00000700 08b40500 00330800  ..$..........3..
 3d10 00092400 00001700 1af00472 02075a08  ..$........r..Z.
 3d20 000017ed 02000004 75021b5a 08000000  ........u..Z....
 3d30 17d50200 00047602 186a0800 00780008  ......v..j...x..
 3d40 f3020000 6a080000 09240000 001d0008  ....j....$......
 3d50 24000000 7a080000 09240000 001d001b  $...z....$......
 3d60 f0045702 039f0800 001c0c04 0000046e  ..W............n
 3d70 020bee06 00001c2f 05000004 77020b33  ......./....w..3
 3d80 08000000 08b40500 00af0800 00092400  ..............$.
 3d90 00001800 1db70000 000f04af 0800001e  ................
 3da0 c5080000 145a0400 00000f04 ba080000  .....Z..........
 3db0 0f047d01 00001edc 08000014 1d000000  ..}.............
 3dc0 000f04e2 0800000f 04d10800 00085306  ..............S.
 3dd0 0000f808 00000924 00000002 001fa604  .......$........
 3de0 00000407 03175a04 00001f9f 04000004  ......Z.........
 3df0 08031d60 04000008 ea050000 1d090000  ...`............
 3e00 20001512 09000021 510c0000 0514241d   ......!Q.....$.
 3e10 09000021 390d0000 0515151d 0000000f  ...!9...........
 3e20 04400900 00131d00 00005409 00001454  .@........T....T
 3e30 09000014 54090000 000f045a 09000022  ....T......Z..."
 3e40 21f40c00 0006630e ae050000 21980c00  !.....c.....!...
 3e50 0007100f 73090000 0f04ae05 000021f7  ....s.........!.
 3e60 0c000007 fc0eae05 000021df 0c000007  ..........!.....
 3e70 fd0c1d00 00002143 0d000007 fd141d00  ......!C........
 3e80 0000217f 0d000007 fd1c1d00 000021c5  ..!...........!.
 3e90 0c000007 ff0c1d00 000021fe 0c000008  ..........!.....
 3ea0 9a165500 00002102 0c000008 9b151d00  ..U...!.........
 3eb0 000008ae 050000dd 09000009 24000000  ............$...
 3ec0 01002139 0c000008 9e17cd09 0000047a  ..!9...........z
 3ed0 0c000009 2a162400 0000042f 0d000009  ....*.$..../....
 3ee0 2f15010a 00000f04 070a0000 13e90900  /...............
 3ef0 00160a00 00145409 00000004 b60d0000  ......T.........
 3f00 09360f3a 09000021 f00b0000 09bb12f5  .6.:...!........
 3f10 09000021 510d0000 09be1016 0a000023  ...!Q..........#
 3f20 6b0c0000 07042400 00000a18 06770a00  k.....$......w..
 3f30 0024110d 00000024 ab0c0000 01248d0c  .$.....$.....$..
 3f40 00000224 a00c0000 0324080d 00000424  ...$.....$.....$
 3f50 860d0000 0524750d 00000600 212f0c00  .....$u.....!/..
 3f60 000a211c 3a0a0000 23ce0c00 00070424  ..!.:...#......$
 3f70 0000000a 2306a80a 00002425 0d000000  ....#.....$%....
 3f80 241b0d00 0001244a 0d000002 00215e0c  $.....$J.....!^.
 3f90 00000a28 1e830a00 0021b60c 00000b29  ...(.....!.....)
 3fa0 1a1d0900 0021410c 00000b38 1a1d0900  .....!A....8....
 3fb0 00041e06 00000c7b 16400000 0015cc0a  .......{.@......
 3fc0 00000304 04ee0c00 00030803 e60c0000  ................
 3fd0 03080428 0c000003 10030c0c 00000320  ...(........... 
 3fe0 031b0c00 0008d80a 0000100b 00000924  ...............$
 3ff0 000000ff 0015000b 00001f66 0d00000c  ...........f....
 4000 fc011610 0b00001f 26060000 0c020216  ........&.......
 4010 100b0000 25220b00 000db202 0f050374  ....%".........t
 4020 27000000                             '...            
Contents of section .debug_abbrev:
 0000 01110010 06110112 01030e1b 0e250e13  .............%..
 0010 05000000 01110125 0e130b03 0e1b0e55  .......%.......U
 0020 17110110 17000002 24000b0b 3e0b0308  ........$...>...
 0030 00000335 00491300 00042400 0b0b3e0b  ...5.I....$...>.
 0040 030e0000 05160003 0e3a0b3b 0b390b49  .........:.;.9.I
 0050 13000006 1600030e 3a0b3b05 390b4913  ........:.;.9.I.
 0060 00000717 010b0b3a 0b3b0b39 0b011300  .......:.;.9....
 0070 00080d00 030e3a0b 3b0b390b 49130000  ......:.;.9.I...
 0080 09010149 13011300 000a2100 49132f0b  ...I......!.I./.
 0090 00000b13 010b0b3a 0b3b0b39 0b011300  .......:.;.9....
 00a0 000c0d00 030e3a0b 3b0b390b 4913380b  ......:.;.9.I.8.
 00b0 00000d0f 000b0b00 000e0f00 0b0b4913  ..............I.
 00c0 00000f26 00491300 00101301 030e0b0b  ...&.I..........
 00d0 3a0b3b0b 390b0113 0000110d 0003083a  :.;.9..........:
 00e0 0b3b0b39 0b491338 0b000012 1301030e  .;.9.I.8........
 00f0 0b053a0b 3b0b390b 01130000 130d0003  ..:.;.9.........
 0100 0e3a0b3b 0b390b49 13380500 00141500  .:.;.9.I.8......
 0110 27190000 15150127 19491301 13000016  '......'.I......
 0120 05004913 00001713 01030e0b 053a0b3b  ..I..........:.;
 0130 05390b01 13000018 0d00030e 3a0b3b05  .9..........:.;.
 0140 390b4913 380b0000 190d0003 0e3a0b3b  9.I.8........:.;
 0150 05390b49 13380500 001a1301 030e0b0b  .9.I.8..........
 0160 3a0b3b05 390b0113 00001b13 010b0b3a  :.;.9..........:
 0170 0b3b0539 0b011300 001c1701 0b0b3a0b  .;.9..........:.
 0180 3b05390b 01130000 1d0d0003 0e3a0b3b  ;.9..........:.;
 0190 05390b49 1300001e 1300030e 3c190000  .9.I........<...
 01a0 1f150127 19011300 00203400 030e3a0b  ...'..... 4...:.
 01b0 3b05390b 49133f19 3c190000 21040103  ;.9.I.?.<...!...
 01c0 0e3e0b0b 0b49133a 0b3b0539 0b011300  .>...I.:.;.9....
 01d0 00222800 030e1c0d 00002328 00030e1c  ."(.......#(....
 01e0 0b000024 3400030e 3a0b3b0b 390b4913  ...$4...:.;.9.I.
 01f0 3f190218 0000252e 013f1903 0e3a0b3b  ?.....%..?...:.;
 0200 0b390b11 01120640 18964219 01130000  .9.....@..B.....
 0210 26340003 0e3a0b3b 0b390b49 131c0a00  &4...:.;.9.I....
 0220 00273400 03083a0b 3b0b390b 49131c0b  .'4...:.;.9.I...
 0230 00002834 00030e3a 0b3b0b39 0b491302  ..(4...:.;.9.I..
 0240 17000029 0b015517 00002a34 00030e3a  ...)..U...*4...:
 0250 0b3b0b39 0b491302 1800002b 0b015517  .;.9.I.....+..U.
 0260 01130000 2c340003 083a0b3b 0b390b49  ....,4...:.;.9.I
 0270 13021700 002d1d01 31131101 1206580b  .....-..1.....X.
 0280 590b570b 00002e05 00311302 1700002f  Y.W......1...../
 0290 0b011101 12060000 30340031 13021700  ........04.1....
 02a0 00313400 31130000 32210049 132f1800  .14.1...2!.I./..
 02b0 00332e01 03083a0b 3b0b390b 2719200b  .3....:.;.9.'. .
 02c0 01130000 34050003 083a0b3b 0b390b49  ....4....:.;.9.I
 02d0 13000035 0500030e 3a0b3b0b 390b4913  ...5....:.;.9.I.
 02e0 00003634 00030e3a 0b3b0b39 0b491300  ..64...:.;.9.I..
 02f0 00373400 03083a0b 3b0b390b 49130000  .74...:.;.9.I...
 0300 382e013f 19030e3a 0b3b0b39 0b271920  8..?...:.;.9.'. 
 0310 0b011300 00390b01 00003a2e 01311311  .....9....:..1..
 0320 01120640 18974219 00003b05 00311302  ...@..B...;..1..
 0330 18000000 01110125 0e130b03 0e1b0e11  .......%........
 0340 01120610 17000002 24000b0b 3e0b030e  ........$...>...
 0350 00000324 000b0b3e 0b030800 00041600  ...$...>........
 0360 030e3a0b 3b05390b 49130000 05260049  ..:.;.9.I....&.I
 0370 13000006 01014913 01130000 07210049  ......I......!.I
 0380 132f0b00 00083400 030e3a0b 3b0b390b  ./....4...:.;.9.
 0390 49133f19 3c190000 09160003 0e3a0b3b  I.?.<........:.;
 03a0 0b390b49 1300000a 13010b0b 3a0b3b0b  .9.I........:.;.
 03b0 390b0113 00000b0d 00030e3a 0b3b0b39  9..........:.;.9
 03c0 0b49130b 0b0d0b0c 0b380b00 000c0d00  .I.......8......
 03d0 03083a0b 3b0b390b 49130b0b 0d0b0c0b  ..:.;.9.I.......
 03e0 380b0000 0d170103 0e0b0b3a 0b3b0b39  8..........:.;.9
 03f0 0b011300 000e0d00 03083a0b 3b0b390b  ..........:.;.9.
 0400 49130000 0f0d0003 0e3a0b3b 0b390b49  I........:.;.9.I
 0410 13000010 2e013f19 030e3a0b 3b0b390b  ......?...:.;.9.
 0420 27194913 11011206 40189642 19011300  '.I.....@..B....
 0430 00110500 03083a0b 3b0b390b 49130217  ......:.;.9.I...
 0440 00001234 00030e3a 0b3b0b39 0b491302  ...4...:.;.9.I..
 0450 17000013 3400030e 3a0b3b0b 390b4913  ....4...:.;.9.I.
 0460 1c0b0000 14340003 083a0b3b 0b390b49  .....4...:.;.9.I
 0470 13000015 34000308 3a0b3b0b 390b4913  ....4...:.;.9.I.
 0480 02170000 160b0155 17011300 00173400  .......U......4.
 0490 030e3a0b 3b0b390b 49130000 180a0003  ..:.;.9.I.......
 04a0 0e3a0b3b 0b390b11 01000019 0b011101  .:.;.9..........
 04b0 12060113 00001a0b 01551700 001b0b01  .........U......
 04c0 01130000 1c0b0100 00000111 01250e13  .............%..
 04d0 0b030e1b 0e110112 06101700 00022400  ..............$.
 04e0 0b0b3e0b 030e0000 03160003 0e3a0b3b  ..>..........:.;
 04f0 0b390b49 13000004 24000b0b 3e0b0308  .9.I....$...>...
 0500 00000516 00030e3a 0b3b0539 0b491300  .......:.;.9.I..
 0510 00062600 49130000 07010149 13011300  ..&.I......I....
 0520 00082100 49132f0b 00000934 00030e3a  ..!.I./....4...:
 0530 0b3b0b39 0b49133f 193c1900 000a1301  .;.9.I.?.<......
 0540 0b0b3a0b 3b0b390b 01130000 0b0d0003  ..:.;.9.........
 0550 0e3a0b3b 0b390b49 130b0b0d 0b0c0b38  .:.;.9.I.......8
 0560 0b00000c 0d000308 3a0b3b0b 390b4913  ........:.;.9.I.
 0570 0b0b0d0b 0c0b380b 00000d17 01030e0b  ......8.........
 0580 0b3a0b3b 0b390b01 1300000e 0d000308  .:.;.9..........
 0590 3a0b3b0b 390b4913 00000f0d 00030e3a  :.;.9.I........:
 05a0 0b3b0b39 0b491300 00102e01 3f19030e  .;.9.I......?...
 05b0 3a0b3b0b 390b2719 49131101 12064018  :.;.9.'.I.....@.
 05c0 97421901 13000011 05000308 3a0b3b0b  .B..........:.;.
 05d0 390b4913 02170000 12340003 0e3a0b3b  9.I......4...:.;
 05e0 0b390b49 131c0b00 00133400 03083a0b  .9.I......4...:.
 05f0 3b0b390b 49130000 14340003 083a0b3b  ;.9.I....4...:.;
 0600 0b390b49 13021800 00153400 030e3a0b  .9.I......4...:.
 0610 3b0b390b 49130218 00001634 00030e3a  ;.9.I......4...:
 0620 0b3b0b39 0b491302 17000017 0b015517  .;.9.I........U.
 0630 01130000 18340003 0e3a0b3b 0b390b49  .....4...:.;.9.I
 0640 13000019 0b010113 00001a0b 01551700  .............U..
 0650 00000111 01250e13 0b030e1b 0e110112  .....%..........
 0660 06101700 00022400 0b0b3e0b 030e0000  ......$...>.....
 0670 0324000b 0b3e0b03 08000004 1600030e  .$...>..........
 0680 3a0b3b05 390b4913 00000526 00491300  :.;.9.I....&.I..
 0690 00060101 49130113 00000721 0049132f  ....I......!.I./
 06a0 0b000008 3400030e 3a0b3b0b 390b4913  ....4...:.;.9.I.
 06b0 3f193c19 00000916 00030e3a 0b3b0b39  ?.<........:.;.9
 06c0 0b491300 000a1301 0b0b3a0b 3b0b390b  .I........:.;.9.
 06d0 01130000 0b0d0003 0e3a0b3b 0b390b49  .........:.;.9.I
 06e0 130b0b0d 0b0c0b38 0b00000c 0d000308  .......8........
 06f0 3a0b3b0b 390b4913 0b0b0d0b 0c0b380b  :.;.9.I.......8.
 0700 00000d17 01030e0b 0b3a0b3b 0b390b01  .........:.;.9..
 0710 1300000e 0d000308 3a0b3b0b 390b4913  ........:.;.9.I.
 0720 00000f0d 00030e3a 0b3b0b39 0b491300  .......:.;.9.I..
 0730 00102e01 3f19030e 3a0b3b0b 390b2719  ....?...:.;.9.'.
 0740 49131101 12064018 96421901 13000011  I.....@..B......
 0750 05000308 3a0b3b0b 390b4913 02170000  ....:.;.9.I.....
 0760 12340003 0e3a0b3b 0b390b49 13021700  .4...:.;.9.I....
 0770 00133400 030e3a0b 3b0b390b 49131c0b  ..4...:.;.9.I...
 0780 00001434 0003083a 0b3b0b39 0b491302  ...4...:.;.9.I..
 0790 17000015 34000308 3a0b3b0b 390b4913  ....4...:.;.9.I.
 07a0 0000160b 01551701 13000017 3400030e  .....U......4...
 07b0 3a0b3b0b 390b4913 0000180b 01110112  :.;.9.I.........
 07c0 06011300 00193400 030e3a0b 3b0b390b  ......4...:.;.9.
 07d0 49130218 00001a0b 01551700 001b0b01  I........U......
 07e0 11011206 00001c0b 01011300 001d0b01  ................
 07f0 00001e01 01491300 00000111 01250e13  .....I.......%..
 0800 0b030e1b 0e110112 06101700 00022400  ..............$.
 0810 0b0b3e0b 030e0000 0324000b 0b3e0b03  ..>......$...>..
 0820 08000004 1600030e 3a0b3b05 390b4913  ........:.;.9.I.
 0830 00000526 00491300 00060101 49130113  ...&.I......I...
 0840 00000721 0049132f 0b000008 3400030e  ...!.I./....4...
 0850 3a0b3b0b 390b4913 3f193c19 00000916  :.;.9.I.?.<.....
 0860 00030e3a 0b3b0b39 0b491300 000a1301  ...:.;.9.I......
 0870 0b0b3a0b 3b0b390b 01130000 0b0d0003  ..:.;.9.........
 0880 0e3a0b3b 0b390b49 130b0b0d 0b0c0b38  .:.;.9.I.......8
 0890 0b00000c 0d000308 3a0b3b0b 390b4913  ........:.;.9.I.
 08a0 0b0b0d0b 0c0b380b 00000d17 01030e0b  ......8.........
 08b0 0b3a0b3b 0b390b01 1300000e 0d000308  .:.;.9..........
 08c0 3a0b3b0b 390b4913 00000f0d 00030e3a  :.;.9.I........:
 08d0 0b3b0b39 0b491300 00102e01 3f19030e  .;.9.I......?...
 08e0 3a0b3b0b 390b2719 49131101 12064018  :.;.9.'.I.....@.
 08f0 96421901 13000011 05000308 3a0b3b0b  .B..........:.;.
 0900 390b4913 02170000 12340003 0e3a0b3b  9.I......4...:.;
 0910 0b390b49 13021700 00133400 030e3a0b  .9.I......4...:.
 0920 3b0b390b 49131c0b 00001434 0003083a  ;.9.I......4...:
 0930 0b3b0b39 0b491300 00153400 03083a0b  .;.9.I....4...:.
 0940 3b0b390b 49130217 0000160b 01551701  ;.9.I........U..
 0950 13000017 3400030e 3a0b3b0b 390b4913  ....4...:.;.9.I.
 0960 0000180a 00030e3a 0b3b0b39 0b110100  .......:.;.9....
 0970 00190b01 11011206 01130000 1a0b0155  ...............U
 0980 1700001b 0b010113 00001c0b 01000000  ................
 0990 01110125 0e130b03 0e1b0e11 01120610  ...%............
 09a0 17000002 24000b0b 3e0b030e 00000324  ....$...>......$
 09b0 000b0b3e 0b030800 00041600 030e3a0b  ...>..........:.
 09c0 3b05390b 49130000 05260049 13000006  ;.9.I....&.I....
 09d0 01014913 01130000 07210049 132f0b00  ..I......!.I./..
 09e0 00083400 030e3a0b 3b0b390b 49133f19  ..4...:.;.9.I.?.
 09f0 3c190000 09160003 0e3a0b3b 0b390b49  <........:.;.9.I
 0a00 1300000a 13010b0b 3a0b3b0b 390b0113  ........:.;.9...
 0a10 00000b0d 00030e3a 0b3b0b39 0b49130b  .......:.;.9.I..
 0a20 0b0d0b0c 0b380b00 000c0d00 03083a0b  .....8........:.
 0a30 3b0b390b 49130b0b 0d0b0c0b 380b0000  ;.9.I.......8...
 0a40 0d170103 0e0b0b3a 0b3b0b39 0b011300  .......:.;.9....
 0a50 000e0d00 03083a0b 3b0b390b 49130000  ......:.;.9.I...
 0a60 0f0d0003 0e3a0b3b 0b390b49 13000010  .....:.;.9.I....
 0a70 2e013f19 030e3a0b 3b0b390b 27194913  ..?...:.;.9.'.I.
 0a80 11011206 40189742 19011300 00110500  ....@..B........
 0a90 03083a0b 3b0b390b 49130217 00001234  ..:.;.9.I......4
 0aa0 00030e3a 0b3b0b39 0b49131c 0b000013  ...:.;.9.I......
 0ab0 34000308 3a0b3b0b 390b4913 00001434  4...:.;.9.I....4
 0ac0 0003083a 0b3b0b39 0b491302 18000015  ...:.;.9.I......
 0ad0 34000308 3a0b3b0b 390b4913 02170000  4...:.;.9.I.....
 0ae0 16340003 0e3a0b3b 0b390b49 13021700  .4...:.;.9.I....
 0af0 00170b01 55170113 00001834 00030e3a  ....U......4...:
 0b00 0b3b0b39 0b491300 00190b01 01130000  .;.9.I..........
 0b10 1a0b0111 01120600 00000111 01250e13  .............%..
 0b20 0b030e1b 0e110112 06101700 00022400  ..............$.
 0b30 0b0b3e0b 03080000 0324000b 0b3e0b03  ..>......$...>..
 0b40 0e000004 1600030e 3a0b3b05 390b4913  ........:.;.9.I.
 0b50 00000526 00491300 00060101 49130113  ...&.I......I...
 0b60 00000721 0049132f 0b000008 3400030e  ...!.I./....4...
 0b70 3a0b3b0b 390b4913 3f193c19 00000916  :.;.9.I.?.<.....
 0b80 00030e3a 0b3b0b39 0b491300 000a1301  ...:.;.9.I......
 0b90 0b0b3a0b 3b0b390b 01130000 0b0d0003  ..:.;.9.........
 0ba0 0e3a0b3b 0b390b49 130b0b0d 0b0c0b38  .:.;.9.I.......8
 0bb0 0b00000c 0d000308 3a0b3b0b 390b4913  ........:.;.9.I.
 0bc0 0b0b0d0b 0c0b380b 00000d17 01030e0b  ......8.........
 0bd0 0b3a0b3b 0b390b01 1300000e 0d000308  .:.;.9..........
 0be0 3a0b3b0b 390b4913 00000f0d 00030e3a  :.;.9.I........:
 0bf0 0b3b0b39 0b491300 00102e01 3f19030e  .;.9.I......?...
 0c00 3a0b3b0b 390b2719 49131101 12064018  :.;.9.'.I.....@.
 0c10 96421901 13000011 05000308 3a0b3b0b  .B..........:.;.
 0c20 390b4913 02170000 12340003 083a0b3b  9.I......4...:.;
 0c30 0b390b49 13000013 34000308 3a0b3b0b  .9.I....4...:.;.
 0c40 390b4913 02170000 14340003 0e3a0b3b  9.I......4...:.;
 0c50 0b390b49 13021700 00150b01 55170113  .9.I........U...
 0c60 0000160a 00030e3a 0b3b0b39 0b000017  .......:.;.9....
 0c70 0b015517 0000180b 01000019 3400030e  ..U.........4...
 0c80 3a0b3b0b 390b4913 00001a0b 01011300  :.;.9.I.........
 0c90 00000111 00100611 01120103 0e1b0e25  ...............%
 0ca0 0e130500 00000111 01250e13 0b030e1b  .........%......
 0cb0 0e110112 06101700 00022400 0b0b3e0b  ..........$...>.
 0cc0 03080000 0324000b 0b3e0b03 0e000004  .....$...>......
 0cd0 1600030e 3a0b3b0b 390b4913 00000516  ....:.;.9.I.....
 0ce0 00030e3a 0b3b0539 0b491300 00061701  ...:.;.9.I......
 0cf0 0b0b3a0b 3b0b390b 01130000 070d0003  ..:.;.9.........
 0d00 0e3a0b3b 0b390b49 13000008 01014913  .:.;.9.I......I.
 0d10 01130000 09210049 132f0b00 000a1301  .....!.I./......
 0d20 0b0b3a0b 3b0b390b 01130000 0b0d0003  ..:.;.9.........
 0d30 0e3a0b3b 0b390b49 13380b00 000c0f00  .:.;.9.I.8......
 0d40 0b0b0000 0d130103 0e0b0b3a 0b3b0b39  ...........:.;.9
 0d50 0b011300 000e0d00 03083a0b 3b0b390b  ..........:.;.9.
 0d60 4913380b 00000f0f 000b0b49 13000010  I.8........I....
 0d70 1301030e 0b053a0b 3b0b390b 01130000  ......:.;.9.....
 0d80 110d0003 0e3a0b3b 0b390b49 13380500  .....:.;.9.I.8..
 0d90 00121500 27190000 13150127 19491301  ....'......'.I..
 0da0 13000014 05004913 00001526 00491300  ......I....&.I..
 0db0 00161301 030e0b05 3a0b3b05 390b0113  ........:.;.9...
 0dc0 0000170d 00030e3a 0b3b0539 0b491338  .......:.;.9.I.8
 0dd0 0b000018 0d00030e 3a0b3b05 390b4913  ........:.;.9.I.
 0de0 38050000 19130103 0e0b0b3a 0b3b0539  8..........:.;.9
 0df0 0b011300 001a1301 0b0b3a0b 3b05390b  ..........:.;.9.
 0e00 01130000 1b17010b 0b3a0b3b 05390b01  .........:.;.9..
 0e10 1300001c 0d00030e 3a0b3b05 390b4913  ........:.;.9.I.
 0e20 00001d13 00030e3c 1900001e 15012719  .......<......'.
 0e30 01130000 1f340003 0e3a0b3b 05390b49  .....4...:.;.9.I
 0e40 133f193c 19000020 21000000 21340003  .?.<... !...!4..
 0e50 0e3a0b3b 0b390b49 133f193c 19000022  .:.;.9.I.?.<..."
 0e60 26000000 23040103 0e3e0b0b 0b49133a  &...#....>...I.:
 0e70 0b3b0b39 0b011300 00242800 030e1c0b  .;.9.....$(.....
 0e80 0000252e 013f1903 0e3a0b3b 05390b27  ..%..?...:.;.9.'
 0e90 19491311 01120640 18974219 00002605  .I.....@..B...&.
 0ea0 0003083a 0b3b0539 0b491302 17000027  ...:.;.9.I.....'
 0eb0 34000308 3a0b3b05 390b4913 0000280b  4...:.;.9.I...(.
 0ec0 01551700 00293400 030e3a0b 3b05390b  .U...)4...:.;.9.
 0ed0 49130217 00002a34 0003083a 0b3b0539  I.....*4...:.;.9
 0ee0 0b491302 17000000 01110125 0e130b03  .I.........%....
 0ef0 0e1b0e10 17000002 24000b0b 3e0b0308  ........$...>...
 0f00 00000324 000b0b3e 0b030e00 00041600  ...$...>........
 0f10 030e3a0b 3b0b390b 49130000 05160003  ..:.;.9.I.......
 0f20 0e3a0b3b 05390b49 13000006 17010b0b  .:.;.9.I........
 0f30 3a0b3b0b 390b0113 0000070d 00030e3a  :.;.9..........:
 0f40 0b3b0b39 0b491300 00080101 49130113  .;.9.I......I...
 0f50 00000921 0049132f 0b00000a 13010b0b  ...!.I./........
 0f60 3a0b3b0b 390b0113 00000b0d 00030e3a  :.;.9..........:
 0f70 0b3b0b39 0b491338 0b00000c 0f000b0b  .;.9.I.8........
 0f80 00000d13 01030e0b 0b3a0b3b 0b390b01  .........:.;.9..
 0f90 1300000e 0d000308 3a0b3b0b 390b4913  ........:.;.9.I.
 0fa0 380b0000 0f0f000b 0b491300 00101301  8........I......
 0fb0 030e0b05 3a0b3b0b 390b0113 0000110d  ....:.;.9.......
 0fc0 00030e3a 0b3b0b39 0b491338 05000012  ...:.;.9.I.8....
 0fd0 15002719 00001315 01271949 13011300  ..'......'.I....
 0fe0 00140500 49130000 15260049 13000016  ....I....&.I....
 0ff0 1301030e 0b053a0b 3b05390b 01130000  ......:.;.9.....
 1000 170d0003 0e3a0b3b 05390b49 13380b00  .....:.;.9.I.8..
 1010 00180d00 030e3a0b 3b05390b 49133805  ......:.;.9.I.8.
 1020 00001913 01030e0b 0b3a0b3b 05390b01  .........:.;.9..
 1030 1300001a 13010b0b 3a0b3b05 390b0113  ........:.;.9...
 1040 00001b17 010b0b3a 0b3b0539 0b011300  .......:.;.9....
 1050 001c0d00 030e3a0b 3b05390b 49130000  ......:.;.9.I...
 1060 1d130003 0e3c1900 001e1501 27190113  .....<......'...
 1070 00001f34 00030e3a 0b3b0539 0b49133f  ...4...:.;.9.I.?
 1080 193c1900 00202100 00002134 00030e3a  .<... !...!4...:
 1090 0b3b0b39 0b49133f 193c1900 00222600  .;.9.I.?.<..."&.
 10a0 00002304 01030e3e 0b0b0b49 133a0b3b  ..#....>...I.:.;
 10b0 0b390b01 13000024 2800030e 1c0b0000  .9.....$(.......
 10c0 25340047 133a0b3b 05390b02 18000000  %4.G.:.;.9......
Contents of section .debug_aranges:
 0000 1c000000 02000000 00000400 00000000  ................
 0010 00000000 10000000 00000000 00000000  ................
 0020 24000000 02002600 00000400 00000000  $.....&.........
 0030 30010000 04000000 a01d0000 20040000  0........... ...
 0040 00000000 00000000 1c000000 0200820c  ................
 0050 00000400 00000000 34010000 c0070000  ........4.......
 0060 00000000 00000000 1c000000 02002712  ..............'.
 0070 00000400 00000000 f4080000 e8000000  ................
 0080 00000000 00000000 1c000000 0200ab14  ................
 0090 00000400 00000000 dc090000 70060000  ............p...
 00a0 00000000 00000000 1c000000 02009b1e  ................
 00b0 00000400 00000000 4c100000 c4070000  ........L.......
 00c0 00000000 00000000 1c000000 02004024  ..............@$
 00d0 00000400 00000000 10180000 80000000  ................
 00e0 00000000 00000000 1c000000 02005726  ..............W&
 00f0 00000400 00000000 90180000 ac000000  ................
 0100 00000000 00000000 1c000000 02001329  ...............)
 0110 00000400 00000000 3c190000 24000000  ........<...$...
 0120 00000000 00000000 1c000000 02003929  ..............9)
 0130 00000400 00000000 60190000 48000000  ........`...H...
 0140 00000000 00000000 14000000 0200e534  ...............4
 0150 00000400 00000000 00000000 00000000  ................
Contents of section .debug_str:
 0000 7372632f 696e6974 2e73002f 686f6d65  src/init.s./home
 0010 2f737475 64656e74 2f6f7474 65722d70  /student/otter-p
 0020 726f6772 616d732f 66667400 474e5520  rograms/fft.GNU 
 0030 41532032 2e33312e 31007372 632f6666  AS 2.31.1.src/ff
 0040 742e6300 5f73697a 6500745f 7265005f  t.c._size.t_re._
 0050 72616e64 3438005f 656d6572 67656e63  rand48._emergenc
 0060 79005f64 61746100 5f776372 746f6d62  y._data._wcrtomb
 0070 5f737461 7465005f 77637372 746f6d62  _state._wcsrtomb
 0080 735f7374 61746500 6c6f6e67 206c6f6e  s_state.long lon
 0090 6720756e 7369676e 65642069 6e74005f  g unsigned int._
 00a0 5f66646c 69626d5f 706f7369 78005f6c  _fdlibm_posix._l
 00b0 62667369 7a65005f 5f6c6f63 616c655f  bfsize.__locale_
 00c0 74005f5f 66646c69 626d5f78 6f70656e  t.__fdlibm_xopen
 00d0 005f6d62 72746f77 635f7374 61746500  ._mbrtowc_state.
 00e0 5f776374 6f6d625f 73746174 65005f5f  _wctomb_state.__
 00f0 746d5f73 6563006c 6f6e6720 6c6f6e67  tm_sec.long long
 0100 20696e74 00535345 475f4144 4452005f   int.SSEG_ADDR._
 0110 75627566 00746573 7449005f 62617365  ubuf.testI._base
 0120 005f5f74 6d5f686f 75720041 5f696d00  .__tm_hour.A_im.
 0130 5f5f7366 005f6f6e 5f657869 745f6172  __sf._on_exit_ar
 0140 6773005f 636f6f6b 6965005f 5f73676c  gs._cookie.__sgl
 0150 7565005f 666c6167 73005f69 735f6378  ue._flags._is_cx
 0160 61005f73 7464696e 005f5f66 646c6962  a._stdin.__fdlib
 0170 6d5f7376 6964005f 626c6b73 697a6500  m_svid._blksize.
 0180 5f637674 62756600 5f6f6666 73657400  _cvtbuf._offset.
 0190 5f6d6273 72746f77 63735f73 74617465  _mbsrtowcs_state
 01a0 005f6d62 726c656e 5f737461 7465005f  ._mbrlen_state._
 01b0 666e6172 6773005f 666e7300 5f736967  fnargs._fns._sig
 01c0 6e005f66 6c6f636b 5f74005f 73746465  n._flock_t._stde
 01d0 7272005f 42696769 6e74005f 67616d6d  rr._Bigint._gamm
 01e0 615f7369 676e6761 6d005f72 65616400  a_signgam._read.
 01f0 5f726573 756c745f 6b005f5f 746d005f  _result_k.__tm._
 0200 5f776368 62005f73 74646f75 74005f63  _wchb._stdout._c
 0210 76746c65 6e006c6f 6f6b7570 49005f64  vtlen.lookupI._d
 0220 736f5f68 616e646c 6500415f 7265006c  so_handle.A_re.l
 0230 6f6f6b75 7052005f 6e696f62 73007368  ookupR._niobs.sh
 0240 6f727420 756e7369 676e6564 20696e74  ort unsigned int
 0250 005f6174 65786974 30005f73 69676e61  ._atexit0._signa
 0260 6c5f6275 66005f61 73637469 6d655f62  l_buf._asctime_b
 0270 7566005f 72657375 6c74005f 5f776368  uf._result.__wch
 0280 0077696e 745f7400 5f6c6f63 6b005f66  .wint_t._lock._f
 0290 6c616773 3200474e 55204331 3720382e  lags2.GNU C17 8.
 02a0 322e3020 2d6d6172 63683d72 76333269  2.0 -march=rv32i
 02b0 202d6d61 62693d69 6c703332 202d6720   -mabi=ilp32 -g 
 02c0 2d4f3300 5f777269 7465005f 5f746d5f  -O3._write.__tm_
 02d0 79656172 005f6e6d 616c6c6f 63006d61  year._nmalloc.ma
 02e0 785f696e 64657800 775f696d 005f6e65  x_index.w_im._ne
 02f0 78746600 6d61785f 76616c00 5f5f746d  xtf.max_val.__tm
 0300 5f6d6f6e 005f6174 65786974 005f7761  _mon._atexit._wa
 0310 6974005f 5f736469 64696e69 74005f6f  it.__sdidinit._o
 0320 66665f74 0053414d 504c455f 52415445  ff_t.SAMPLE_RATE
 0330 005f6672 65656c69 73740074 65737441  ._freelist.testA
 0340 72726179 005f4c4f 434b5f52 45435552  rray._LOCK_RECUR
 0350 53495645 5f540075 6e736967 6e656420  SIVE_T.unsigned 
 0360 63686172 005f6e65 77005f68 5f657272  char._new._h_err
 0370 6e6f0073 686f7274 20696e74 005f5f74  no.short int.__t
 0380 6d5f7964 6179005f 5f736275 66005f69  m_yday.__sbuf._i
 0390 6f627300 5f5f4649 4c45005f 6d627374  obs.__FILE._mbst
 03a0 6174655f 74005f5f 7346494c 45005f6d  ate_t.__sFILE._m
 03b0 62737461 7465005f 72616e64 5f6e6578  bstate._rand_nex
 03c0 74005f6d 626c656e 5f737461 7465005f  t._mblen_state._
 03d0 696e6300 5f696e64 005f6c6f 63616c65  inc._ind._locale
 03e0 005f5f63 6c65616e 7570005f 756e7370  .__cleanup._unsp
 03f0 65636966 6965645f 6c6f6361 6c655f69  ecified_locale_i
 0400 6e666f00 5f6d6178 77647300 5f726565  nfo._maxwds._ree
 0410 6e74005f 73656564 005f5f63 6f756e74  nt._seed.__count
 0420 005f5f76 616c7565 005f7365 656b005f  .__value._seek._
 0430 66706f73 5f740057 5f696d00 755f696d  fpos_t.W_im.u_im
 0440 00775f72 65005f5f 746d5f6d 696e005f  .w_re.__tm_min._
 0450 6d756c74 005f7374 72746f6b 5f6c6173  mult._strtok_las
 0460 74005f66 6e747970 6573006d 61785f66  t._fntypes.max_f
 0470 72657100 5f616464 005f5f55 4c6f6e67  req._add.__ULong
 0480 005f6765 74646174 655f6572 72005f5f  ._getdate_err.__
 0490 66646c69 626d5f76 65727369 6f6e005f  fdlibm_version._
 04a0 676c6f62 616c5f69 6d707572 655f7074  global_impure_pt
 04b0 72005f5f 66646c69 626d5f69 65656500  r.__fdlibm_ieee.
 04c0 745f696d 005f756e 75736564 5f72616e  t_im._unused_ran
 04d0 64004c45 4453005f 66696c65 005f7764  d.LEDS._file._wd
 04e0 73005f5f 746d5f77 64617900 5f676c75  s.__tm_wday._glu
 04f0 65005f5f 66646c69 625f7665 7273696f  e.__fdlib_versio
 0500 6e005f73 73697a65 5f74005f 6c363461  n._ssize_t._l64a
 0510 5f627566 005f7369 675f6675 6e630057  _buf._sig_func.W
 0520 5f726500 755f7265 005f6e62 7566005f  _re.u_re._nbuf._
 0530 756e7573 6564005f 5f746d5f 69736473  unused.__tm_isds
 0540 74005f6c 6f63616c 74696d65 5f627566  t._localtime_buf
 0550 005f636c 6f736500 5f723438 005f6d62  ._close._r48._mb
 0560 746f7763 5f737461 7465005f 70357300  towc_state._p5s.
 0570 6d61696e 005f5f74 6d5f6d64 61790073  main.__tm_mday.s
 0580 75623200 5f5f6164 64646633 00667261  ub2.__adddf3.fra
 0590 63300066 72616331 005f4650 5f504143  c0.frac1._FP_PAC
 05a0 4b5f5241 575f325f 666c6f00 44467479  K_RAW_2_flo.DFty
 05b0 70650061 64645f64 6f6e6500 525f6630  pe.add_done.R_f0
 05c0 005f4650 5f554e50 41434b5f 5241575f  ._FP_UNPACK_RAW_
 05d0 325f666c 6f005f46 505f5041 434b5f53  2_flo._FP_PACK_S
 05e0 454d4952 41575f54 5f730041 5f663100  EMIRAW_T_s.A_f1.
 05f0 73756231 005f6665 78007375 6233005f  sub1._fex.sub3._
 0600 46505f50 41434b5f 53454d49 5241575f  FP_PACK_SEMIRAW_
 0610 545f6500 6e6f726d 00415f66 30005551  T_e.norm.A_f0.UQ
 0620 49747970 65005f5f 636c7a5f 74616200  Itype.__clz_tab.
 0630 2e2e2f2e 2e2f2e2e 2f2e2f72 69736376  ../../.././riscv
 0640 2d676363 2f6c6962 6763632f 736f6674  -gcc/libgcc/soft
 0650 2d66702f 61646464 66332e63 00425f66  -fp/adddf3.c.B_f
 0660 3000425f 6631005f 46505f41 44445f49  0.B_f1._FP_ADD_I
 0670 4e544552 4e414c5f 64696666 005f4650  NTERNAL_diff._FP
 0680 5f504143 4b5f5345 4d495241 575f6973  _PACK_SEMIRAW_is
 0690 5f74696e 79002f68 6f6d652f 73747564  _tiny./home/stud
 06a0 656e742f 72697363 762d746f 6f6c732f  ent/riscv-tools/
 06b0 72697363 762d676e 752d746f 6f6c6368  riscv-gnu-toolch
 06c0 61696e2f 6275696c 642d6763 632d6e65  ain/build-gcc-ne
 06d0 776c6962 2d737461 6765322f 72697363  wlib-stage2/risc
 06e0 7633322d 756e6b6e 6f776e2d 656c662f  v32-unknown-elf/
 06f0 6c696267 6363005f 46505f50 41434b5f  libgcc._FP_PACK_
 0700 53454d49 5241575f 545f6631 005f4650  SEMIRAW_T_f1._FP
 0710 5f504143 4b5f5345 4d495241 575f545f  _PACK_SEMIRAW_T_
 0720 6630005f 46505f41 44445f49 4e544552  f0._FP_ADD_INTER
 0730 4e414c5f 65646966 66005f46 505f554e  NAL_ediff._FP_UN
 0740 494f4e5f 4400474e 55204331 3720382e  ION_D.GNU C17 8.
 0750 322e3020 2d6d636d 6f64656c 3d6d6564  2.0 -mcmodel=med
 0760 6c6f7720 2d6d636d 6f64656c 3d6d6564  low -mcmodel=med
 0770 6c6f7720 2d6d6172 63683d72 76333269  low -march=rv32i
 0780 202d6d61 62693d69 6c703332 202d6720   -mabi=ilp32 -g 
 0790 2d4f7320 2d4f3220 2d4f7320 2d666275  -Os -O2 -Os -fbu
 07a0 696c6469 6e672d6c 69626763 63202d66  ilding-libgcc -f
 07b0 6e6f2d73 7461636b 2d70726f 74656374  no-stack-protect
 07c0 6f72202d 66766973 6962696c 6974793d  or -fvisibility=
 07d0 68696464 656e005f 46505f50 41434b5f  hidden._FP_PACK_
 07e0 53454d49 5241575f 545f6300 7375625f  SEMIRAW_T_c.sub_
 07f0 646f6e65 00616464 31006164 64320061  done.add1.add2.a
 0800 64643300 62697473 005f6672 6d00525f  dd3.bits._frm.R_
 0810 6631005f 5f676564 6632005f 46505f43  f1.__gedf2._FP_C
 0820 4d505f69 735f7a65 726f5f79 005f5f67  MP_is_zero_y.__g
 0830 63635f43 4d507479 7065005f 46505f49  cc_CMPtype._FP_I
 0840 53534947 4e414e5f 72657400 5f46505f  SSIGNAN_ret._FP_
 0850 434d505f 69735f7a 65726f5f 78002e2e  CMP_is_zero_x...
 0860 2f2e2e2f 2e2e2f2e 2f726973 63762d67  /../.././riscv-g
 0870 63632f6c 69626763 632f736f 66742d66  cc/libgcc/soft-f
 0880 702f6765 6466322e 63005f46 505f5041  p/gedf2.c._FP_PA
 0890 434b5f43 414e4f4e 4943414c 5f545f66  CK_CANONICAL_T_f
 08a0 30005f46 505f5041 434b5f43 414e4f4e  0._FP_PACK_CANON
 08b0 4943414c 5f545f66 31005f5f 7568005f  ICAL_T_f1.__uh._
 08c0 5f756c00 55485774 79706500 5f5f6f70  _ul.UHWtype.__op
 08d0 30005f5f 6f703100 5f5f7832 005f4650  0.__op1.__x2._FP
 08e0 5f554e50 41434b5f 43414e4f 4e494341  _UNPACK_CANONICA
 08f0 4c5f7368 69667400 2e2e2f2e 2e2f2e2e  L_shift.../../..
 0900 2f2e2f72 69736376 2d676363 2f6c6962  /./riscv-gcc/lib
 0910 6763632f 736f6674 2d66702f 6d756c64  gcc/soft-fp/muld
 0920 66332e63 005f4650 5f465241 435f5352  f3.c._FP_FRAC_SR
 0930 535f345f 73746963 6b79005f 46505f46  S_4_sticky._FP_F
 0940 5241435f 53525354 5f345f64 6f776e00  RAC_SRST_4_down.
 0950 5f46505f 5041434b 5f43414e 4f4e4943  _FP_PACK_CANONIC
 0960 414c5f54 5f65005f 46505f46 5241435f  AL_T_e._FP_FRAC_
 0970 53525354 5f345f69 005f4650 5f465241  SRST_4_i._FP_FRA
 0980 435f5352 53545f34 5f736b69 70005f46  C_SRST_4_skip._F
 0990 505f5041 434b5f43 414e4f4e 4943414c  P_PACK_CANONICAL
 09a0 5f545f73 005f4650 5f504143 4b5f4341  _T_s._FP_PACK_CA
 09b0 4e4f4e49 43414c5f 69735f74 696e7900  NONICAL_is_tiny.
 09c0 5f46505f 46524143 5f535253 545f345f  _FP_FRAC_SRST_4_
 09d0 73005f46 505f5041 434b5f43 414e4f4e  s._FP_PACK_CANON
 09e0 4943414c 5f545f63 005f5f78 31005f5f  ICAL_T_c.__x1.__
 09f0 7833005f 5f766800 5f46505f 46524143  x3.__vh._FP_FRAC
 0a00 5f535253 545f345f 7570005f 5f766c00  _SRST_4_up.__vl.
 0a10 5f5f6d75 6c646633 005f4650 5f4d554c  __muldf3._FP_MUL
 0a20 5f4d4541 545f4457 5f325f77 6964655f  _MEAT_DW_2_wide_
 0a30 635f6630 005f4650 5f4d554c 5f4d4541  c_f0._FP_MUL_MEA
 0a40 545f4457 5f325f77 6964655f 635f6631  T_DW_2_wide_c_f1
 0a50 005f5f46 505f4652 41435f41 44445f33  .__FP_FRAC_ADD_3
 0a60 5f633200 5f46505f 4d554c5f 4d454154  _c2._FP_MUL_MEAT
 0a70 5f325f77 6964655f 7a5f6600 5f5f7830  _2_wide_z_f.__x0
 0a80 005f5f46 505f4652 41435f41 44445f33  .__FP_FRAC_ADD_3
 0a90 5f633100 5f46505f 4d554c5f 4d454154  _c1._FP_MUL_MEAT
 0aa0 5f44575f 325f7769 64655f62 5f663000  _DW_2_wide_b_f0.
 0ab0 5f46505f 4d554c5f 4d454154 5f44575f  _FP_MUL_MEAT_DW_
 0ac0 325f7769 64655f62 5f663100 5f5f7375  2_wide_b_f1.__su
 0ad0 62646633 002e2e2f 2e2e2f2e 2e2f2e2f  bdf3.../../.././
 0ae0 72697363 762d6763 632f6c69 62676363  riscv-gcc/libgcc
 0af0 2f736f66 742d6670 2f737562 6466332e  /soft-fp/subdf3.
 0b00 63002e2e 2f2e2e2f 2e2e2f2e 2f726973  c.../../.././ris
 0b10 63762d67 63632f6c 69626763 632f736f  cv-gcc/libgcc/so
 0b20 66742d66 702f6669 78646673 692e6300  ft-fp/fixdfsi.c.
 0b30 5f46505f 544f5f49 4e545f69 6e657861  _FP_TO_INT_inexa
 0b40 6374005f 5f666978 64667369 00555349  ct.__fixdfsi.USI
 0b50 74797065 002e2e2f 2e2e2f2e 2e2f2e2f  type.../../.././
 0b60 72697363 762d6763 632f6c69 62676363  riscv-gcc/libgcc
 0b70 2f736f66 742d6670 2f666c6f 61747369  /soft-fp/floatsi
 0b80 64662e63 00706163 6b5f7365 6d697261  df.c.pack_semira
 0b90 77005f46 505f4652 4f4d5f49 4e545f75  w._FP_FROM_INT_u
 0ba0 72005f46 505f4652 4f4d5f49 4e545f6c  r._FP_FROM_INT_l
 0bb0 7a005f5f 666c6f61 74736964 66002e2e  z.__floatsidf...
 0bc0 2f2e2e2f 2e2e2f2e 2f726973 63762d67  /../.././riscv-g
 0bd0 63632f6c 69626763 632f636f 6e666967  cc/libgcc/config
 0be0 2f726973 63762f6d 756c6469 332e5300  /riscv/muldi3.S.
 0bf0 68746162 5f686173 685f706f 696e7465  htab_hash_pointe
 0c00 72005f64 61796c69 67687400 636f6d70  r._daylight.comp
 0c10 6c657820 646f7562 6c650063 6f6d706c  lex double.compl
 0c20 6578206c 6f6e6720 646f7562 6c650072  ex long double.r
 0c30 69736376 5f616269 005f747a 6e616d65  iscv_abi._tzname
 0c40 00756e73 70656376 5f737472 696e6773  .unspecv_strings
 0c50 005f7379 735f6572 726c6973 74007269  ._sys_errlist.ri
 0c60 7363765f 636d6f64 656c0072 69736376  scv_cmodel.riscv
 0c70 5f616269 5f747970 65006861 73687661  _abi_type.hashva
 0c80 6c5f7400 5f5f636c 7a736932 00414249  l_t.__clzsi2.ABI
 0c90 5f494c50 33324600 656e7669 726f6e00  _ILP32F.environ.
 0ca0 4142495f 494c5033 32440041 42495f49  ABI_ILP32D.ABI_I
 0cb0 4c503332 4500756e 73706563 5f737472  LP32E.unspec_str
 0cc0 696e6773 006f7074 72657365 74007269  ings.optreset.ri
 0cd0 7363765f 636f6465 5f6d6f64 656c006f  scv_code_model.o
 0ce0 7074696e 6400636f 6d706c65 7820666c  ptind.complex fl
 0cf0 6f617400 7375626f 70746172 67005f74  oat.suboptarg._t
 0d00 696d657a 6f6e6500 4142495f 4c503634  imezone.ABI_LP64
 0d10 00414249 5f494c50 33320043 4d5f4d45  .ABI_ILP32.CM_ME
 0d20 44414e59 00434d5f 4d45444c 4f570068  DANY.CM_MEDLOW.h
 0d30 7461625f 68617368 005f7379 735f6e65  tab_hash._sys_ne
 0d40 7272006f 70746572 7200434d 5f504943  rr.opterr.CM_PIC
 0d50 00687461 625f6571 5f706f69 6e746572  .htab_eq_pointer
 0d60 005f5f78 72005f5f 706f7063 6f756e74  .__xr.__popcount
 0d70 5f746162 00414249 5f4c5036 3444006f  _tab.ABI_LP64D.o
 0d80 70746f70 74004142 495f4c50 36344600  ptopt.ABI_LP64F.
 0d90 2e2e2f2e 2e2f2e2e 2f2e2f72 69736376  ../../.././riscv
 0da0 2d676363 2f6c6962 6763632f 6c696267  -gcc/libgcc/libg
 0db0 6363322e 63006874 61625f65 7100      cc2.c.htab_eq.  
Contents of section .debug_loc:
 0000 281e0000 bc1e0000 030091c0 7bbc1e00  (...........{...
 0010 00c01e00 00020078 00c01e00 00241f00  .......x.....$..
 0020 00030091 c07b241f 00002c1f 00000200  .....{$...,.....
 0030 8e002c1f 0000c021 00000300 91c07b00  ..,....!......{.
 0040 00000000 00000028 1e0000d4 1e000003  .......(........
 0050 0091c07d d41e0000 e41e0000 02007f00  ...}............
 0060 e41e0000 041f0000 030091c0 7d041f00  ............}...
 0070 002c1f00 0002008d 002c1f00 00c02100  .,.......,....!.
 0080 00030091 c07d0000 00000000 00003021  .....}........0!
 0090 00006c21 00000600 65930464 93047021  ..l!....e..d..p!
 00a0 0000c021 00000600 65930464 93040000  ...!....e..d....
 00b0 00000000 00003021 00003821 00000200  ......0!..8!....
 00c0 309f3821 00006821 00000100 66702100  0.8!..h!....fp!.
 00d0 00c02100 00010066 00000000 00000000  ..!....f........
 00e0 b81e0000 c01e0000 0200309f c01e0000  ..........0.....
 00f0 d01e0000 05003179 001c9fd0 1e0000dc  ......1y........
 0100 1e000005 00327900 1c9fdc1e 0000fc1e  .....2y.........
 0110 00000500 3179001c 9f000000 00000000  ....1y..........
 0120 00302100 00382100 00020031 9f382100  .0!..8!....1.8!.
 0130 00c02100 00010059 00000000 00000000  ..!....Y........
 0140 ec1e0000 18210000 03000820 9f000000  .....!..... ....
 0150 00000000 00ec1e00 00181f00 00040091  ................
 0160 c07a9f18 1f00002c 1f000001 00552c1f  .z.....,.....U,.
 0170 00001821 00000400 91c07a9f 00000000  ...!......z.....
 0180 00000000 ec1e0000 141f0000 040091c0  ................
 0190 799f141f 00002c1f 00000100 6f2c1f00  y.....,.....o,..
 01a0 00182100 00040091 c0799f00 00000000  ..!......y......
 01b0 000000ec 1e000004 1f000004 0091c07d  ...............}
 01c0 9f041f00 002c1f00 0001006d 2c1f0000  .....,.....m,...
 01d0 18210000 040091c0 7d9f0000 00000000  .!......}.......
 01e0 0000ec1e 0000241f 00000400 91c07b9f  ......$.......{.
 01f0 241f0000 2c1f0000 01006e2c 1f000018  $...,.....n,....
 0200 21000004 0091c07b 9f000000 00000000  !......{........
 0210 00401f00 00182100 00020072 00000000  .@....!....r....
 0220 00000000 00541f00 00182100 00030091  .....T....!.....
 0230 e8780000 00000000 00003820 0000e020  .x........8 ... 
 0240 00000600 66930467 93040000 00000000  ....f..g........
 0250 00004820 0000e020 00000600 62930463  ..H ... ....b..c
 0260 93040000 00000000 0000dc1f 0000e01f  ................
 0270 00000300 91f07800 00000000 00000038  ......x........8
 0280 200000e0 20000006 00649304 65930400   ... ....d..e...
 0290 00000000 000000ec 1e0000fc 1e000003  ................
 02a0 0008209f fc1e0000 00210000 03009194  .. ......!......
 02b0 79002100 00182100 00030091 a0790000  y.!...!......y..
 02c0 00000000 0000101f 00002c1f 00000200  ..........,.....
 02d0 309f2c1f 00001821 00000100 59000000  0.,....!....Y...
 02e0 00000000 00541f00 00741f00 00010059  .....T...t.....Y
 02f0 00000000 00000000 101f0000 2c1f0000  ............,...
 0300 01005f2c 1f000018 21000003 0091a079  .._,....!......y
 0310 00000000 00000000 101f0000 2c1f0000  ............,...
 0320 0200309f 00000000 00000000 00000000  ..0.............
 0330 5c000000 06005a93 045b9304 5c000000  \.....Z..[..\...
 0340 c0070000 0600f303 f50a259f 00000000  ..........%.....
 0350 00000000 00000000 60000000 06005c93  ........`.....\.
 0360 045d9304 60000000 c0070000 0600f303  .]..`...........
 0370 f50c259f 00000000 00000000 00000000  ..%.............
 0380 a4000000 0200309f ac000000 bc010000  ......0.........
 0390 0200309f c8010000 b4020000 0200309f  ..0...........0.
 03a0 fc020000 88050000 0200309f a8050000  ..........0.....
 03b0 e8060000 0200309f 74070000 a4070000  ......0.t.......
 03c0 0200309f 00000000 00000000 50000000  ..0.........P...
 03d0 a4000000 010062ac 000000b4 02000001  ......b.........
 03e0 0062dc02 0000ec02 00000100 62fc0200  .b..........b...
 03f0 00580300 00010062 60030000 b0030000  .X.....b`.......
 0400 010062cc 03000054 04000001 00625804  ..b....T.....bX.
 0410 0000d004 00000100 62d40400 00400500  ........b....@..
 0420 00010062 44050000 9c050000 010062a0  ...bD.........b.
 0430 050000d4 05000001 00624406 00005806  .........bD...X.
 0440 00000100 62c00600 00e80600 00010062  ....b..........b
 0450 74070000 98070000 0100629c 070000ac  t.........b.....
 0460 07000001 00620000 00000000 00003800  .....b........8.
 0470 00009800 00000100 599c0000 00a80000  ........Y.......
 0480 00010059 ac000000 08010000 01005944  ...Y..........YD
 0490 01000024 02000001 00592802 0000b402  ...$.....Y(.....
 04a0 00000100 59dc0200 00f80200 00010059  ....Y..........Y
 04b0 fc020000 28030000 01005928 0300002c  ....(.....Y(...,
 04c0 03000003 007d7f9f 2c030000 5c030000  .....}..,...\...
 04d0 01005960 030000b0 03000001 0059cc03  ..Y`.........Y..
 04e0 00006c04 00000100 59700400 00cc0400  ..l.....Yp......
 04f0 00010059 d4040000 3c050000 01005944  ...Y....<.....YD
 0500 050000d4 05000001 00594406 00005406  .........YD...T.
 0510 00000100 59c00600 00cc0600 00010059  ....Y..........Y
 0520 d0060000 e0060000 01005974 07000078  ..........Yt...x
 0530 07000001 00597807 00007c07 00000900  .....Yx...|.....
 0540 7b004425 0aff071a 9f7c0700 00880700  {.D%.....|......
 0550 00010059 8c070000 94070000 0100599c  ...Y..........Y.
 0560 070000b4 07000001 00590000 00000000  .........Y......
 0570 00000000 00008800 00000100 5a9c0000  ............Z...
 0580 00a40000 0001005a ac000000 08010000  .......Z........
 0590 01005a44 010000a4 01000001 005ab401  ..ZD.........Z..
 05a0 0000c401 00000100 5ac80100 00000200  ........Z.......
 05b0 0001005a 0c020000 14020000 01005a28  ...Z..........Z(
 05c0 0200004c 02000001 005a5c02 00006002  ...L.....Z\...`.
 05d0 00000100 5a680200 00940200 0001005a  ....Zh.........Z
 05e0 dc020000 f4020000 01005afc 02000018  ..........Z.....
 05f0 03000001 005a2c03 00004c03 00000100  .....Z,...L.....
 0600 5a600300 00b00300 0001005a cc030000  Z`.........Z....
 0610 44040000 01005a58 04000068 04000001  D.....ZX...h....
 0620 005a7004 0000a804 00000100 5ab40400  .Zp.........Z...
 0630 00bc0400 0001005a d4040000 f8040000  .......Z........
 0640 01005a08 0500000c 05000001 005a1405  ..Z..........Z..
 0650 00003c05 00000100 5a440500 00640500  ..<.....ZD...d..
 0660 0001005a 74050000 78050000 01005a88  ...Zt...x.....Z.
 0670 05000098 05000001 005aa005 0000d405  .........Z......
 0680 00000100 5a440600 00480600 0001005a  ....ZD...H.....Z
 0690 c0060000 c8060000 01005ad0 060000d8  ..........Z.....
 06a0 06000001 005adc06 0000e006 00000100  .....Z..........
 06b0 5a740700 00840700 0001005a 8c070000  Zt.........Z....
 06c0 94070000 01005aa4 070000a8 07000001  ......Z.........
 06d0 005a0000 00000000 00000c00 00001000  .Z..............
 06e0 00000100 61100000 00200000 00060080  ....a.... ......
 06f0 007b001a 9f200000 00500000 0009007b  .{... ...P.....{
 0700 000cffff 0f001a9f 50000000 8c000000  ........P.......
 0710 01005f9c 000000a4 00000001 005fac00  .._.........._..
 0720 00000001 00000100 5f440100 00a80100  ........_D......
 0730 0001005f b4010000 c0010000 01005fc8  ..._.........._.
 0740 01000010 02000001 005f1002 00002802  ........._....(.
 0750 00000100 5d280200 00540200 0001005f  ....](...T....._
 0760 5c020000 90020000 01005fdc 020000f0  \........._.....
 0770 02000001 005ffc02 00001003 00000100  ....._..........
 0780 5f2c0300 00500300 0001005f 60030000  _,...P....._`...
 0790 a8030000 01005fcc 03000048 04000001  ......_....H....
 07a0 005f5804 00006404 00000100 5f700400  ._X...d....._p..
 07b0 00b80400 0001005f b8040000 d4040000  ......._........
 07c0 01005bd4 04000000 05000001 005f0805  ..[.........._..
 07d0 00003805 00000100 5f440500 00680500  ..8....._D...h..
 07e0 0001005f 74050000 80050000 01005f88  ..._t........._.
 07f0 05000094 05000001 005fa005 0000c805  ........._......
 0800 00000100 5f440600 00500600 0001005f  ...._D...P....._
 0810 c0060000 c4060000 01005fd0 060000d4  .........._.....
 0820 06000001 005fdc06 0000e006 00000100  ....._..........
 0830 5f740700 00800700 0001005f 8c070000  _t........._....
 0840 90070000 01005f9c 070000a0 07000001  ......_.........
 0850 005fa407 0000b007 00000100 5f000000  ._.........._...
 0860 00000000 005c0000 00740000 0001005d  .....\...t.....]
 0870 ac000000 b0000000 01005d84 01000094  ..........].....
 0880 01000001 005dc801 0000cc01 00000100  .....]..........
 0890 5d680200 006c0200 0001005d 2c030000  ]h...l.....],...
 08a0 38030000 01005dcc 030000d0 03000001  8.....].........
 08b0 005d2404 0000d405 00000100 5d440600  .]$.........]D..
 08c0 00580600 0001005d 7c070000 b4070000  .X.....]|.......
 08d0 01005d00 00000000 0000005c 000000e0  ..]........\....
 08e0 00000001 00614401 00004c01 00000100  .....aD...L.....
 08f0 61780100 00b40200 00010061 dc020000  ax.........a....
 0900 88030000 010061cc 030000ec 03000001  ......a.........
 0910 00611804 00003c05 00000100 61440500  .a....<.....aD..
 0920 00500500 00010061 88050000 d4050000  .P.....a........
 0930 01006144 06000058 06000001 0061c006  ..aD...X.....a..
 0940 0000e006 00000100 61740700 00940700  ........at......
 0950 00010061 a4070000 b4070000 01006100  ...a..........a.
 0960 00000000 0000005c 00000084 00000001  .......\........
 0970 005c9c00 0000a400 00000100 5cac0000  .\..........\...
 0980 00e40000 0001005c f0000000 f8000000  .......\........
 0990 01005c44 01000068 01000001 005c7801  ..\D...h.....\x.
 09a0 00007c01 00000100 5c840100 00ac0100  ..|.....\.......
 09b0 0001005c b4010000 1c020000 01005c28  ...\..........\(
 09c0 0200008c 02000001 005cdc02 0000e402  .........\......
 09d0 00000100 5cfc0200 00080300 0001005c  ....\..........\
 09e0 2c030000 48030000 01005c60 0300008c  ,...H.....\`....
 09f0 03000001 005c9803 0000a003 00000100  .....\..........
 0a00 5ccc0300 00080400 0001005c 18040000  \..........\....
 0a10 1c040000 01005c24 0400004c 04000001  ......\$...L....
 0a20 005c5804 0000c404 00000100 5cd40400  .\X.........\...
 0a30 003c0500 0001005c 44050000 6c050000  .<.....\D...l...
 0a40 01005c74 050000cc 05000001 005c4406  ..\t.........\D.
 0a50 00005806 00000100 5cc00600 00e00600  ..X.....\.......
 0a60 0001005c 74070000 b4070000 01005c00  ...\t.........\.
 0a70 00000000 0000005c 000000fc 00000001  .......\........
 0a80 005e4401 00007001 00000100 5e780100  .^D...p.....^x..
 0a90 009c0200 0001005e dc020000 0c030000  .......^........
 0aa0 01005e2c 030000a4 03000001 005ecc03  ..^,.........^..
 0ab0 00001004 00000100 5e180400 00d40500  ........^.......
 0ac0 0001005e 44060000 58060000 01005ec0  ...^D...X.....^.
 0ad0 060000e0 06000001 005e7407 0000b407  .........^t.....
 0ae0 00000100 5e000000 00000000 00680000  ....^........h..
 0af0 00a40000 00010062 ac000000 e8020000  .......b........
 0b00 010062fc 0200002c 03000001 00623003  ..b....,.....b0.
 0b10 00002404 00000100 622c0400 00140500  ..$.....b,......
 0b20 0001005d 58050000 70050000 01006270  ...]X...p.....bp
 0b30 05000074 05000001 005d7405 00008805  ...t.....]t.....
 0b40 00000100 62b80500 00d00500 00010062  ....b..........b
 0b50 d0050000 d4050000 01005dd4 050000e8  ..........].....
 0b60 06000001 00623807 00006407 00000100  .....b8...d.....
 0b70 62740700 007c0700 00010062 7c070000  bt...|.....b|...
 0b80 8c070000 01005d9c 070000a4 07000001  ......].........
 0b90 00620000 00000000 00006c00 00009400  .b........l.....
 0ba0 00000100 599c0000 00a40000 00010059  ....Y..........Y
 0bb0 ac000000 84010000 0100598c 010000bc  ..........Y.....
 0bc0 01000001 0061c801 00006802 00000100  .....a....h.....
 0bd0 617c0200 00b00200 00020030 9fb00200  a|.........0....
 0be0 00b40200 00020031 9fb40200 00dc0200  .......1........
 0bf0 00010059 dc020000 fc020000 04000aff  ...Y............
 0c00 079ffc02 00002c03 00000100 5d300300  ......,.....]0..
 0c10 00580300 00010059 60030000 24040000  .X.....Y`...$...
 0c20 0100592c 04000014 05000001 00612c05  ..Y,.........a,.
 0c30 00003c05 00000200 309f4405 00008805  ..<.....0.D.....
 0c40 00000200 309f8805 0000a805 00000400  ....0...........
 0c50 0aff079f a8050000 40060000 01005944  ........@.....YD
 0c60 06000054 06000001 00595806 0000c006  ...T.....YX.....
 0c70 00000100 59c00600 00d00600 00010061  ....Y..........a
 0c80 d0060000 dc060000 0200309f dc060000  ..........0.....
 0c90 e0060000 01005df4 06000020 07000001  ......].... ....
 0ca0 00592007 00003807 00000400 0aff079f  .Y ...8.........
 0cb0 74070000 78070000 01005978 0700007c  t...x.....Yx...|
 0cc0 07000009 007b0044 250aff07 1a9f7c07  .....{.D%.....|.
 0cd0 00008c07 00000100 618c0700 00940700  ........a.......
 0ce0 00020030 9f9c0700 00a40700 00020030  ...0...........0
 0cf0 9fa40700 00b40700 0004000a ff079fb4  ................
 0d00 070000c0 07000001 00590000 00000000  .........Y......
 0d10 00009000 00009400 00000100 5c940000  ............\...
 0d20 009c0000 0001005a 04010000 08010000  .......Z........
 0d30 01005c08 01000014 01000001 005a1401  ..\..........Z..
 0d40 00002c01 00001500 7a00311a 7a003125  ..,.....z.1.z.1%
 0d50 217f0011 ffffff7b 1a4f2421 9f2c0100  !......{.O$!.,..
 0d60 00300100 0013007a 00311a7f 0011ffff  .0.....z.1......
 0d70 ff7b1a4f 24217b00 219f3001 00003401  .{.O$!{.!.0...4.
 0d80 00001100 7f0011ff ffff7b1a 4f247b00  ..........{.O${.
 0d90 217a0021 9f200200 00280200 0001005a  !z.!. ...(.....Z
 0da0 98020000 b4020000 01005cb4 020000d0  ..........\.....
 0db0 02000001 005ad002 0000d402 00000300  .....Z..........
 0dc0 7d7c9fd4 020000dc 02000001 005dfc02  }|...........]..
 0dd0 00000803 00002400 7a00404b 24227a00  ......$.z.@K$"z.
 0de0 7c002240 4b24222b 08ff1a7e 00227f00  |."@K$"+...~."..
 0df0 224f247a 007c0022 3125219f 08030000  "O$z.|."1%!.....
 0e00 0c030000 1e007a00 404b2422 7c00404b  ......z.@K$"|.@K
 0e10 24222b08 ff1a7e00 227f0022 4f247c00  $"+...~.".."O$|.
 0e20 3125219f 0c030000 14030000 1b007a00  1%!...........z.
 0e30 404b2422 7c00404b 24222b08 ff1a7e00  @K$"|.@K$"+...~.
 0e40 224f247c 00312521 9f540300 00580300  "O$|.1%!.T...X..
 0e50 0001005c 58030000 60030000 01005aac  ...\X...`.....Z.
 0e60 030000b0 03000001 005cb003 0000cc03  .........\......
 0e70 00000100 5a500400 00580400 0001005a  ....ZP...X.....Z
 0e80 c8040000 d4040000 01005a30 0500003c  ..........Z0...<
 0e90 05000001 005c5805 00007005 00000100  .....\X...p.....
 0ea0 60700500 00740500 0001005a 74050000  `p...t.....Zt...
 0eb0 88050000 010060b8 050000c4 05000001  ......`.........
 0ec0 0063c405 0000cc05 00000600 7a007c00  .c..........z.|.
 0ed0 1c9fd005 00000406 00000100 63040600  ............c...
 0ee0 002c0600 0001005a 38060000 44060000  .,.....Z8...D...
 0ef0 01005a44 06000070 06000001 00637006  ..ZD...p.....cp.
 0f00 00007806 00000200 309f7806 00009c06  ..x.....0.x.....
 0f10 00000100 5aa40600 00c00600 0001005a  ....Z..........Z
 0f20 dc060000 e0060000 24007a00 404b2422  ........$.z.@K$"
 0f30 7a007c00 22404b24 222b08ff 1a7e0022  z.|."@K$"+...~."
 0f40 7f00224f 247a007c 00223125 219fe806  .."O$z.|."1%!...
 0f50 00001007 00000100 5a140700 00240700  ........Z....$..
 0f60 0001005a 38070000 74070000 01005a8c  ...Z8...t.....Z.
 0f70 07000094 07000001 005c9c07 0000a407  .........\......
 0f80 00000100 60b40700 00bc0700 0001005a  ....`..........Z
 0f90 00000000 00000000 90000000 9c000000  ................
 0fa0 01005f04 01000010 01000001 005f1001  .._.........._..
 0fb0 00001401 00000900 7f0011ff ffff7b1a  ..............{.
 0fc0 9f140100 00340100 000b007f 0011ffff  .....4..........
 0fd0 ff7b1a31 259f2002 00002802 00000100  .{.1%. ...(.....
 0fe0 5f980200 00dc0200 0001005f fc020000  _.........._....
 0ff0 08030000 1c007a00 404b2422 7a007c00  ......z.@K$"z.|.
 1000 22404b24 222b08ff 1a7e0022 7f002231  "@K$"+...~.".."1
 1010 259f0803 00000c03 00001900 7a00404b  %...........z.@K
 1020 24227c00 404b2422 2b08ff1a 7e00227f  $"|.@K$"+...~.".
 1030 00223125 9f0c0300 00140300 0016007a  ."1%...........z
 1040 00404b24 227c0040 4b24222b 08ff1a7e  .@K$"|.@K$"+...~
 1050 00223125 9f540300 00600300 0001005f  ."1%.T...`....._
 1060 ac030000 c4030000 01005fc4 030000cc  .........._.....
 1070 03000001 00585004 00005804 00000100  .....XP...X.....
 1080 5fc80400 00d40400 0001005f 30050000  _.........._0...
 1090 3c050000 01005e58 05000070 05000001  <.....^X...p....
 10a0 005b7005 00007405 00000100 5f740500  .[p...t....._t..
 10b0 00880500 0001005b b8050000 f8050000  .......[........
 10c0 01005800 0600003c 06000001 00584406  ..X....<.....XD.
 10d0 00006c06 00000100 58700600 00a40600  ..l.....Xp......
 10e0 00010058 a4060000 ac060000 0200309f  ...X..........0.
 10f0 ac060000 bc060000 010058bc 060000c0  ..........X.....
 1100 06000001 005fdc06 0000e006 00001c00  ....._..........
 1110 7a00404b 24227a00 7c002240 4b24222b  z.@K$"z.|."@K$"+
 1120 08ff1a7e 00227f00 2231259f e8060000  ...~.".."1%.....
 1130 f0060000 01005ff0 06000008 07000009  ......_.........
 1140 007f0011 ffffff7b 1a9f0807 00002807  .......{......(.
 1150 00000100 5f380700 00400700 0001005f  ...._8...@....._
 1160 8c070000 94070000 01005e9c 070000a4  ..........^.....
 1170 07000001 005bb407 0000b807 00000900  .....[..........
 1180 7f0011ff ffff7b1a 9f000000 00000000  ......{.........
 1190 00680000 007c0000 00010060 7c000000  .h...|.....`|...
 11a0 94000000 01005b9c 000000a4 00000001  ......[.........
 11b0 005bac00 0000c000 00000100 60c00000  .[..........`...
 11c0 00f40000 0001005b 44010000 60010000  .......[D...`...
 11d0 01005b78 01000084 01000001 005b8401  ..[x.........[..
 11e0 00008c01 00000100 608c0100 009c0100  ........`.......
 11f0 0001005b 9c010000 bc010000 01005dc8  ...[..........].
 1200 010000dc 01000001 005bdc01 00001002  .........[......
 1210 00000100 5d280200 00440200 0001005d  ....](...D.....]
 1220 5c020000 68020000 01005d68 020000b4  \...h.....]h....
 1230 02000001 0060dc02 0000e802 00000100  .....`..........
 1240 60fc0200 002c0300 00010060 c0060000  `....,.....`....
 1250 d0060000 01005bd0 060000e0 06000001  ......[.........
 1260 00600000 00000000 00008400 00009400  .`..............
 1270 00000100 5c000000 00000000 00f80000  ....\...........
 1280 00080100 0001005c 00000000 00000000  .......\........
 1290 a4010000 b4010000 01005a00 00000000  ..........Z.....
 12a0 00000014 02000028 02000001 005a0000  .......(.....Z..
 12b0 00000000 00008c02 0000b402 00000100  ................
 12c0 5c000000 00000000 00fc0200 00080300  \...............
 12d0 0006007a 007c0022 9f080300 001c0300  ...z.|."........
 12e0 0001005c dc060000 e0060000 06007a00  ...\..........z.
 12f0 7c00229f 00000000 00000000 2c030000  |.".........,...
 1300 40030000 01006040 0300009c 03000001  @.....`@........
 1310 005bcc03 0000e403 00000100 60e40300  .[..........`...
 1320 00000400 0001005b 18040000 24040000  .......[....$...
 1330 01005b24 0400003c 04000001 00603c04  ..[$...<.....`<.
 1340 00006004 00000100 5b700400 00840400  ..`.....[p......
 1350 00010060 84040000 b8040000 01005bd4  ...`..........[.
 1360 040000f0 04000001 005b0805 00001405  .........[......
 1370 00000100 5b140500 00240500 00010060  ....[....$.....`
 1380 24050000 3c050000 06007900 81001c9f  $...<.....y.....
 1390 44050000 50050000 06007900 81001c9f  D...P.....y.....
 13a0 88050000 a8050000 06007900 81001c9f  ..........y.....
 13b0 a8050000 d4050000 01006044 06000058  ..........`D...X
 13c0 06000001 00607c07 00008c07 00000100  .....`|.........
 13d0 608c0700 00940700 00060079 0081001c  `..........y....
 13e0 9fa40700 00b40700 00060079 0081001c  ...........y....
 13f0 9f000000 00000000 00480300 00580300  .........H...X..
 1400 0001005c 00000000 00000000 a0030000  ...\............
 1410 b0030000 01005c00 00000000 00000044  ......\........D
 1420 04000058 04000001 005a0000 00000000  ...X.....Z......
 1430 0000bc04 0000d404 00000100 5a000000  ............Z...
 1440 00000000 004c0500 00880500 00010060  .....L.........`
 1450 9c070000 a4070000 01006000 00000000  ..........`.....
 1460 00000064 05000074 05000001 005a0000  ...d...t.....Z..
 1470 00000000 0000ac05 0000c405 00000100  ................
 1480 63c40500 00cc0500 0006007a 007c001c  c..........z.|..
 1490 9f440600 00580600 00010063 00000000  .D...X.....c....
 14a0 00000000 c4050000 d4050000 01006300  ..............c.
 14b0 00000000 000000e0 050000e4 05000001  ................
 14c0 005ae405 00000c06 00000100 5e100600  .Z..........^...
 14d0 003c0600 0001005f 60060000 68060000  .<....._`...h...
 14e0 01005a68 06000078 06000001 005e7806  ..Zh...x.....^x.
 14f0 0000a806 00000100 5fac0600 00c00600  ........_.......
 1500 0001005e 00000000 00000000 b4020000  ...^............
 1510 dc020000 0200309f 00000000 00000000  ......0.........
 1520 cc020000 dc020000 01005d00 00000000  ..........].....
 1530 00000000 00000020 00000006 005a9304  ....... .....Z..
 1540 5b930420 000000e8 00000006 00f303f5  [.. ............
 1550 0a259f00 00000000 00000000 00000070  .%.............p
 1560 00000006 005c9304 5d930470 000000d8  .....\..]..p....
 1570 00000006 00f303f5 0c259fd8 000000e8  .........%......
 1580 00000006 005c9304 5d930400 00000000  .....\..].......
 1590 00000030 00000070 00000001 005c7000  ...0...p.....\p.
 15a0 0000d800 00000100 6ed80000 00e80000  ........n.......
 15b0 0001005c 00000000 00000000 68000000  ...\........h...
 15c0 6c000000 01005adc 000000e8 00000002  l.....Z.........
 15d0 00309f00 00000000 00000074 0000007c  .0.........t...|
 15e0 00000002 00309f88 0000008c 00000002  .....0..........
 15f0 00309f94 000000c4 00000002 00309fc4  .0...........0..
 1600 000000c8 00000002 00319fd0 000000d8  .........1......
 1610 00000002 00309f00 00000000 00000000  .....0..........
 1620 00000070 00000006 005a9304 5b930470  ...p.....Z..[..p
 1630 000000ec 00000006 00f303f5 0a259fec  .............%..
 1640 000000fc 00000006 005a9304 5b9304fc  .........Z..[...
 1650 00000034 01000006 00f303f5 0a259f34  ...4.........%.4
 1660 01000037 01000006 005a9304 5b930437  ...7.....Z..[..7
 1670 01000050 01000006 00f303f5 0a259f50  ...P.........%.P
 1680 0100008c 01000006 005a9304 5b93048c  .........Z..[...
 1690 01000070 06000006 00f303f5 0a259f00  ...p.........%..
 16a0 00000000 00000000 00000070 00000006  ...........p....
 16b0 005c9304 5d930470 000000ec 00000006  .\..]..p........
 16c0 00f303f5 0c259fec 000000ff 00000006  .....%..........
 16d0 005c9304 5d9304ff 00000034 01000006  .\..]......4....
 16e0 00f303f5 0c259f34 01000037 01000006  .....%.4...7....
 16f0 005c9304 5d930437 01000050 01000006  .\..]..7...P....
 1700 00f303f5 0c259f50 0100008c 01000006  .....%.P........
 1710 005c9304 5d93048c 01000070 06000006  .\..]......p....
 1720 00f303f5 0c259f00 00000000 00000000  .....%..........
 1730 00000074 00000002 00309fec 0000008c  ...t.....0......
 1740 01000002 00309f00 00000000 00000070  .....0.........p
 1750 00000074 00000002 00309f74 000000ec  ...t.....0.t....
 1760 00000001 00668c01 00006403 00000100  .....f....d.....
 1770 66480500 00700500 00010066 7c050000  fH...p.....f|...
 1780 84050000 0100663c 06000050 06000001  ......f<...P....
 1790 00660000 00000000 00004800 00007402  .f........H...t.
 17a0 00000600 830008ff 1a9f4805 00007005  ..........H...p.
 17b0 00000600 830008ff 1a9f7c05 00008405  ..........|.....
 17c0 00000600 830008ff 1a9f3c06 00005006  ..........<...P.
 17d0 00000600 830008ff 1a9f0000 00000000  ................
 17e0 00004400 00007000 00000700 82000aff  ..D...p.........
 17f0 ff1a9f70 000000c4 00000001 0062ec00  ...p.........b..
 1800 00002c01 00000700 82000aff ff1a9f34  ..,............4
 1810 01000064 01000007 0082000a ffff1a9f  ...d............
 1820 64010000 6c010000 09007b00 44250aff  d...l.....{.D%..
 1830 071a9f6c 01000074 01000007 0082000a  ...l...t........
 1840 ffff1a9f 74010000 7c010000 09007b00  ....t...|.....{.
 1850 44250aff 071a9f7c 01000084 01000007  D%.....|........
 1860 0082000a ffff1a9f 84010000 8c010000  ................
 1870 09007b00 44250aff 071a9f8c 0100002c  ..{.D%.........,
 1880 02000001 00620000 00000000 00000000  .....b..........
 1890 00006c00 00000100 5a6c0000 00ec0000  ..l.....Zl......
 18a0 00010059 ec000000 fc000000 01005afc  ...Y..........Z.
 18b0 00000028 01000001 00662801 00003401  ...(.....f(...4.
 18c0 00000100 59340100 00370100 0001005a  ....Y4...7.....Z
 18d0 37010000 48010000 01006648 01000050  7...H.....fH...P
 18e0 01000002 00309f50 0100008c 01000001  .....0.P........
 18f0 005a8c01 00004002 00000100 59480500  .Z....@.....YH..
 1900 00700500 00010059 7c050000 84050000  .p.....Y|.......
 1910 0100593c 06000050 06000001 00590000  ..Y<...P.....Y..
 1920 00000000 00004400 00005400 00000100  ......D...T.....
 1930 65540000 005c0000 00070085 00404024  eT...\.......@@$
 1940 219f5c00 00006800 00000b00 7b003c24  !.\...h.....{.<$
 1950 3c254040 24219f68 000000ec 00000001  <%@@$!.h........
 1960 0058ec00 00001c01 00000100 65240100  .X..........e$..
 1970 00340100 00010058 34010000 48010000  .4.....X4...H...
 1980 01006548 01000050 01000001 00585001  ..eH...P.....XP.
 1990 00008c01 00000100 658c0100 00300300  ........e....0..
 19a0 00010058 48050000 70050000 0100587c  ...XH...p.....X|
 19b0 05000084 05000001 00583c06 00005006  .........X<...P.
 19c0 00000100 58000000 00000000 00b40000  ....X...........
 19d0 00b80000 00020030 9fb80000 00ec0000  .......0........
 19e0 0001005d 2c020000 50020000 01005d48  ...],...P.....]H
 19f0 05000058 05000001 005d7c05 00008405  ...X.....]|.....
 1a00 00000100 5d000000 00000000 008c0000  ....]...........
 1a10 00ec0000 00060084 0008ff1a 9f8c0100  ................
 1a20 00440300 00060084 0008ff1a 9f480500  .D...........H..
 1a30 00700500 00060084 0008ff1a 9f7c0500  .p...........|..
 1a40 00840500 00060084 0008ff1a 9f3c0600  .............<..
 1a50 00500600 00060084 0008ff1a 9f000000  .P..............
 1a60 00000000 00880000 00b40000 0007007a  ...............z
 1a70 000affff 1a9fb400 0000ec00 00000100  ................
 1a80 5a8c0100 009c0100 0007007a 000affff  Z..........z....
 1a90 1a9fd401 0000d801 00000700 7a000aff  ............z...
 1aa0 ff1a9ff4 01000004 02000007 007a000a  .............z..
 1ab0 ffff1a9f 0c020000 14020000 07007a00  ..............z.
 1ac0 0affff1a 9f1c0200 00240200 0007007a  .........$.....z
 1ad0 000affff 1a9f2c02 00004802 00000100  ......,...H.....
 1ae0 5a480500 00700500 0001005a 7c050000  ZH...p.....Z|...
 1af0 84050000 01005a3c 06000050 06000001  ......Z<...P....
 1b00 005a0000 00000000 00008400 0000ec00  .Z..............
 1b10 00000100 5e8c0100 009f0100 0001005e  ....^..........^
 1b20 9f010000 c8010000 010067c8 010000db  ..........g.....
 1b30 01000001 005edb01 0000ec01 00000100  .....^..........
 1b40 67ec0100 00f40100 00020030 9ff40100  g..........0....
 1b50 00100200 0001005e 10020000 1c020000  .......^........
 1b60 0100671c 02000020 02000001 005e2002  ..g.... .....^ .
 1b70 00002c02 00000100 672c0200 00440200  ..,.....g,...D..
 1b80 0001005e 48050000 54050000 01005e7c  ...^H...T.....^|
 1b90 05000084 05000001 005e0000 00000000  .........^......
 1ba0 00008800 00009800 00000100 65980000  ............e...
 1bb0 00a00000 00070085 00404024 219fac00  .........@@$!...
 1bc0 0000ec00 00000100 5f8c0100 00bc0100  ........_.......
 1bd0 00010065 c4010000 d4010000 01005fd4  ...e.........._.
 1be0 010000ec 01000001 0065ec01 0000f401  .........e......
 1bf0 00000100 5ff40100 002c0200 00010065  ...._....,.....e
 1c00 2c020000 ac020000 01005f48 05000050  ,........._H...P
 1c10 05000001 005f7c05 00008405 00000100  ....._|.........
 1c20 5f000000 00000000 002c0200 009c0400  _........,......
 1c30 00020030 9f580500 00700500 0001005d  ...0.X...p.....]
 1c40 84050000 8c050000 0200309f 00000000  ..........0.....
 1c50 00000000 d0000000 ec000000 0100602c  ..............`,
 1c60 02000014 05000001 00604805 00004c05  .........`H...L.
 1c70 00000100 604c0500 00580500 00060083  ....`L...X......
 1c80 0008ff1a 9f580500 00800500 00010060  .....X.........`
 1c90 80050000 84050000 06008400 08ff1a9f  ................
 1ca0 84050000 4c060000 01006050 06000070  ....L.....`P...p
 1cb0 06000001 00600000 00000000 0000d400  .....`..........
 1cc0 0000ec00 00000100 612c0200 00a00400  ........a,......
 1cd0 00010061 a0040000 48050000 01005c48  ...a....H.....\H
 1ce0 05000070 05000001 00617c05 00008805  ...p.....a|.....
 1cf0 00000100 61880500 008c0500 00030082  ....a...........
 1d00 019f8c05 00009405 00000100 5c940500  ............\...
 1d10 00f00500 0001005b f0050000 00060000  .......[........
 1d20 0200309f 08060000 3c060000 01005b3c  ..0.....<.....[<
 1d30 06000050 06000001 00616006 00007006  ...P.....a`...p.
 1d40 00000100 5b000000 00000000 007c0400  ....[........|..
 1d50 008c0400 0001005e 98040000 c0040000  .......^........
 1d60 01005ec0 040000c4 04000003 007d7c9f  ..^..........}|.
 1d70 c4040000 c8040000 01005dc8 040000e0  ..........].....
 1d80 04000001 005ee004 0000ec04 00000a00  .....^..........
 1d90 7e003325 7f004d24 219fec04 0000f004  ~.3%..M$!.......
 1da0 00000800 7f004d24 7d00219f f0040000  ......M$}.!.....
 1db0 f4040000 06007d00 7e00219f f4040000  ......}.~.!.....
 1dc0 f8040000 08007f00 4d247d00 219ff804  ........M$}.!...
 1dd0 00004805 00000100 5e580500 00780500  ..H.....^X...x..
 1de0 0001005e 84050000 b4050000 01005ec0  ...^..........^.
 1df0 050000e0 05000001 005ee005 0000e405  .........^......
 1e00 00000300 7d7c9fe4 050000e8 05000001  ....}|..........
 1e10 005de805 0000f805 00000100 5efc0500  .]..........^...
 1e20 00000600 0001005e 08060000 2c060000  .......^....,...
 1e30 01005e34 0600003c 06000001 005e6006  ..^4...<.....^`.
 1e40 00006806 00000100 5e000000 00000000  ..h.....^.......
 1e50 007c0400 00e00400 0001005f e0040000  .|........._....
 1e60 f8040000 05007f00 33259ff8 040000fc  ........3%......
 1e70 04000001 005f5805 00007405 00000100  ....._X...t.....
 1e80 5f840500 00000600 0001005f 08060000  _.........._....
 1e90 34060000 01005f34 0600003c 06000002  4....._4...<....
 1ea0 00309f60 06000064 06000001 005f0000  .0.`...d....._..
 1eb0 00000000 00000001 00000401 00000100  ................
 1ec0 5a040100 00340100 0001005f 38010000  Z....4....._8...
 1ed0 40010000 01005a40 01000050 01000001  @.....Z@...P....
 1ee0 005f0000 00000000 0000a001 0000a401  ._..............
 1ef0 00000100 5aa40100 00d40100 0001005d  ....Z..........]
 1f00 dc010000 e4010000 01005ae4 010000f4  ..........Z.....
 1f10 01000001 005d0000 00000000 0000b002  .....]..........
 1f20 0000b402 00000c00 93047700 8e00229f  ..........w...".
 1f30 93049308 b4020000 34030000 0d006c93  ........4.....l.
 1f40 0477008e 00229f93 04930834 0300006c  .w...".....4...l
 1f50 04000005 006c9304 930c0000 00000000  .....l..........
 1f60 00003403 00001404 00000100 6d000000  ..4.........m...
 1f70 00000000 00140300 009c0400 0001006f  ...............o
 1f80 84050000 8c050000 01006f00 00000000  ..........o.....
 1f90 000000a4 03000028 04000001 00560000  .......(.....V..
 1fa0 00000000 0000a003 00009c04 00000100  ................
 1fb0 55840500 008c0500 00010055 00000000  U..........U....
 1fc0 00000000 54020000 5c020000 01005a5c  ....T...\.....Z\
 1fd0 020000a0 02000001 006d0000 00000000  .........m......
 1fe0 00006402 00006c02 00000100 5a6c0200  ..d...l.....Zl..
 1ff0 00880200 0001006c 90020000 c0020000  .......l........
 2000 01005d00 00000000 00000074 0200007c  ..]........t...|
 2010 02000001 005a7c02 0000a402 00000100  .....Z|.........
 2020 63000000 00000000 00900200 00980200  c...............
 2030 0001005a 98020000 2c040000 01006e00  ...Z....,.....n.
 2040 00000000 0000002c 02000040 02000001  .......,...@....
 2050 00590000 00000000 00003802 00004402  .Y........8...D.
 2060 00000100 5e000000 00000000 00380200  ....^........8..
 2070 00140300 0001006f 00000000 00000000  .......o........
 2080 3c020000 a0030000 01005500 00000000  <.........U.....
 2090 000000c4 020000cc 02000001 005acc02  .............Z..
 20a0 00002403 00000100 6d000000 00000000  ..$.....m.......
 20b0 00d40200 00f00200 00010056 f0020000  ...........V....
 20c0 f8020000 08008d00 40257600 229ffc02  ........@%v."...
 20d0 00001c03 00000100 5c1c0300 00240300  ........\....$..
 20e0 0008008d 00402576 00229f00 00000000  .....@%v."......
 20f0 000000e4 0200002c 03000001 00590000  .......,.....Y..
 2100 00000000 0000f002 00003803 00000100  ..........8.....
 2110 5a000000 00000000 00b40200 00140300  Z...............
 2120 0001006f 00000000 00000000 b4020000  ...o............
 2130 9c040000 01006384 0500008c 05000001  ......c.........
 2140 00630000 00000000 00004403 00004c03  .c........D...L.
 2150 00000100 5a4c0300 00980300 00010064  ....ZL.........d
 2160 00000000 00000000 54030000 70030000  ........T...p...
 2170 01005670 03000078 03000008 00840040  ..Vp...x.......@
 2180 25760022 9f7c0300 00b40300 0001005e  %v.".|.........^
 2190 00000000 00000000 64030000 6c030000  ........d...l...
 21a0 01005a6c 0300009c 04000001 00668405  ..Zl.........f..
 21b0 00008c05 00000100 66000000 00000000  ........f.......
 21c0 00700300 00a80300 0001005a 00000000  .p.........Z....
 21d0 00000000 34030000 9c040000 01005984  ....4.........Y.
 21e0 0500008c 05000001 00590000 00000000  .........Y......
 21f0 00003403 0000a003 00000100 55000000  ..4.........U...
 2200 00000000 00b40300 00bc0300 0001005a  ...............Z
 2210 bc030000 04040000 01005e00 00000000  ..........^.....
 2220 000000c4 030000e0 03000001 0058e003  .............X..
 2230 0000e803 00000800 7e004025 7800229f  ........~.@%x.".
 2240 ec030000 3c040000 01005c00 00000000  ....<.....\.....
 2250 000000d4 030000dc 03000001 005adc03  .............Z..
 2260 00009c04 00000100 64840500 008c0500  ........d.......
 2270 00010064 00000000 00000000 e0030000  ...d............
 2280 64040000 01005a00 00000000 000000a4  d.....Z.........
 2290 0300009c 04000001 00598405 00008c05  .........Y......
 22a0 00000100 59000000 00000000 00a40300  ....Y...........
 22b0 009c0400 00010063 84050000 8c050000  .......c........
 22c0 01006300 00000000 00000014 0400009c  ..c.............
 22d0 04000001 006d8405 00008c05 00000100  .....m..........
 22e0 6d000000 00000000 00180400 001c0400  m...............
 22f0 0011007d 00404b24 228f0040 4b24222d  ...}.@K$"..@K$"-
 2300 08ff1a9f 1c040000 30040000 1f007d00  ........0.....}.
 2310 404b2422 8f00404b 24222d7f 00404b24  @K$"..@K$"-..@K$
 2320 228d0040 4b24222d 2108ff1a 9f300400  "..@K$"-!....0..
 2330 00340400 00320085 7f7c001a 40247e00  .4...2...|..@$~.
 2340 228f0022 404b2422 857f7c00 1a40247e  ".."@K$"..|..@$~
 2350 0022404b 24222d7f 00404b24 228d0040  ."@K$"-..@K$"..@
 2360 4b24222d 2108ff1a 9f340400 003c0400  K$"-!....4...<..
 2370 00400085 7f7c001a 40247e00 228f0022  .@...|..@$~.".."
 2380 404b2422 857f7c00 1a40247e 0022404b  @K$"..|..@$~."@K
 2390 24222d85 7f7c001a 40247e00 228d0022  $"-..|..@$~.".."
 23a0 8f002240 4b24228d 00404b24 222d2108  .."@K$"..@K$"-!.
 23b0 ff1a9f00 00000000 00000028 04000044  ...........(...D
 23c0 04000001 00560000 00000000 00002804  .....V........(.
 23d0 00002c04 00001100 7b00404b 24227500  ..,.....{.@K$"u.
 23e0 404b2422 2d08ff1a 9f2c0400 00400400  @K$"-....,...@..
 23f0 001f007b 00404b24 22750040 4b24222d  ...{.@K$"u.@K$"-
 2400 8e00404b 24227600 404b2422 2d2108ff  ..@K$"v.@K$"-!..
 2410 1a9f0000 00000000 00002c04 00009c04  ..........,.....
 2420 00000200 399f8405 00008c05 00000200  ....9...........
 2430 399f0000 00000000 00002c04 00009c04  9.........,.....
 2440 00000200 479f8405 00008c05 00000200  ....G...........
 2450 479f0000 00000000 00002c04 00009c04  G.........,.....
 2460 00000200 319f8405 00008c05 00000200  ....1...........
 2470 319f0000 00000000 00002c04 00007404  1.........,...t.
 2480 00000200 319f7404 00009c04 00000200  ....1.t.........
 2490 339f8405 00008c05 00000200 339f0000  3...........3...
 24a0 00000000 00002c04 00005c04 00000800  ......,...\.....
 24b0 77003924 8c00219f 5c040000 68040000  w.9$..!.\...h...
 24c0 01005e68 0400006c 04000008 00770039  ..^h...l.....w.9
 24d0 248c0021 9f000000 00000000 00bc0400  $..!............
 24e0 00c80400 0001005d 00000000 00000000  .......]........
 24f0 dc050000 e8050000 01005d00 00000000  ..........].....
 2500 00000000 00000058 00000006 005a9304  .......X.....Z..
 2510 5b930458 000000c4 07000006 00f303f5  [..X............
 2520 0a259f00 00000000 00000000 00000064  .%.............d
 2530 00000006 005c9304 5d930464 000000c4  .....\..]..d....
 2540 07000006 00f303f5 0c259f00 00000000  .........%......
 2550 00000000 000000b8 00000002 00309fe0  .............0..
 2560 000000ec 01000002 00309ff8 010000e8  .........0......
 2570 02000002 00309f08 03000090 05000002  .....0..........
 2580 00309fb4 050000f4 06000002 00309f80  .0...........0..
 2590 070000a8 07000002 00309f00 00000000  .........0......
 25a0 00000038 000000b8 00000001 0062e000  ...8.........b..
 25b0 0000f802 00000100 62080300 00640300  ........b....d..
 25c0 00010062 6c030000 bc030000 010062d8  ...bl.........b.
 25d0 0300005c 04000001 00626004 0000d804  ...\.....b`.....
 25e0 00000100 62dc0400 00480500 00010062  ....b....H.....b
 25f0 4c050000 a4050000 010062ac 050000e0  L.........b.....
 2600 05000001 00625006 00006406 00000100  .....bP...d.....
 2610 62cc0600 00f40600 00010062 80070000  b..........b....
 2620 9c070000 010062a0 070000b0 07000001  ......b.........
 2630 00620000 00000000 00003400 0000ac00  .b........4.....
 2640 00000100 59b00000 00b80000 00010059  ....Y..........Y
 2650 e0000000 38010000 01005974 01000054  ....8.....Yt...T
 2660 02000001 00595802 0000e402 00000100  .....YX.........
 2670 59e80200 00040300 00010059 08030000  Y..........Y....
 2680 34030000 01005934 03000038 03000003  4.....Y4...8....
 2690 007d7f9f 38030000 68030000 0100596c  .}..8...h.....Yl
 26a0 030000bc 03000001 0059d803 00007404  .........Y....t.
 26b0 00000100 59780400 00d40400 00010059  ....Yx.........Y
 26c0 dc040000 44050000 0100594c 050000a8  ....D.....YL....
 26d0 05000001 0059ac05 0000e005 00000100  .....Y..........
 26e0 59500600 00600600 00010059 cc060000  YP...`.....Y....
 26f0 d8060000 010059dc 060000ec 06000001  ......Y.........
 2700 00598007 00008c07 00000100 59900700  .Y..........Y...
 2710 00980700 00010059 a0070000 b8070000  .......Y........
 2720 01005900 00000000 00000000 0000009c  ..Y.............
 2730 00000001 005ab000 0000b800 00000100  .....Z..........
 2740 5ae00000 00380100 0001005a 74010000  Z....8.....Zt...
 2750 d4010000 01005ae4 010000f4 01000001  ......Z.........
 2760 005af801 00003002 00000100 5a3c0200  .Z....0.....Z<..
 2770 00440200 0001005a 58020000 7c020000  .D.....ZX...|...
 2780 01005a8c 02000090 02000001 005a9802  ..Z..........Z..
 2790 0000c402 00000100 5ae80200 00000300  ........Z.......
 27a0 0001005a 08030000 24030000 01005a38  ...Z....$.....Z8
 27b0 03000058 03000001 005a6c03 0000bc03  ...X.....Zl.....
 27c0 00000100 5ad80300 004c0400 0001005a  ....Z....L.....Z
 27d0 60040000 70040000 01005a78 040000b0  `...p.....Zx....
 27e0 04000001 005abc04 0000c404 00000100  .....Z..........
 27f0 5adc0400 00000500 0001005a 10050000  Z..........Z....
 2800 14050000 01005a1c 05000044 05000001  ......Z....D....
 2810 005a4c05 00006c05 00000100 5a7c0500  .ZL...l.....Z|..
 2820 00800500 0001005a 90050000 a0050000  .......Z........
 2830 01005aac 050000e0 05000001 005a5006  ..Z..........ZP.
 2840 00005406 00000100 5acc0600 00d40600  ..T.....Z.......
 2850 0001005a dc060000 e4060000 01005ae8  ...Z..........Z.
 2860 060000ec 06000001 005a8007 00008807  .........Z......
 2870 00000100 5a900700 00980700 0001005a  ....Z..........Z
 2880 a8070000 ac070000 01005a00 00000000  ..........Z.....
 2890 0000000c 00000010 00000001 00611000  .............a..
 28a0 00002000 00000600 80007b00 1a9f2000  .. .......{... .
 28b0 00003800 00000900 7b000cff ff0f001a  ..8.....{.......
 28c0 9f380000 00a00000 0001005f b0000000  .8........._....
 28d0 b8000000 01005fe0 00000030 01000001  ......_....0....
 28e0 005f7401 0000d801 00000100 5fe40100  ._t........._...
 28f0 00f00100 0001005f f8010000 40020000  ......._....@...
 2900 01005f40 02000058 02000001 005d5802  .._@...X.....]X.
 2910 00008402 00000100 5f8c0200 00c00200  ........_.......
 2920 0001005f e8020000 fc020000 01005f08  ..._.........._.
 2930 0300001c 03000001 005f3803 00005c03  ........._8...\.
 2940 00000100 5f6c0300 00b40300 0001005f  ...._l........._
 2950 d8030000 50040000 01005f60 0400006c  ....P....._`...l
 2960 04000001 005f7804 0000c004 00000100  ....._x.........
 2970 5fc00400 00dc0400 0001005b dc040000  _..........[....
 2980 08050000 01005f10 05000040 05000001  ......_....@....
 2990 005f4c05 00007005 00000100 5f7c0500  ._L...p....._|..
 29a0 00880500 0001005f 90050000 9c050000  ......._........
 29b0 01005fac 050000d4 05000001 005f5006  .._.........._P.
 29c0 00005c06 00000100 5fcc0600 00d00600  ..\....._.......
 29d0 0001005f dc060000 e0060000 01005fe8  ..._.........._.
 29e0 060000ec 06000001 005f8007 00008407  ........._......
 29f0 00000100 5f900700 00940700 0001005f  ...._.........._
 2a00 a0070000 a4070000 01005fa8 070000b4  .........._.....
 2a10 07000001 005f0000 00000000 00005c00  ....._........\.
 2a20 00007400 00000600 7d0008ff 1a9f7400  ..t.....}.....t.
 2a30 00008800 00000100 5de00000 00e40000  ........].......
 2a40 0001005d b4010000 c4010000 01005df8  ...]..........].
 2a50 010000fc 01000001 005d9802 00009c02  .........]......
 2a60 00000100 5d380300 00440300 0001005d  ....]8...D.....]
 2a70 d8030000 dc030000 01005d2c 040000a4  ..........],....
 2a80 05000001 005dac05 0000e005 00000100  .....]..........
 2a90 5d500600 00640600 0001005d 80070000  ]P...d.....]....
 2aa0 b8070000 01005d00 00000000 00000058  ......]........X
 2ab0 000000b8 00000001 0061e000 00001001  .........a......
 2ac0 00000100 61740100 007c0100 00010061  ....at...|.....a
 2ad0 a8010000 94030000 010061d8 030000f4  ..........a.....
 2ae0 03000001 00612004 00004405 00000100  .....a ...D.....
 2af0 614c0500 00580500 00010061 90050000  aL...X.....a....
 2b00 e0050000 01006150 06000064 06000001  ......aP...d....
 2b10 0061cc06 0000ec06 00000100 61800700  .a..........a...
 2b20 00980700 00010061 a8070000 b8070000  .......a........
 2b30 01006100 00000000 00000058 00000098  ..a........X....
 2b40 00000001 005cb000 0000b800 00000100  .....\..........
 2b50 5ce00000 00140100 0001005c 20010000  \..........\ ...
 2b60 28010000 01005c74 01000098 01000001  (.....\t........
 2b70 005ca801 0000ac01 00000100 5cb40100  .\..........\...
 2b80 00dc0100 0001005c e4010000 4c020000  .......\....L...
 2b90 01005c58 020000bc 02000001 005ce802  ..\X.........\..
 2ba0 0000f002 00000100 5c080300 00140300  ........\.......
 2bb0 0001005c 38030000 54030000 01005c6c  ...\8...T.....\l
 2bc0 03000098 03000001 005ca403 0000ac03  .........\......
 2bd0 00000100 5cd80300 00100400 0001005c  ....\..........\
 2be0 20040000 24040000 01005c2c 04000054   ...$.....\,...T
 2bf0 04000001 005c6004 0000cc04 00000100  .....\`.........
 2c00 5cdc0400 00440500 0001005c 4c050000  \....D.....\L...
 2c10 74050000 01005c7c 050000a4 05000001  t.....\|........
 2c20 005cac05 0000d805 00000100 5c500600  .\..........\P..
 2c30 00640600 0001005c cc060000 ec060000  .d.....\........
 2c40 01005c80 070000b8 07000001 005c0000  ..\..........\..
 2c50 00000000 00006000 0000b800 00000100  ......`.........
 2c60 5ee00000 002c0100 0001005e 74010000  ^....,.....^t...
 2c70 a0010000 01005ea8 010000cc 02000001  ......^.........
 2c80 005ee802 00001803 00000100 5e380300  .^..........^8..
 2c90 00b00300 0001005e d8030000 18040000  .......^........
 2ca0 01005e20 040000e0 05000001 005e5006  ..^ .........^P.
 2cb0 00006406 00000100 5ecc0600 00ec0600  ..d.....^.......
 2cc0 0001005e 80070000 b8070000 01005e00  ...^..........^.
 2cd0 00000000 0000007c 000000f4 02000001  .......|........
 2ce0 00620803 00003803 00000100 623c0300  .b....8.....b<..
 2cf0 002c0400 00010062 34040000 1c050000  .,.....b4.......
 2d00 01005d60 05000078 05000001 00627805  ..]`...x.....bx.
 2d10 00007c05 00000100 5d7c0500 00900500  ..|.....]|......
 2d20 00010062 c4050000 dc050000 010062dc  ...b..........b.
 2d30 050000e0 05000001 005de005 0000f406  .........]......
 2d40 00000100 62440700 00700700 00010062  ....bD...p.....b
 2d50 80070000 90070000 01005da0 070000a8  ..........].....
 2d60 07000001 00620000 00000000 00008000  .....b..........
 2d70 0000a800 00000100 59b00000 00b40100  ........Y.......
 2d80 00010059 bc010000 ec010000 010061f8  ...Y..........a.
 2d90 01000098 02000001 0061ac02 0000e002  .........a......
 2da0 00000200 309fe002 0000e802 00000200  ....0...........
 2db0 319fe802 00000803 00000400 0aff079f  1...............
 2dc0 08030000 38030000 01005d3c 03000064  ....8.....]<...d
 2dd0 03000001 00596c03 00002c04 00000100  .....Yl...,.....
 2de0 59340400 001c0500 00010061 34050000  Y4.........a4...
 2df0 44050000 0200309f 4c050000 90050000  D.....0.L.......
 2e00 0200309f 90050000 a4050000 04000aff  ..0.............
 2e10 079fac05 0000b405 00000400 0aff079f  ................
 2e20 b4050000 4c060000 01005950 06000060  ....L.....YP...`
 2e30 06000001 00596406 0000cc06 00000100  .....Yd.........
 2e40 59cc0600 00dc0600 00010061 dc060000  Y..........a....
 2e50 e8060000 0200309f e8060000 ec060000  ......0.........
 2e60 01005d00 0700002c 07000001 00592c07  ..]....,.....Y,.
 2e70 00004407 00000400 0aff079f 80070000  ..D.............
 2e80 90070000 01006190 07000098 07000002  ......a.........
 2e90 00309fa0 070000a8 07000002 00309fa8  .0...........0..
 2ea0 070000b8 07000004 000aff07 9fb80700  ................
 2eb0 00c40700 00010059 00000000 00000000  .......Y........
 2ec0 a4000000 a8000000 01005ca8 000000b0  ..........\.....
 2ed0 00000001 005ab800 0000d400 00000100  .....Z..........
 2ee0 5ad40000 00d80000 0003007d 7c9fd800  Z..........}|...
 2ef0 0000e000 00000100 5d340100 00380100  ........]4...8..
 2f00 0001005c 38010000 44010000 01005a44  ...\8...D.....ZD
 2f10 0100005c 01000015 007a0031 1a7a0031  ...\.....z.1.z.1
 2f20 25217f00 11ffffff 7b1a4f24 219f5c01  %!......{.O$!.\.
 2f30 00006001 00001300 7a00311a 7f0011ff  ..`.....z.1.....
 2f40 ffff7b1a 4f24217b 00219f60 01000064  ..{.O$!{.!.`...d
 2f50 01000011 007f0011 ffffff7b 1a4f247b  ...........{.O${
 2f60 00217a00 219f5002 00005802 00000100  .!z.!.P...X.....
 2f70 5ac80200 00e80200 0001005c 08030000  Z..........\....
 2f80 14030000 24007a00 404b2422 7a007c00  ....$.z.@K$"z.|.
 2f90 22404b24 222b08ff 1a7e0022 7f00224f  "@K$"+...~.".."O
 2fa0 247a007c 00223125 219f1403 00001803  $z.|."1%!.......
 2fb0 00001e00 7a00404b 24227c00 404b2422  ....z.@K$"|.@K$"
 2fc0 2b08ff1a 7e00227f 00224f24 7c003125  +...~.".."O$|.1%
 2fd0 219f1803 00002003 00001b00 7a00404b  !..... .....z.@K
 2fe0 24227c00 404b2422 2b08ff1a 7e00224f  $"|.@K$"+...~."O
 2ff0 247c0031 25219f60 03000064 03000001  $|.1%!.`...d....
 3000 005c6403 00006c03 00000100 5ab80300  .\d...l.....Z...
 3010 00bc0300 0001005c bc030000 d8030000  .......\........
 3020 01005a58 04000060 04000001 005ad004  ..ZX...`.....Z..
 3030 0000dc04 00000100 5a380500 00440500  ........Z8...D..
 3040 0001005c 60050000 78050000 01006078  ...\`...x.....`x
 3050 0500007c 05000001 005a7c05 00009005  ...|.....Z|.....
 3060 00000100 60c40500 00d00500 00010063  ....`..........c
 3070 d0050000 d8050000 06007a00 7c001c9f  ..........z.|...
 3080 dc050000 10060000 01006310 06000038  ..........c....8
 3090 06000001 005a4406 00005006 00000100  .....ZD...P.....
 30a0 5a500600 007c0600 00010063 7c060000  ZP...|.....c|...
 30b0 84060000 0200309f 84060000 a8060000  ......0.........
 30c0 01005ab0 060000cc 06000001 005ae806  ..Z..........Z..
 30d0 0000ec06 00002400 7a00404b 24227a00  ......$.z.@K$"z.
 30e0 7c002240 4b24222b 08ff1a7e 00227f00  |."@K$"+...~."..
 30f0 224f247a 007c0022 3125219f f4060000  "O$z.|."1%!.....
 3100 1c070000 01005a20 07000030 07000001  ......Z ...0....
 3110 005a4407 00008007 00000100 5a900700  .ZD.........Z...
 3120 00980700 0001005c a0070000 a8070000  .......\........
 3130 010060b8 070000c0 07000001 005a0000  ..`..........Z..
 3140 00000000 0000a400 0000b000 00000100  ................
 3150 5fb80000 00e00000 0001005f 34010000  _.........._4...
 3160 40010000 01005f40 01000044 01000009  @....._@...D....
 3170 007f0011 ffffff7b 1a9f4401 00006401  .......{..D...d.
 3180 00000b00 7f0011ff ffff7b1a 31259f50  ..........{.1%.P
 3190 02000058 02000001 005fc802 0000e802  ...X....._......
 31a0 00000100 5f080300 00140300 001c007a  ...._..........z
 31b0 00404b24 227a007c 0022404b 24222b08  .@K$"z.|."@K$"+.
 31c0 ff1a7e00 227f0022 31259f14 03000018  ..~.".."1%......
 31d0 03000019 007a0040 4b24227c 00404b24  .....z.@K$"|.@K$
 31e0 222b08ff 1a7e0022 7f002231 259f1803  "+...~.".."1%...
 31f0 00002003 00001600 7a00404b 24227c00  .. .....z.@K$"|.
 3200 404b2422 2b08ff1a 7e002231 259f6003  @K$"+...~."1%.`.
 3210 00006c03 00000100 5fb80300 00d00300  ..l....._.......
 3220 0001005f d0030000 d8030000 01005858  ..._..........XX
 3230 04000060 04000001 005fd004 0000dc04  ...`....._......
 3240 00000100 5f380500 00440500 0001005e  ...._8...D.....^
 3250 60050000 78050000 01005b78 0500007c  `...x.....[x...|
 3260 05000001 005f7c05 00009005 00000100  ....._|.........
 3270 5bc40500 00040600 00010058 0c060000  [..........X....
 3280 48060000 01005850 06000078 06000001  H.....XP...x....
 3290 00587c06 0000b006 00000100 58b00600  .X|.........X...
 32a0 00b80600 00020030 9fb80600 00c80600  .......0........
 32b0 00010058 c8060000 cc060000 01005fe8  ...X.........._.
 32c0 060000ec 0600001c 007a0040 4b24227a  .........z.@K$"z
 32d0 007c0022 404b2422 2b08ff1a 7e00227f  .|."@K$"+...~.".
 32e0 00223125 9ff40600 00fc0600 0001005f  ."1%..........._
 32f0 fc060000 14070000 09007f00 11ffffff  ................
 3300 7b1a9f14 07000034 07000001 005f4407  {......4....._D.
 3310 00004c07 00000100 5f900700 00980700  ..L....._.......
 3320 0001005e a0070000 a8070000 01005bb8  ...^..........[.
 3330 070000bc 07000009 007f0011 ffffff7b  ...............{
 3340 1a9f0000 00000000 00007c00 0000a800  ..........|.....
 3350 00000100 60b00000 00b80000 00010060  ....`..........`
 3360 e0000000 24010000 01006074 01000090  ....$.....`t....
 3370 01000001 0060a801 0000b401 00000100  .....`..........
 3380 60b40100 00bc0100 00060079 0081001c  `..........y....
 3390 9fbc0100 00cc0100 0001005b cc010000  ...........[....
 33a0 ec010000 01005df8 0100000c 02000001  ......].........
 33b0 005b0c02 00004002 00000100 5d580200  .[....@.....]X..
 33c0 00740200 0001005d 8c020000 98020000  .t.....]........
 33d0 01005d98 020000e4 02000006 00790081  ..]..........y..
 33e0 001c9fe8 020000f4 02000006 00790081  .............y..
 33f0 001c9f08 03000034 03000006 00790081  .......4.....y..
 3400 001c9f34 03000038 03000007 00810020  ...4...8....... 
 3410 7d00229f cc060000 dc060000 01005bdc  }."...........[.
 3420 060000ec 06000006 00790081 001c9f00  .........y......
 3430 00000000 00000098 000000a8 00000001  ................
 3440 005c0000 00000000 00002801 00003801  .\........(...8.
 3450 00000100 5c000000 00000000 00d40100  ....\...........
 3460 00e40100 0001005a 00000000 00000000  .......Z........
 3470 44020000 58020000 01005a00 00000000  D...X.....Z.....
 3480 000000bc 020000e8 02000001 005c0000  .............\..
 3490 00000000 00000803 00001403 00000600  ................
 34a0 7a007c00 229f1403 00002803 00000100  z.|.".....(.....
 34b0 5ce80600 00ec0600 0006007a 007c0022  \..........z.|."
 34c0 9f000000 00000000 00380300 004c0300  .........8...L..
 34d0 00060079 0081001c 9f4c0300 00640300  ...y.....L...d..
 34e0 00010060 6c030000 a8030000 010060d8  ...`l.........`.
 34f0 030000ec 03000006 00790081 001c9fec  .........y......
 3500 03000008 04000001 00602004 00002c04  .........` ...,.
 3510 00000100 602c0400 00340400 00060079  ....`,...4.....y
 3520 0081001c 9f340400 00440400 00010060  .....4...D.....`
 3530 44040000 68040000 01005b78 0400008c  D...h.....[x....
 3540 04000001 00608c04 0000c004 00000100  .....`..........
 3550 5bdc0400 00f80400 0001005b 10050000  [..........[....
 3560 1c050000 01005b1c 05000044 05000006  ......[....D....
 3570 00790081 001c9f4c 05000058 05000006  .y.....L...X....
 3580 00790081 001c9f90 050000a4 05000006  .y..............
 3590 00790081 001c9fac 050000e0 05000006  .y..............
 35a0 00790081 001c9f50 06000060 06000006  .y.....P...`....
 35b0 00790081 001c9f80 07000090 07000001  .y..............
 35c0 00609007 00009807 00000600 79008100  .`..........y...
 35d0 1c9fa807 0000b807 00000600 79008100  ............y...
 35e0 1c9f0000 00000000 00005403 00006403  ..........T...d.
 35f0 00000100 5c000000 00000000 00ac0300  ....\...........
 3600 00bc0300 0001005c 00000000 00000000  .......\........
 3610 4c040000 60040000 01005a00 00000000  L...`.....Z.....
 3620 000000c4 040000dc 04000001 005a0000  .............Z..
 3630 00000000 00005405 00009005 00000100  ......T.........
 3640 60a00700 00a80700 00010060 00000000  `..........`....
 3650 00000000 6c050000 7c050000 01005a00  ....l...|.....Z.
 3660 00000000 000000b8 050000d0 05000001  ................
 3670 0063d005 0000d805 00000600 7a007c00  .c..........z.|.
 3680 1c9f5006 00006406 00000100 63000000  ..P...d.....c...
 3690 00000000 00d00500 00e00500 00010063  ...............c
 36a0 00000000 00000000 ec050000 f0050000  ................
 36b0 01005af0 05000018 06000001 005e1c06  ..Z..........^..
 36c0 00004806 00000100 5f6c0600 00740600  ..H....._l...t..
 36d0 0001005a 74060000 84060000 01005e84  ...Zt.........^.
 36e0 060000b4 06000001 005fb806 0000cc06  ........._......
 36f0 00000100 5e000000 00000000 00b80000  ....^...........
 3700 00e00000 00020030 9f000000 00000000  .......0........
 3710 00d00000 00e00000 0001005d 00000000  ...........]....
 3720 00000000 00000000 2c000000 06005a93  ........,.....Z.
 3730 045b9304 2c000000 38000000 0600f303  .[..,...8.......
 3740 f50a259f 38000000 58000000 06005a93  ..%.8...X.....Z.
 3750 045b9304 58000000 68000000 0600f303  .[..X...h.......
 3760 f50a259f 68000000 6c000000 06005a93  ..%.h...l.....Z.
 3770 045b9304 6c000000 78000000 0600f303  .[..l...x.......
 3780 f50a259f 78000000 7c000000 06005a93  ..%.x...|.....Z.
 3790 045b9304 7c000000 80000000 0600f303  .[..|...........
 37a0 f50a259f 00000000 00000000 18000000  ..%.............
 37b0 50000000 01005e50 0000005c 00000004  P.....^P...\....
 37c0 007e9308 9f680000 007c0000 0001005e  .~...h...|.....^
 37d0 00000000 00000000 5c000000 64000000  ........\...d...
 37e0 01005a64 00000068 00000004 007a001f  ..Zd...h.....z..
 37f0 9f740000 00780000 0001005a 00000000  .t...x.....Z....
 3800 00000000 18000000 54000000 01005f5c  ........T....._\
 3810 00000068 00000002 00309f68 00000074  ...h.....0.h...t
 3820 00000001 005f7400 00007800 00000200  ....._t...x.....
 3830 309f7800 00007c00 00000100 5f000000  0.x...|....._...
 3840 00000000 00280000 00340000 00050040  .....(...4.....@
 3850 4b241f9f 34000000 38000000 01005a5c  K$..4...8.....Z\
 3860 00000068 00000001 005a7c00 00008000  ...h.....Z|.....
 3870 00000100 5a000000 00000000 00380000  ....Z........8..
 3880 004c0000 00020030 9f000000 00000000  .L.....0........
 3890 00000000 00280000 0001005a 28000000  .....(.....Z(...
 38a0 98000000 0400f301 5a9f9800 0000ac00  ........Z.......
 38b0 00000100 5a000000 00000000 00240000  ....Z........$..
 38c0 00700000 00010059 88000000 98000000  .p.....Y........
 38d0 01005900 00000000 00000038 00000058  ..Y........8...X
 38e0 00000001 005e8800 00009800 00000100  .....^..........
 38f0 5e000000 00000000 00380000 00680000  ^........8...h..
 3900 00010058 68000000 88000000 01005a88  ...Xh.........Z.
 3910 00000090 00000001 00589000 00009800  .........X......
 3920 00000200 309f0000 00000000 00003800  ....0.........8.
 3930 00004c00 00000200 309f4c00 00005400  ..L.....0.L...T.
 3940 00000100 5f880000 00900000 00020030  ...._..........0
 3950 9f900000 00980000 0001005f 00000000  ..........._....
 3960 00000000 14000000 24000000 01005a24  ........$.....Z$
 3970 00000050 00000001 00588800 00009400  ...P.....X......
 3980 00000100 58940000 00980000 001000f3  ....X...........
 3990 015a4f26 f3015a27 f3015a4f 261c9f00  .ZO&..Z'..ZO&...
 39a0 00000000 0000002c 00000048 00000001  .......,...H....
 39b0 005a4800 00005000 00000300 7a6b9f88  .ZH...P.....zk..
 39c0 0000008c 00000001 005a8c00 00009800  .........Z......
 39d0 00000300 7a0b9f00 00000000 00000000  ....z...........
 39e0 00000020 00000001 005a2000 00003400  ... .....Z ...4.
 39f0 00000400 f3015a9f 34000000 48000000  ......Z.4...H...
 3a00 01005a00 00000000 00000000 00000020  ..Z............ 
 3a10 00000001 005a2000 00003400 00000400  .....Z ...4.....
 3a20 f3015a9f 34000000 48000000 01005a00  ..Z.4...H.....Z.
 3a30 00000000 00000014 00000020 00000001  ........... ....
 3a40 005f0000 00000000 0000               ._........      
Contents of section .debug_ranges:
 0000 a01d0000 ac1d0000 b01d0000 c41d0000  ................
 0010 c81d0000 dc1d0000 e41d0000 f01d0000  ................
 0020 1c1e0000 201e0000 301e0000 bc210000  .... ...0....!..
 0030 00000000 00000000 a01d0000 ac1d0000  ................
 0040 b01d0000 b81d0000 30210000 30210000  ........0!..0!..
 0050 34210000 80210000 00000000 00000000  4!...!..........
 0060 b81e0000 b81e0000 c01e0000 e01e0000  ................
 0070 00000000 00000000 30010000 34010000  ........0...4...
 0080 a01d0000 c0210000 00000000 00000000  .....!..........
 0090 00000000 0c000000 18000000 1c000000  ................
 00a0 34000000 38000000 4c000000 50000000  4...8...L...P...
 00b0 00000000 00000000 1c000000 20000000  ............ ...
 00c0 24000000 28000000 38000000 3c000000  $...(...8...<...
 00d0 50000000 54000000 5c000000 5c000000  P...T...\...\...
 00e0 94000000 98000000 20020000 24020000  ........ ...$...
 00f0 58030000 5c030000 c8040000 cc040000  X...\...........
 0100 00000000 00000000 68000000 94000000  ........h.......
 0110 98000000 a4000000 ac000000 bc010000  ................
 0120 c8010000 20020000 24020000 b4020000  .... ...$.......
 0130 dc020000 f4020000 fc020000 2c030000  ............,...
 0140 c8060000 d0060000 dc060000 e8060000  ................
 0150 00000000 00000000 80000000 90000000  ................
 0160 90000000 94000000 00000000 00000000  ................
 0170 94000000 94000000 a0010000 b4010000  ................
 0180 00000000 00000000 88020000 98020000  ................
 0190 9c020000 a0020000 00000000 00000000  ................
 01a0 fc020000 fc020000 04030000 14030000  ................
 01b0 00000000 00000000 a4000000 ac000000  ................
 01c0 b4020000 b4020000 f4020000 fc020000  ................
 01d0 2c030000 58030000 5c030000 60040000  ,...X...\...`...
 01e0 68040000 c8040000 cc040000 34050000  h...........4...
 01f0 3c050000 90050000 98050000 c0060000  <...............
 0200 74070000 7c070000 84070000 b4070000  t...|...........
 0210 00000000 00000000 44030000 54030000  ........D...T...
 0220 54030000 58030000 00000000 00000000  T...X...........
 0230 b8030000 cc030000 d4050000 44060000  ............D...
 0240 58060000 c0060000 00000000 00000000  X...............
 0250 48050000 58050000 80050000 88050000  H...X...........
 0260 00000000 00000000 b4020000 dc020000  ................
 0270 e8060000 38070000 b4070000 c0070000  ....8...........
 0280 00000000 00000000 38070000 44070000  ........8...D...
 0290 4c070000 5c070000 00000000 00000000  L...\...........
 02a0 00000000 0c000000 18000000 1c000000  ................
 02b0 20000000 28000000 2c000000 30000000   ...(...,...0...
 02c0 00000000 00000000 0c000000 10000000  ................
 02d0 28000000 2c000000 30000000 38000000  (...,...0...8...
 02e0 00000000 00000000 5c000000 84000000  ........\.......
 02f0 88000000 d8000000 dc000000 e8000000  ................
 0300 00000000 00000000 00000000 00000000  ................
 0310 08000000 0c000000 20000000 24000000  ........ ...$...
 0320 30000000 34000000 40000000 48000000  0...4...@...H...
 0330 5c010000 60010000 48050000 4c050000  \...`...H...L...
 0340 00000000 00000000 70000000 74000000  ........p...t...
 0350 f4000000 50010000 00000000 00000000  ....P...........
 0360 74000000 8c000000 fc010000 00020000  t...............
 0370 7c050000 80050000 00000000 00000000  |...............
 0380 b4000000 b8000000 94010000 f4010000  ................
 0390 00000000 00000000 2c020000 2c040000  ........,...,...
 03a0 2c040000 50040000 54040000 58040000  ,...P...T...X...
 03b0 00000000 00000000 2c020000 a0020000  ........,.......
 03c0 a4020000 b4020000 00000000 00000000  ................
 03d0 74020000 80020000 8c020000 90020000  t...............
 03e0 00000000 00000000 a0020000 a4020000  ................
 03f0 b4020000 28030000 00000000 00000000  ....(...........
 0400 28030000 34030000 34030000 a4030000  (...4...4.......
 0410 00000000 00000000 a4030000 f4030000  ................
 0420 f4030000 08040000 0c040000 10040000  ................
 0430 38040000 3c040000 00000000 00000000  8...<...........
 0440 f4030000 f4030000 08040000 0c040000  ................
 0450 10040000 1c040000 2c040000 38040000  ........,...8...
 0460 00000000 00000000 1c040000 2c040000  ............,...
 0470 3c040000 50040000 54040000 58040000  <...P...T...X...
 0480 00000000 00000000 2c040000 2c040000  ........,...,...
 0490 50040000 54040000 58040000 7c040000  P...T...X...|...
 04a0 00000000 00000000 2c040000 2c040000  ........,...,...
 04b0 50040000 54040000 58040000 74040000  P...T...X...t...
 04c0 00000000 00000000 f8040000 04050000  ................
 04d0 0c050000 1c050000 00000000 00000000  ................
 04e0 70050000 7c050000 8c050000 3c060000  p...|.......<...
 04f0 60060000 70060000 00000000 00000000  `...p...........
 0500 00000000 0c000000 18000000 1c000000  ................
 0510 30000000 38000000 00000000 00000000  0...8...........
 0520 1c000000 20000000 24000000 28000000  .... ...$...(...
 0530 4c000000 50000000 58000000 5c000000  L...P...X...\...
 0540 a8000000 ac000000 50020000 54020000  ........P...T...
 0550 64030000 68030000 d0040000 d4040000  d...h...........
 0560 00000000 00000000 7c000000 a8000000  ........|.......
 0570 ac000000 b8000000 e0000000 ec010000  ................
 0580 f8010000 50020000 54020000 00030000  ....P...T.......
 0590 08030000 38030000 d4060000 dc060000  ....8...........
 05a0 e8060000 f4060000 00000000 00000000  ................
 05b0 94000000 a4000000 a4000000 a8000000  ................
 05c0 00000000 00000000 a8000000 a8000000  ................
 05d0 d0010000 e4010000 00000000 00000000  ................
 05e0 b8020000 c8020000 cc020000 d0020000  ................
 05f0 00000000 00000000 08030000 08030000  ................
 0600 10030000 20030000 00000000 00000000  .... ...........
 0610 b8000000 b8000000 00030000 08030000  ................
 0620 38030000 64030000 68030000 68040000  8...d...h...h...
 0630 70040000 d0040000 d4040000 3c050000  p...........<...
 0640 44050000 98050000 a0050000 cc060000  D...............
 0650 88070000 b8070000 00000000 00000000  ................
 0660 50030000 60030000 60030000 64030000  P...`...`...d...
 0670 00000000 00000000 c4030000 d8030000  ................
 0680 e0050000 50060000 64060000 cc060000  ....P...d.......
 0690 00000000 00000000 50050000 60050000  ........P...`...
 06a0 88050000 90050000 00000000 00000000  ................
 06b0 b8000000 e0000000 f4060000 44070000  ............D...
 06c0 b8070000 c4070000 00000000 00000000  ................
 06d0 44070000 50070000 58070000 68070000  D...P...X...h...
 06e0 00000000 00000000 00000000 10000000  ................
 06f0 14000000 1c000000 00000000 00000000  ................
 0700 00000000 00000000 10000000 50000000  ............P...
 0710 88000000 ac000000 00000000 00000000  ................
 0720 14000000 50000000 88000000 98000000  ....P...........
 0730 00000000 00000000 24000000 30000000  ........$...0...
 0740 34000000 38000000 00000000 00000000  4...8...........
 0750 50000000 5c000000 68000000 78000000  P...\...h...x...
 0760 00000000 00000000 00000000 14000000  ................
 0770 14000000 2c000000 34000000 48000000  ....,...4...H...
 0780 00000000 00000000                    ........        
Contents of section .debug_frame:
 0000 0c000000 ffffffff 0100017c 010d0200  ...........|....
 0010 0c000000 00000000 30010000 04000000  ........0.......
 0020 2c000000 00000000 a01d0000 20040000  ,........... ...
 0030 500ea007 026c8101 88028903 92049305  P....l..........
 0040 94069507 96089709 980a990b 9a0c9b0d  ................
 0050 0c000000 ffffffff 0100017c 010d0200  ...........|....
 0060 30000000 50000000 34010000 c0070000  0...P...4.......
 0070 580e205c 89039204 58810188 02930503  X. \....X.......
 0080 fc060ac1 44c854c9 44d244d3 480e0044  ....D.T.D.D.H..D
 0090 0b000000 0c000000 ffffffff 0100017c  ...............|
 00a0 010d0200 0c000000 94000000 f4080000  ................
 00b0 e8000000 0c000000 ffffffff 0100017c  ...............|
 00c0 010d0200 40000000 b4000000 dc090000  ....@...........
 00d0 70060000 440e3044 92045893 05940695  p...D.0D..X.....
 00e0 07960897 09508101 88028903 03d8040a  .....P..........
 00f0 c144c854 c944d244 d344d444 d544d644  .D.T.D.D.D.D.D.D
 0100 d74c0e00 440b0000 0c000000 ffffffff  .L..D...........
 0110 0100017c 010d0200 30000000 08010000  ...|....0.......
 0120 4c100000 c4070000 580e2058 89039204  L.......X. X....
 0130 5c810188 02930503 08070ac1 44c854c9  \...........D.T.
 0140 44d244d3 480e0044 0b000000 0c000000  D.D.H..D........
 0150 ffffffff 0100017c 010d0200 0c000000  .......|........
 0160 4c010000 10180000 80000000 0c000000  L...............
 0170 ffffffff 0100017c 010d0200 24000000  .......|....$...
 0180 6c010000 90180000 ac000000 440e104c  l...........D..L
 0190 81018802 89030254 0ac144c8 58c9440e  .......T..D.X.D.
 01a0 00440b00 0c000000 ffffffff 0100017c  .D.............|
 01b0 010d0200 0c000000 a4010000 60190000  ............`...
 01c0 48000000                             H...            

Disassembly of section .text.init:

00000000 <entry>:
# This code is executed first.

.section .text.init
entry:

    la    sp, __sp-32   # set up the stack pointer, using a constant defined in the linker script.
   0:	auipc	sp,0x10
   4:	addi	sp,sp,-32 # ffe0 <__frame_dummy_init_array_entry+0xd764>
  
    call _start		# use this if using C runtime, std c library
   8:	jal	ra,10 <_start>

0000000c <end>:
  
 #   call  main          # call the main function if barebones assembly/C

end:
    j end               # loop when finished if there is no environment to return to.
   c:	j	c <end>

Disassembly of section .text:

00000010 <_start>:
      10:	auipc	gp,0x2
      14:	addi	gp,gp,1424 # 25a0 <__global_pointer$>
      18:	addi	a0,gp,724 # 2874 <_edata>
      1c:	addi	a2,gp,724 # 2874 <_edata>
      20:	sub	a2,a2,a0
      24:	li	a1,0
      28:	jal	ra,1af0 <memset>
      2c:	auipc	a0,0x2
      30:	addi	a0,a0,-1600 # 19ec <__libc_fini_array>
      34:	jal	ra,19a8 <atexit>
      38:	jal	ra,1a48 <__libc_init_array>
      3c:	lw	a0,0(sp)
      40:	addi	a1,sp,4
      44:	li	a2,0
      48:	jal	ra,1da0 <main>
      4c:	j	19bc <exit>

00000050 <_fini>:
      50:	ret

00000054 <deregister_tm_clones>:
      54:	addi	a4,gp,728 # 2878 <__TMC_END__>
      58:	addi	a5,gp,728 # 2878 <__TMC_END__>
      5c:	beq	a5,a4,74 <deregister_tm_clones+0x20>
      60:	lui	t1,0x0
      64:	mv	t1,t1
      68:	beqz	t1,74 <deregister_tm_clones+0x20>
      6c:	addi	a0,gp,728 # 2878 <__TMC_END__>
      70:	jr	t1 # 0 <entry>
      74:	ret

00000078 <register_tm_clones>:
      78:	addi	a1,gp,728 # 2878 <__TMC_END__>
      7c:	addi	a5,gp,728 # 2878 <__TMC_END__>
      80:	sub	a1,a1,a5
      84:	srai	a1,a1,0x2
      88:	srli	a5,a1,0x1f
      8c:	add	a1,a5,a1
      90:	srai	a1,a1,0x1
      94:	beqz	a1,ac <register_tm_clones+0x34>
      98:	lui	t1,0x0
      9c:	mv	t1,t1
      a0:	beqz	t1,ac <register_tm_clones+0x34>
      a4:	addi	a0,gp,728 # 2878 <__TMC_END__>
      a8:	jr	t1 # 0 <entry>
      ac:	ret

000000b0 <__do_global_dtors_aux>:
      b0:	lbu	a4,-992(gp) # 21c0 <completed.5430>
      b4:	bnez	a4,fc <__do_global_dtors_aux+0x4c>
      b8:	addi	sp,sp,-16
      bc:	sw	s0,8(sp)
      c0:	sw	ra,12(sp)
      c4:	mv	s0,a5
      c8:	jal	ra,54 <deregister_tm_clones>
      cc:	lui	a5,0x0
      d0:	mv	a5,a5
      d4:	beqz	a5,e4 <__do_global_dtors_aux+0x34>
      d8:	addi	a0,gp,724 # 2874 <_edata>
      dc:	auipc	ra,0x0
      e0:	jalr	zero # 0 <entry>
      e4:	li	a5,1
      e8:	sb	a5,-992(gp) # 21c0 <completed.5430>
      ec:	lw	ra,12(sp)
      f0:	lw	s0,8(sp)
      f4:	addi	sp,sp,16
      f8:	ret
      fc:	ret

00000100 <frame_dummy>:
     100:	lui	a5,0x0
     104:	mv	a5,a5
     108:	beqz	a5,12c <frame_dummy+0x2c>
     10c:	addi	sp,sp,-16
     110:	addi	a1,gp,-988 # 21c4 <object.5435>
     114:	addi	a0,gp,724 # 2874 <_edata>
     118:	sw	ra,12(sp)
     11c:	auipc	ra,0x0
     120:	jalr	zero # 0 <entry>
     124:	lw	ra,12(sp)
     128:	addi	sp,sp,16
     12c:	j	78 <register_tm_clones>

00000130 <_wait>:


void _wait(int t)
{
	for(int i=0;i<t;i++);
}
     130:	ret

00000134 <__adddf3>:
  FP_DECL_D (B);
  FP_DECL_D (R);
  DFtype r;

  FP_INIT_ROUNDMODE;
  FP_UNPACK_SEMIRAW_D (A, a);
     134:	lui	a6,0x100
     138:	addi	a6,a6,-1 # fffff <__sp+0xeffff>
     13c:	and	a7,a6,a1
     140:	slli	a7,a7,0x3
     144:	srli	a5,a0,0x1d
{
     148:	addi	sp,sp,-32
  FP_UNPACK_SEMIRAW_D (A, a);
     14c:	srli	a4,a1,0x14
  FP_UNPACK_SEMIRAW_D (B, b);
     150:	and	a6,a6,a3
  FP_UNPACK_SEMIRAW_D (A, a);
     154:	or	a5,a5,a7
  FP_UNPACK_SEMIRAW_D (B, b);
     158:	srli	a7,a3,0x14
     15c:	slli	a6,a6,0x3
{
     160:	sw	s1,20(sp)
     164:	sw	s2,16(sp)
  FP_UNPACK_SEMIRAW_D (A, a);
     168:	andi	s1,a4,2047
  FP_UNPACK_SEMIRAW_D (B, b);
     16c:	andi	a7,a7,2047
     170:	srli	a4,a2,0x1d
{
     174:	sw	ra,28(sp)
     178:	sw	s0,24(sp)
     17c:	sw	s3,12(sp)
  FP_UNPACK_SEMIRAW_D (A, a);
     180:	srli	s2,a1,0x1f
  FP_UNPACK_SEMIRAW_D (B, b);
     184:	srli	a3,a3,0x1f
     188:	or	a4,a4,a6
  FP_UNPACK_SEMIRAW_D (A, a);
     18c:	slli	a0,a0,0x3
  FP_UNPACK_SEMIRAW_D (B, b);
     190:	slli	a2,a2,0x3
  FP_ADD_D (R, A, B);
     194:	sub	a6,s1,a7
     198:	bne	s2,a3,460 <__adddf3+0x32c>
     19c:	blez	a6,2b8 <__adddf3+0x184>
     1a0:	bnez	a7,1e0 <__adddf3+0xac>
     1a4:	or	a3,a4,a2
     1a8:	beqz	a3,8a8 <__adddf3+0x774>
     1ac:	addi	a1,a6,-1
     1b0:	bnez	a1,1d0 <__adddf3+0x9c>
     1b4:	add	a2,a0,a2
     1b8:	sltu	a0,a2,a0
     1bc:	add	a5,a5,a4
     1c0:	add	a5,a5,a0
     1c4:	mv	a0,a2
  FP_UNPACK_SEMIRAW_D (B, b);
     1c8:	li	s1,1
  FP_ADD_D (R, A, B);
     1cc:	j	23c <__adddf3+0x108>
     1d0:	li	a3,2047
     1d4:	bne	a6,a3,1f4 <__adddf3+0xc0>
     1d8:	li	s1,2047
     1dc:	j	3e8 <__adddf3+0x2b4>
     1e0:	li	a3,2047
     1e4:	beq	s1,a3,3e8 <__adddf3+0x2b4>
     1e8:	lui	a3,0x800
     1ec:	or	a4,a4,a3
     1f0:	mv	a1,a6
     1f4:	li	a3,56
     1f8:	blt	a3,a1,2ac <__adddf3+0x178>
     1fc:	li	a3,31
     200:	blt	a3,a1,278 <__adddf3+0x144>
     204:	li	a6,32
     208:	sub	a6,a6,a1
     20c:	sll	a3,a4,a6
     210:	srl	a7,a2,a1
     214:	sll	a2,a2,a6
     218:	or	a3,a3,a7
     21c:	snez	a2,a2
     220:	or	a2,a3,a2
     224:	srl	a4,a4,a1
     228:	add	a2,a2,a0
     22c:	add	a4,a4,a5
     230:	sltu	a5,a2,a0
     234:	add	a5,a4,a5
     238:	mv	a0,a2
     23c:	slli	a4,a5,0x8
     240:	bgez	a4,3e8 <__adddf3+0x2b4>
     244:	addi	s1,s1,1
     248:	li	a4,2047
     24c:	beq	s1,a4,814 <__adddf3+0x6e0>
     250:	lui	a3,0xff800
     254:	addi	a3,a3,-1 # ff7fffff <__sp+0xff7effff>
     258:	and	a3,a5,a3
     25c:	srli	a1,a0,0x1
     260:	andi	a0,a0,1
     264:	slli	a5,a3,0x1f
     268:	or	a0,a1,a0
     26c:	or	a0,a5,a0
     270:	srli	a5,a3,0x1
     274:	j	3e8 <__adddf3+0x2b4>
     278:	addi	a3,a1,-32
     27c:	li	a7,32
     280:	srl	a3,a4,a3
     284:	li	a6,0
     288:	beq	a1,a7,298 <__adddf3+0x164>
     28c:	li	a6,64
     290:	sub	a1,a6,a1
     294:	sll	a6,a4,a1
     298:	or	a2,a6,a2
     29c:	snez	a2,a2
     2a0:	or	a2,a3,a2
     2a4:	li	a4,0
     2a8:	j	228 <__adddf3+0xf4>
     2ac:	or	a2,a4,a2
     2b0:	snez	a2,a2
     2b4:	j	2a4 <__adddf3+0x170>
     2b8:	beqz	a6,39c <__adddf3+0x268>
     2bc:	sub	a1,a7,s1
     2c0:	bnez	s1,2fc <__adddf3+0x1c8>
     2c4:	or	a3,a5,a0
     2c8:	beqz	a3,7f4 <__adddf3+0x6c0>
     2cc:	addi	a3,a1,-1
     2d0:	bnez	a3,2e8 <__adddf3+0x1b4>
     2d4:	add	a0,a0,a2
     2d8:	add	a5,a5,a4
     2dc:	sltu	a2,a0,a2
     2e0:	add	a5,a5,a2
     2e4:	j	1c8 <__adddf3+0x94>
     2e8:	li	a6,2047
     2ec:	bne	a1,a6,310 <__adddf3+0x1dc>
  FP_UNPACK_SEMIRAW_D (B, b);
     2f0:	mv	a5,a4
     2f4:	mv	a0,a2
     2f8:	j	1d8 <__adddf3+0xa4>
  FP_ADD_D (R, A, B);
     2fc:	li	a3,2047
     300:	beq	a7,a3,2f0 <__adddf3+0x1bc>
     304:	lui	a3,0x800
     308:	or	a5,a5,a3
     30c:	mv	a3,a1
     310:	li	a1,56
     314:	blt	a1,a3,390 <__adddf3+0x25c>
     318:	li	a1,31
     31c:	blt	a1,a3,35c <__adddf3+0x228>
     320:	li	a6,32
     324:	sub	a6,a6,a3
     328:	srl	t1,a0,a3
     32c:	sll	a1,a5,a6
     330:	sll	a0,a0,a6
     334:	or	a1,a1,t1
     338:	snez	a0,a0
     33c:	or	a0,a1,a0
     340:	srl	a3,a5,a3
     344:	add	a0,a0,a2
     348:	add	a5,a3,a4
     34c:	sltu	a2,a0,a2
     350:	add	a5,a5,a2
  FP_UNPACK_SEMIRAW_D (B, b);
     354:	mv	s1,a7
     358:	j	23c <__adddf3+0x108>
  FP_ADD_D (R, A, B);
     35c:	addi	a1,a3,-32 # 7fffe0 <__sp+0x7effe0>
     360:	li	t1,32
     364:	srl	a1,a5,a1
     368:	li	a6,0
     36c:	beq	a3,t1,37c <__adddf3+0x248>
     370:	li	a6,64
     374:	sub	a3,a6,a3
     378:	sll	a6,a5,a3
     37c:	or	a0,a6,a0
     380:	snez	a0,a0
     384:	or	a0,a1,a0
     388:	li	a3,0
     38c:	j	344 <__adddf3+0x210>
     390:	or	a0,a5,a0
     394:	snez	a0,a0
     398:	j	388 <__adddf3+0x254>
     39c:	addi	a3,s1,1
     3a0:	andi	a1,a3,2046
     3a4:	bnez	a1,430 <__adddf3+0x2fc>
     3a8:	or	a3,a5,a0
     3ac:	bnez	s1,410 <__adddf3+0x2dc>
     3b0:	beqz	a3,804 <__adddf3+0x6d0>
     3b4:	or	a3,a4,a2
     3b8:	beqz	a3,3e8 <__adddf3+0x2b4>
     3bc:	add	a2,a0,a2
     3c0:	add	a5,a5,a4
     3c4:	sltu	a0,a2,a0
     3c8:	add	a5,a5,a0
     3cc:	slli	a4,a5,0x8
     3d0:	mv	a0,a2
     3d4:	bgez	a4,3e8 <__adddf3+0x2b4>
     3d8:	lui	a4,0xff800
     3dc:	addi	a4,a4,-1 # ff7fffff <__sp+0xff7effff>
     3e0:	and	a5,a5,a4
     3e4:	li	s1,1
  FP_PACK_SEMIRAW_D (r, R);
     3e8:	andi	a4,a0,7
     3ec:	beqz	a4,81c <__adddf3+0x6e8>
     3f0:	andi	a4,a0,15
     3f4:	li	a3,4
     3f8:	beq	a4,a3,81c <__adddf3+0x6e8>
     3fc:	addi	a3,a0,4
     400:	sltu	a0,a3,a0
     404:	add	a5,a5,a0
     408:	mv	a0,a3
     40c:	j	81c <__adddf3+0x6e8>
  FP_ADD_D (R, A, B);
     410:	beqz	a3,2f0 <__adddf3+0x1bc>
     414:	or	a2,a4,a2
     418:	beqz	a2,1d8 <__adddf3+0xa4>
     41c:	li	s2,0
     420:	lui	a5,0x400
     424:	li	a0,0
     428:	li	s1,2047
     42c:	j	81c <__adddf3+0x6e8>
     430:	li	a1,2047
     434:	beq	a3,a1,810 <__adddf3+0x6dc>
     438:	add	a2,a0,a2
     43c:	add	a4,a5,a4
     440:	sltu	a5,a2,a0
     444:	add	a4,a4,a5
     448:	slli	a0,a4,0x1f
     44c:	srli	a2,a2,0x1
     450:	or	a0,a0,a2
     454:	srli	a5,a4,0x1
     458:	mv	s1,a3
     45c:	j	3e8 <__adddf3+0x2b4>
     460:	blez	a6,558 <__adddf3+0x424>
     464:	bnez	a7,500 <__adddf3+0x3cc>
     468:	or	a3,a4,a2
     46c:	beqz	a3,8a8 <__adddf3+0x774>
     470:	addi	a1,a6,-1
     474:	bnez	a1,494 <__adddf3+0x360>
     478:	sub	a2,a0,a2
     47c:	sltu	a0,a0,a2
     480:	sub	a5,a5,a4
     484:	sub	a5,a5,a0
     488:	mv	a0,a2
  FP_UNPACK_SEMIRAW_D (B, b);
     48c:	li	s1,1
  FP_ADD_D (R, A, B);
     490:	j	4e4 <__adddf3+0x3b0>
     494:	li	a3,2047
     498:	beq	a6,a3,1d8 <__adddf3+0xa4>
     49c:	li	a3,56
     4a0:	blt	a3,a1,54c <__adddf3+0x418>
     4a4:	li	a3,31
     4a8:	blt	a3,a1,518 <__adddf3+0x3e4>
     4ac:	li	a6,32
     4b0:	sub	a6,a6,a1
     4b4:	sll	a3,a4,a6
     4b8:	srl	a7,a2,a1
     4bc:	sll	a2,a2,a6
     4c0:	or	a3,a3,a7
     4c4:	snez	a2,a2
     4c8:	or	a2,a3,a2
     4cc:	srl	a4,a4,a1
     4d0:	sub	a2,a0,a2
     4d4:	sub	a4,a5,a4
     4d8:	sltu	a5,a0,a2
     4dc:	sub	a5,a4,a5
     4e0:	mv	a0,a2
     4e4:	slli	a4,a5,0x8
     4e8:	bgez	a4,3e8 <__adddf3+0x2b4>
     4ec:	lui	s0,0x800
     4f0:	addi	s0,s0,-1 # 7fffff <__sp+0x7effff>
     4f4:	and	s0,a5,s0
     4f8:	mv	s3,a0
     4fc:	j	708 <__adddf3+0x5d4>
     500:	li	a3,2047
     504:	beq	s1,a3,3e8 <__adddf3+0x2b4>
     508:	lui	a3,0x800
     50c:	or	a4,a4,a3
     510:	mv	a1,a6
     514:	j	49c <__adddf3+0x368>
     518:	addi	a3,a1,-32
     51c:	li	a7,32
     520:	srl	a3,a4,a3
     524:	li	a6,0
     528:	beq	a1,a7,538 <__adddf3+0x404>
     52c:	li	a6,64
     530:	sub	a1,a6,a1
     534:	sll	a6,a4,a1
     538:	or	a2,a6,a2
     53c:	snez	a2,a2
     540:	or	a2,a3,a2
     544:	li	a4,0
     548:	j	4d0 <__adddf3+0x39c>
     54c:	or	a2,a4,a2
     550:	snez	a2,a2
     554:	j	544 <__adddf3+0x410>
     558:	beqz	a6,648 <__adddf3+0x514>
     55c:	sub	a6,a7,s1
     560:	bnez	s1,5a4 <__adddf3+0x470>
     564:	or	a1,a5,a0
     568:	beqz	a1,8b0 <__adddf3+0x77c>
     56c:	addi	a1,a6,-1
     570:	bnez	a1,58c <__adddf3+0x458>
     574:	sub	a0,a2,a0
     578:	sub	a5,a4,a5
     57c:	sltu	a2,a2,a0
     580:	sub	a5,a5,a2
     584:	mv	s2,a3
     588:	j	48c <__adddf3+0x358>
     58c:	li	t1,2047
     590:	bne	a6,t1,5b8 <__adddf3+0x484>
  FP_UNPACK_SEMIRAW_D (B, b);
     594:	mv	a5,a4
     598:	mv	a0,a2
  FP_ADD_D (R, A, B);
     59c:	li	s1,2047
     5a0:	j	670 <__adddf3+0x53c>
     5a4:	li	a1,2047
     5a8:	beq	a7,a1,594 <__adddf3+0x460>
     5ac:	lui	a1,0x800
     5b0:	or	a5,a5,a1
     5b4:	mv	a1,a6
     5b8:	li	a6,56
     5bc:	blt	a6,a1,63c <__adddf3+0x508>
     5c0:	li	a6,31
     5c4:	blt	a6,a1,608 <__adddf3+0x4d4>
     5c8:	li	t1,32
     5cc:	sub	t1,t1,a1
     5d0:	srl	t3,a0,a1
     5d4:	sll	a6,a5,t1
     5d8:	sll	a0,a0,t1
     5dc:	or	a6,a6,t3
     5e0:	snez	a0,a0
     5e4:	or	a0,a6,a0
     5e8:	srl	a1,a5,a1
     5ec:	sub	a0,a2,a0
     5f0:	sub	a5,a4,a1
     5f4:	sltu	a2,a2,a0
     5f8:	sub	a5,a5,a2
  FP_UNPACK_SEMIRAW_D (B, b);
     5fc:	mv	s1,a7
     600:	mv	s2,a3
     604:	j	4e4 <__adddf3+0x3b0>
  FP_ADD_D (R, A, B);
     608:	addi	a6,a1,-32 # 7fffe0 <__sp+0x7effe0>
     60c:	li	t3,32
     610:	srl	a6,a5,a6
     614:	li	t1,0
     618:	beq	a1,t3,628 <__adddf3+0x4f4>
     61c:	li	t1,64
     620:	sub	a1,t1,a1
     624:	sll	t1,a5,a1
     628:	or	a0,t1,a0
     62c:	snez	a0,a0
     630:	or	a0,a6,a0
     634:	li	a1,0
     638:	j	5ec <__adddf3+0x4b8>
     63c:	or	a0,a5,a0
     640:	snez	a0,a0
     644:	j	634 <__adddf3+0x500>
     648:	addi	a1,s1,1
     64c:	andi	a1,a1,2046
     650:	bnez	a1,6dc <__adddf3+0x5a8>
     654:	or	a6,a5,a0
     658:	or	a1,a4,a2
     65c:	bnez	s1,6bc <__adddf3+0x588>
     660:	bnez	a6,678 <__adddf3+0x544>
     664:	beqz	a1,8c0 <__adddf3+0x78c>
  FP_UNPACK_SEMIRAW_D (B, b);
     668:	mv	a5,a4
     66c:	mv	a0,a2
     670:	mv	s2,a3
     674:	j	3e8 <__adddf3+0x2b4>
  FP_ADD_D (R, A, B);
     678:	beqz	a1,3e8 <__adddf3+0x2b4>
     67c:	sub	a6,a0,a2
     680:	sltu	a7,a0,a6
     684:	sub	a1,a5,a4
     688:	sub	a1,a1,a7
     68c:	slli	a7,a1,0x8
     690:	bgez	a7,6a8 <__adddf3+0x574>
     694:	sub	a0,a2,a0
     698:	sub	a5,a4,a5
     69c:	sltu	a2,a2,a0
     6a0:	sub	a5,a5,a2
     6a4:	j	670 <__adddf3+0x53c>
     6a8:	or	a0,a6,a1
     6ac:	beqz	a0,8d0 <__adddf3+0x79c>
     6b0:	mv	a5,a1
     6b4:	mv	a0,a6
     6b8:	j	3e8 <__adddf3+0x2b4>
     6bc:	bnez	a6,6d4 <__adddf3+0x5a0>
     6c0:	beqz	a1,8d8 <__adddf3+0x7a4>
  FP_UNPACK_SEMIRAW_D (B, b);
     6c4:	mv	a5,a4
     6c8:	mv	a0,a2
  FP_ADD_D (R, A, B);
     6cc:	mv	s2,a3
     6d0:	j	1d8 <__adddf3+0xa4>
     6d4:	beqz	a1,1d8 <__adddf3+0xa4>
     6d8:	j	41c <__adddf3+0x2e8>
     6dc:	sub	s3,a0,a2
     6e0:	sltu	a1,a0,s3
     6e4:	sub	s0,a5,a4
     6e8:	sub	s0,s0,a1
     6ec:	slli	a1,s0,0x8
     6f0:	bgez	a1,778 <__adddf3+0x644>
     6f4:	sub	s3,a2,a0
     6f8:	sub	a5,a4,a5
     6fc:	sltu	a2,a2,s3
     700:	sub	s0,a5,a2
     704:	mv	s2,a3
     708:	beqz	s0,78c <__adddf3+0x658>
     70c:	mv	a0,s0
     710:	jal	ra,1960 <__clzsi2>
     714:	addi	a4,a0,-8
     718:	li	a5,31
     71c:	blt	a5,a4,79c <__adddf3+0x668>
     720:	li	a5,32
     724:	sub	a5,a5,a4
     728:	sll	s0,s0,a4
     72c:	srl	a5,s3,a5
     730:	or	s0,a5,s0
     734:	sll	a0,s3,a4
     738:	blt	a4,s1,7e0 <__adddf3+0x6ac>
     73c:	sub	a4,a4,s1
     740:	addi	a5,a4,1
     744:	li	a3,31
     748:	blt	a3,a5,7ac <__adddf3+0x678>
     74c:	li	a4,32
     750:	sub	a4,a4,a5
     754:	srl	a2,a0,a5
     758:	sll	a3,s0,a4
     75c:	sll	a0,a0,a4
     760:	or	a3,a3,a2
     764:	snez	a0,a0
     768:	or	a0,a3,a0
     76c:	srl	a5,s0,a5
     770:	li	s1,0
     774:	j	3e8 <__adddf3+0x2b4>
     778:	or	a0,s3,s0
     77c:	bnez	a0,708 <__adddf3+0x5d4>
     780:	li	a5,0
     784:	li	s1,0
     788:	j	8c8 <__adddf3+0x794>
     78c:	mv	a0,s3
     790:	jal	ra,1960 <__clzsi2>
     794:	addi	a0,a0,32
     798:	j	714 <__adddf3+0x5e0>
     79c:	addi	s0,a0,-40
     7a0:	sll	s0,s3,s0
     7a4:	li	a0,0
     7a8:	j	738 <__adddf3+0x604>
     7ac:	addi	a4,a4,-31
     7b0:	li	a2,32
     7b4:	srl	a4,s0,a4
     7b8:	li	a3,0
     7bc:	beq	a5,a2,7cc <__adddf3+0x698>
     7c0:	li	a3,64
     7c4:	sub	a3,a3,a5
     7c8:	sll	a3,s0,a3
     7cc:	or	a0,a0,a3
     7d0:	snez	a0,a0
     7d4:	or	a0,a4,a0
     7d8:	li	a5,0
     7dc:	j	770 <__adddf3+0x63c>
     7e0:	lui	a5,0xff800
     7e4:	addi	a5,a5,-1 # ff7fffff <__sp+0xff7effff>
     7e8:	sub	s1,s1,a4
     7ec:	and	a5,s0,a5
     7f0:	j	3e8 <__adddf3+0x2b4>
  FP_UNPACK_SEMIRAW_D (B, b);
     7f4:	mv	a5,a4
     7f8:	mv	a0,a2
  FP_ADD_D (R, A, B);
     7fc:	mv	s1,a1
     800:	j	3e8 <__adddf3+0x2b4>
  FP_UNPACK_SEMIRAW_D (B, b);
     804:	mv	a5,a4
     808:	mv	a0,a2
     80c:	j	3e8 <__adddf3+0x2b4>
     810:	li	s1,2047
     814:	li	a5,0
     818:	li	a0,0
  FP_PACK_SEMIRAW_D (r, R);
     81c:	slli	a4,a5,0x8
     820:	bgez	a4,83c <__adddf3+0x708>
     824:	addi	s1,s1,1
     828:	li	a4,2047
     82c:	beq	s1,a4,8e8 <__adddf3+0x7b4>
     830:	lui	a4,0xff800
     834:	addi	a4,a4,-1 # ff7fffff <__sp+0xff7effff>
     838:	and	a5,a5,a4
     83c:	slli	a4,a5,0x1d
     840:	srli	a0,a0,0x3
     844:	or	a0,a4,a0
     848:	li	a4,2047
     84c:	srli	a5,a5,0x3
     850:	bne	s1,a4,86c <__adddf3+0x738>
     854:	or	a0,a0,a5
     858:	li	a5,0
     85c:	beqz	a0,86c <__adddf3+0x738>
     860:	lui	a5,0x80
     864:	li	a0,0
     868:	li	s2,0
     86c:	andi	a4,s1,2047
     870:	slli	a5,a5,0xc
     874:	slli	a4,a4,0x14
  FP_HANDLE_EXCEPTIONS;

  return r;
}
     878:	lw	ra,28(sp)
     87c:	lw	s0,24(sp)
  FP_PACK_SEMIRAW_D (r, R);
     880:	srli	a5,a5,0xc
     884:	slli	a1,s2,0x1f
     888:	or	a5,a5,a4
     88c:	or	a4,a5,a1
}
     890:	lw	s1,20(sp)
     894:	lw	s2,16(sp)
     898:	lw	s3,12(sp)
     89c:	mv	a1,a4
     8a0:	addi	sp,sp,32
     8a4:	ret
     8a8:	mv	s1,a6
     8ac:	j	3e8 <__adddf3+0x2b4>
  FP_UNPACK_SEMIRAW_D (B, b);
     8b0:	mv	a5,a4
     8b4:	mv	a0,a2
  FP_ADD_D (R, A, B);
     8b8:	mv	s1,a6
     8bc:	j	670 <__adddf3+0x53c>
     8c0:	li	a5,0
     8c4:	li	a0,0
     8c8:	li	s2,0
     8cc:	j	81c <__adddf3+0x6e8>
     8d0:	li	a5,0
     8d4:	j	8c8 <__adddf3+0x794>
     8d8:	li	a0,0
     8dc:	li	s2,0
     8e0:	lui	a5,0x400
     8e4:	j	428 <__adddf3+0x2f4>
     8e8:	li	a5,0
     8ec:	li	a0,0
     8f0:	j	83c <__adddf3+0x708>

000008f4 <__gedf2>:
  FP_DECL_D (A);
  FP_DECL_D (B);
  CMPtype r;

  FP_INIT_EXCEPTIONS;
  FP_UNPACK_RAW_D (A, a);
     8f4:	srli	a6,a1,0x14
     8f8:	lui	a5,0x100
     8fc:	addi	a5,a5,-1 # fffff <__sp+0xeffff>
  FP_UNPACK_RAW_D (B, b);
     900:	srli	a4,a3,0x14
{
     904:	mv	t1,a0
     908:	mv	t4,a0
  FP_UNPACK_RAW_D (A, a);
     90c:	andi	a6,a6,2047
  FP_CMP_D (r, A, B, -2, 2);
     910:	li	a0,2047
  FP_UNPACK_RAW_D (A, a);
     914:	and	a7,a5,a1
     918:	mv	t5,a2
  FP_UNPACK_RAW_D (B, b);
     91c:	and	a5,a5,a3
  FP_UNPACK_RAW_D (A, a);
     920:	srli	a1,a1,0x1f
  FP_UNPACK_RAW_D (B, b);
     924:	andi	a4,a4,2047
     928:	srli	a3,a3,0x1f
  FP_CMP_D (r, A, B, -2, 2);
     92c:	bne	a6,a0,940 <__gedf2+0x4c>
     930:	or	t3,a7,t1
     934:	li	a0,-2
     938:	beqz	t3,9cc <__gedf2+0xd8>
     93c:	ret
     940:	bne	a4,a0,950 <__gedf2+0x5c>
     944:	or	t3,a5,a2
     948:	li	a0,-2
     94c:	bnez	t3,978 <__gedf2+0x84>
     950:	bnez	a6,9d0 <__gedf2+0xdc>
     954:	or	a0,a7,t1
     958:	seqz	a0,a0
     95c:	bnez	a4,968 <__gedf2+0x74>
     960:	or	a2,a5,a2
     964:	beqz	a2,9b8 <__gedf2+0xc4>
     968:	bnez	a0,97c <__gedf2+0x88>
     96c:	beq	a1,a3,988 <__gedf2+0x94>
     970:	li	a0,1
     974:	bnez	a1,980 <__gedf2+0x8c>
  FP_HANDLE_EXCEPTIONS;

  return r;
}
     978:	ret
  FP_CMP_D (r, A, B, -2, 2);
     97c:	bnez	a3,978 <__gedf2+0x84>
     980:	li	a0,-1
     984:	ret
     988:	blt	a4,a6,970 <__gedf2+0x7c>
     98c:	bge	a6,a4,9a0 <__gedf2+0xac>
     990:	li	a0,-1
     994:	beqz	a1,978 <__gedf2+0x84>
     998:	li	a0,1
     99c:	ret
     9a0:	bltu	a5,a7,970 <__gedf2+0x7c>
     9a4:	bne	a7,a5,9c4 <__gedf2+0xd0>
     9a8:	bltu	t5,t4,970 <__gedf2+0x7c>
     9ac:	li	a0,0
     9b0:	bgeu	t4,t5,978 <__gedf2+0x84>
     9b4:	j	990 <__gedf2+0x9c>
     9b8:	beqz	a0,970 <__gedf2+0x7c>
     9bc:	li	a0,0
     9c0:	ret
     9c4:	bltu	a7,a5,990 <__gedf2+0x9c>
     9c8:	j	9bc <__gedf2+0xc8>
     9cc:	beq	a4,a6,944 <__gedf2+0x50>
     9d0:	bnez	a4,96c <__gedf2+0x78>
     9d4:	li	a0,0
     9d8:	j	960 <__gedf2+0x6c>

000009dc <__muldf3>:
#include "soft-fp.h"
#include "double.h"

DFtype
__muldf3 (DFtype a, DFtype b)
{
     9dc:	addi	sp,sp,-48
     9e0:	sw	s2,32(sp)
  FP_DECL_D (B);
  FP_DECL_D (R);
  DFtype r;

  FP_INIT_ROUNDMODE;
  FP_UNPACK_D (A, a);
     9e4:	srli	s2,a1,0x14
{
     9e8:	sw	s3,28(sp)
     9ec:	sw	s4,24(sp)
     9f0:	sw	s5,20(sp)
     9f4:	sw	s6,16(sp)
     9f8:	sw	s7,12(sp)
  FP_UNPACK_D (A, a);
     9fc:	slli	s5,a1,0xc
{
     a00:	sw	ra,44(sp)
     a04:	sw	s0,40(sp)
     a08:	sw	s1,36(sp)
  FP_UNPACK_D (A, a);
     a0c:	andi	s2,s2,2047
{
     a10:	mv	s6,a0
     a14:	mv	s7,a2
     a18:	mv	s4,a3
  FP_UNPACK_D (A, a);
     a1c:	srli	s5,s5,0xc
     a20:	srli	s3,a1,0x1f
     a24:	beqz	s2,ac8 <__muldf3+0xec>
     a28:	li	a5,2047
     a2c:	beq	s2,a5,b2c <__muldf3+0x150>
     a30:	srli	s0,a0,0x1d
     a34:	slli	s5,s5,0x3
     a38:	or	s5,s0,s5
     a3c:	lui	s0,0x800
     a40:	or	s0,s5,s0
     a44:	slli	s1,a0,0x3
     a48:	addi	s2,s2,-1023
     a4c:	li	s6,0
  FP_UNPACK_D (B, b);
     a50:	srli	a0,s4,0x14
     a54:	slli	s5,s4,0xc
     a58:	andi	a0,a0,2047
     a5c:	mv	a4,s7
     a60:	srli	s5,s5,0xc
     a64:	srli	s4,s4,0x1f
     a68:	beqz	a0,b68 <__muldf3+0x18c>
     a6c:	li	a5,2047
     a70:	beq	a0,a5,bd0 <__muldf3+0x1f4>
     a74:	srli	a5,s7,0x1d
     a78:	slli	s5,s5,0x3
     a7c:	or	s5,a5,s5
     a80:	lui	a5,0x800
     a84:	or	a5,s5,a5
     a88:	slli	a4,s7,0x3
     a8c:	addi	a0,a0,-1023
     a90:	li	a3,0
  FP_MUL_D (R, A, B);
     a94:	slli	a2,s6,0x2
     a98:	or	a2,a2,a3
     a9c:	add	s2,s2,a0
     aa0:	addi	a2,a2,-1
     aa4:	li	a1,14
     aa8:	xor	a6,s3,s4
     aac:	addi	a7,s2,1
     ab0:	bltu	a1,a2,c08 <__muldf3+0x22c>
     ab4:	slli	a2,a2,0x2
     ab8:	addi	a1,gp,408 # 2738 <_global_impure_ptr+0x108>
     abc:	add	a2,a2,a1
     ac0:	lw	a2,0(a2)
     ac4:	jr	a2
  FP_UNPACK_D (A, a);
     ac8:	or	s0,s5,a0
     acc:	beqz	s0,b48 <__muldf3+0x16c>
     ad0:	beqz	s5,b10 <__muldf3+0x134>
     ad4:	mv	a0,s5
     ad8:	jal	ra,1960 <__clzsi2>
     adc:	addi	a5,a0,-11
     ae0:	li	a4,28
     ae4:	blt	a4,a5,b1c <__muldf3+0x140>
     ae8:	li	s0,29
     aec:	addi	s1,a0,-8
     af0:	sub	s0,s0,a5
     af4:	sll	s5,s5,s1
     af8:	srl	s0,s6,s0
     afc:	or	s0,s0,s5
     b00:	sll	s1,s6,s1
     b04:	li	s2,-1011
     b08:	sub	s2,s2,a0
     b0c:	j	a4c <__muldf3+0x70>
     b10:	jal	ra,1960 <__clzsi2>
     b14:	addi	a0,a0,32
     b18:	j	adc <__muldf3+0x100>
     b1c:	addi	s0,a0,-40
     b20:	sll	s0,s6,s0
     b24:	li	s1,0
     b28:	j	b04 <__muldf3+0x128>
     b2c:	or	s0,s5,a0
     b30:	beqz	s0,b58 <__muldf3+0x17c>
     b34:	mv	s1,a0
     b38:	mv	s0,s5
     b3c:	li	s2,2047
     b40:	li	s6,3
     b44:	j	a50 <__muldf3+0x74>
     b48:	li	s1,0
     b4c:	li	s2,0
     b50:	li	s6,1
     b54:	j	a50 <__muldf3+0x74>
     b58:	li	s1,0
     b5c:	li	s2,2047
     b60:	li	s6,2
     b64:	j	a50 <__muldf3+0x74>
  FP_UNPACK_D (B, b);
     b68:	or	a5,s5,s7
     b6c:	beqz	a5,be8 <__muldf3+0x20c>
     b70:	beqz	s5,bb0 <__muldf3+0x1d4>
     b74:	mv	a0,s5
     b78:	jal	ra,1960 <__clzsi2>
     b7c:	addi	a3,a0,-11
     b80:	li	a5,28
     b84:	blt	a5,a3,bc0 <__muldf3+0x1e4>
     b88:	li	a5,29
     b8c:	addi	a4,a0,-8
     b90:	sub	a5,a5,a3
     b94:	sll	s5,s5,a4
     b98:	srl	a5,s7,a5
     b9c:	or	a5,a5,s5
     ba0:	sll	a4,s7,a4
     ba4:	li	a2,-1011
     ba8:	sub	a0,a2,a0
     bac:	j	a90 <__muldf3+0xb4>
     bb0:	mv	a0,s7
     bb4:	jal	ra,1960 <__clzsi2>
     bb8:	addi	a0,a0,32
     bbc:	j	b7c <__muldf3+0x1a0>
     bc0:	addi	a5,a0,-40
     bc4:	sll	a5,s7,a5
     bc8:	li	a4,0
     bcc:	j	ba4 <__muldf3+0x1c8>
     bd0:	or	a5,s5,s7
     bd4:	beqz	a5,bf8 <__muldf3+0x21c>
     bd8:	mv	a5,s5
     bdc:	li	a0,2047
     be0:	li	a3,3
     be4:	j	a94 <__muldf3+0xb8>
     be8:	li	a4,0
     bec:	li	a0,0
     bf0:	li	a3,1
     bf4:	j	a94 <__muldf3+0xb8>
     bf8:	li	a4,0
     bfc:	li	a0,2047
     c00:	li	a3,2
     c04:	j	a94 <__muldf3+0xb8>
  FP_MUL_D (R, A, B);
     c08:	lui	t2,0x10
     c0c:	addi	t1,t2,-1 # ffff <__frame_dummy_init_array_entry+0xd783>
     c10:	srli	t6,s1,0x10
     c14:	srli	t0,a4,0x10
     c18:	and	s1,s1,t1
     c1c:	and	a4,a4,t1
     c20:	mv	a0,s1
     c24:	mv	a1,a4
     c28:	jal	ra,193c <__mulsi3>
     c2c:	mv	t4,a0
     c30:	mv	a1,t0
     c34:	mv	a0,s1
     c38:	jal	ra,193c <__mulsi3>
     c3c:	mv	t3,a0
     c40:	mv	a1,a4
     c44:	mv	a0,t6
     c48:	jal	ra,193c <__mulsi3>
     c4c:	mv	s3,a0
     c50:	mv	a1,t0
     c54:	mv	a0,t6
     c58:	jal	ra,193c <__mulsi3>
     c5c:	srli	a3,t4,0x10
     c60:	add	t3,t3,s3
     c64:	add	a3,a3,t3
     c68:	mv	t5,a0
     c6c:	bgeu	a3,s3,c74 <__muldf3+0x298>
     c70:	add	t5,a0,t2
     c74:	and	t3,a3,t1
     c78:	and	t4,t4,t1
     c7c:	srli	s3,a5,0x10
     c80:	slli	t3,t3,0x10
     c84:	and	a5,a5,t1
     c88:	srli	t2,a3,0x10
     c8c:	add	t3,t3,t4
     c90:	mv	a0,s1
     c94:	mv	a1,a5
     c98:	jal	ra,193c <__mulsi3>
     c9c:	mv	t4,a0
     ca0:	mv	a1,s3
     ca4:	mv	a0,s1
     ca8:	jal	ra,193c <__mulsi3>
     cac:	mv	t1,a0
     cb0:	mv	a1,a5
     cb4:	mv	a0,t6
     cb8:	jal	ra,193c <__mulsi3>
     cbc:	mv	s1,a0
     cc0:	mv	a1,s3
     cc4:	mv	a0,t6
     cc8:	jal	ra,193c <__mulsi3>
     ccc:	srli	a2,t4,0x10
     cd0:	add	t1,t1,s1
     cd4:	add	a2,a2,t1
     cd8:	bgeu	a2,s1,ce4 <__muldf3+0x308>
     cdc:	lui	a3,0x10
     ce0:	add	a0,a0,a3
     ce4:	srli	a3,a2,0x10
     ce8:	lui	s5,0x10
     cec:	add	t6,a3,a0
     cf0:	addi	a3,s5,-1 # ffff <__frame_dummy_init_array_entry+0xd783>
     cf4:	and	a2,a2,a3
     cf8:	slli	a2,a2,0x10
     cfc:	and	t4,t4,a3
     d00:	add	t4,a2,t4
     d04:	srli	s1,s0,0x10
     d08:	and	s0,s0,a3
     d0c:	add	t2,t2,t4
     d10:	mv	a0,s0
     d14:	mv	a1,a4
     d18:	jal	ra,193c <__mulsi3>
     d1c:	mv	s4,a0
     d20:	mv	a1,t0
     d24:	mv	a0,s0
     d28:	jal	ra,193c <__mulsi3>
     d2c:	mv	t1,a0
     d30:	mv	a1,a4
     d34:	mv	a0,s1
     d38:	jal	ra,193c <__mulsi3>
     d3c:	mv	s6,a0
     d40:	mv	a1,t0
     d44:	mv	a0,s1
     d48:	jal	ra,193c <__mulsi3>
     d4c:	srli	a4,s4,0x10
     d50:	add	t1,t1,s6
     d54:	add	a4,a4,t1
     d58:	bgeu	a4,s6,d60 <__muldf3+0x384>
     d5c:	add	a0,a0,s5
     d60:	lui	s5,0x10
     d64:	addi	a3,s5,-1 # ffff <__frame_dummy_init_array_entry+0xd783>
     d68:	and	t1,a4,a3
     d6c:	srli	a1,a4,0x10
     d70:	and	s4,s4,a3
     d74:	slli	t1,t1,0x10
     d78:	add	t0,a1,a0
     d7c:	add	t1,t1,s4
     d80:	mv	a0,s0
     d84:	mv	a1,a5
     d88:	jal	ra,193c <__mulsi3>
     d8c:	mv	a4,a0
     d90:	mv	a1,s3
     d94:	mv	a0,s0
     d98:	jal	ra,193c <__mulsi3>
     d9c:	mv	s0,a0
     da0:	mv	a1,a5
     da4:	mv	a0,s1
     da8:	jal	ra,193c <__mulsi3>
     dac:	mv	s4,a0
     db0:	mv	a1,s3
     db4:	mv	a0,s1
     db8:	jal	ra,193c <__mulsi3>
     dbc:	srli	a2,a4,0x10
     dc0:	add	s0,s0,s4
     dc4:	add	a2,a2,s0
     dc8:	bgeu	a2,s4,dd0 <__muldf3+0x3f4>
     dcc:	add	a0,a0,s5
     dd0:	lui	a5,0x10
     dd4:	addi	a5,a5,-1 # ffff <__frame_dummy_init_array_entry+0xd783>
     dd8:	and	a3,a2,a5
     ddc:	and	a4,a4,a5
     de0:	slli	a3,a3,0x10
     de4:	add	t2,t2,t5
     de8:	add	a3,a3,a4
     dec:	sltu	t4,t2,t4
     df0:	add	a3,a3,t6
     df4:	add	a5,a3,t4
     df8:	add	t2,t2,t1
     dfc:	add	a1,a5,t0
     e00:	sltu	t1,t2,t1
     e04:	add	t5,a1,t1
     e08:	sltu	a3,a3,t6
     e0c:	sltu	a5,a5,t4
     e10:	or	a5,a3,a5
     e14:	srli	a2,a2,0x10
     e18:	sltu	a1,a1,t0
     e1c:	sltu	t1,t5,t1
     e20:	add	a5,a5,a2
     e24:	or	t1,a1,t1
     e28:	add	a5,a5,t1
     e2c:	slli	a4,t2,0x9
     e30:	add	a5,a5,a0
     e34:	or	a4,a4,t3
     e38:	slli	a5,a5,0x9
     e3c:	srli	a0,t5,0x17
     e40:	snez	a4,a4
     e44:	srli	t3,t2,0x17
     e48:	slli	a3,t5,0x9
     e4c:	or	a5,a5,a0
     e50:	or	a4,a4,t3
     e54:	or	a4,a4,a3
     e58:	slli	a3,a5,0x7
     e5c:	bgez	a3,f60 <__muldf3+0x584>
     e60:	srli	a3,a4,0x1
     e64:	andi	a4,a4,1
     e68:	or	a4,a3,a4
     e6c:	slli	a3,a5,0x1f
     e70:	or	a4,a4,a3
     e74:	srli	a5,a5,0x1
  FP_PACK_D (r, R);
     e78:	addi	a2,a7,1023
     e7c:	blez	a2,f68 <__muldf3+0x58c>
     e80:	andi	a3,a4,7
     e84:	beqz	a3,ea4 <__muldf3+0x4c8>
     e88:	andi	a3,a4,15
     e8c:	li	a1,4
     e90:	beq	a3,a1,ea4 <__muldf3+0x4c8>
     e94:	addi	a3,a4,4
     e98:	sltu	a4,a3,a4
     e9c:	add	a5,a5,a4
     ea0:	mv	a4,a3
     ea4:	slli	a3,a5,0x7
     ea8:	bgez	a3,ebc <__muldf3+0x4e0>
     eac:	lui	a3,0xff000
     eb0:	addi	a3,a3,-1 # feffffff <__sp+0xfefeffff>
     eb4:	and	a5,a5,a3
     eb8:	addi	a2,a7,1024
     ebc:	li	a3,2046
     ec0:	blt	a3,a2,102c <__muldf3+0x650>
     ec4:	srli	a3,a4,0x3
     ec8:	slli	a4,a5,0x1d
     ecc:	or	a4,a4,a3
     ed0:	srli	a5,a5,0x3
     ed4:	slli	a5,a5,0xc
     ed8:	andi	a3,a2,2047
     edc:	slli	a3,a3,0x14
  FP_HANDLE_EXCEPTIONS;

  return r;
}
     ee0:	lw	ra,44(sp)
     ee4:	lw	s0,40(sp)
  FP_PACK_D (r, R);
     ee8:	srli	a5,a5,0xc
     eec:	slli	a6,a6,0x1f
     ef0:	or	a5,a5,a3
     ef4:	or	a3,a5,a6
}
     ef8:	lw	s1,36(sp)
     efc:	lw	s2,32(sp)
     f00:	lw	s3,28(sp)
     f04:	lw	s4,24(sp)
     f08:	lw	s5,20(sp)
     f0c:	lw	s6,16(sp)
     f10:	lw	s7,12(sp)
     f14:	mv	a0,a4
     f18:	mv	a1,a3
     f1c:	addi	sp,sp,48
     f20:	ret
  FP_UNPACK_D (A, a);
     f24:	mv	a6,s3
  FP_MUL_D (R, A, B);
     f28:	mv	a5,s0
     f2c:	mv	a4,s1
     f30:	mv	a3,s6
  FP_PACK_D (r, R);
     f34:	li	a2,2
     f38:	beq	a3,a2,102c <__muldf3+0x650>
     f3c:	li	a2,3
     f40:	beq	a3,a2,1018 <__muldf3+0x63c>
     f44:	li	a2,1
     f48:	bne	a3,a2,e78 <__muldf3+0x49c>
     f4c:	li	a5,0
     f50:	li	a4,0
     f54:	j	fdc <__muldf3+0x600>
  FP_UNPACK_D (B, b);
     f58:	mv	a6,s4
  FP_MUL_D (R, A, B);
     f5c:	j	f34 <__muldf3+0x558>
     f60:	mv	a7,s2
     f64:	j	e78 <__muldf3+0x49c>
  FP_PACK_D (r, R);
     f68:	li	a1,1
     f6c:	sub	a1,a1,a2
     f70:	li	a3,56
     f74:	blt	a3,a1,f4c <__muldf3+0x570>
     f78:	li	a3,31
     f7c:	blt	a3,a1,fe4 <__muldf3+0x608>
     f80:	addi	a7,a7,1054
     f84:	sll	a3,a5,a7
     f88:	srl	a2,a4,a1
     f8c:	sll	a4,a4,a7
     f90:	or	a3,a3,a2
     f94:	snez	a4,a4
     f98:	or	a4,a3,a4
     f9c:	srl	a5,a5,a1
     fa0:	andi	a3,a4,7
     fa4:	beqz	a3,fc4 <__muldf3+0x5e8>
     fa8:	andi	a3,a4,15
     fac:	li	a2,4
     fb0:	beq	a3,a2,fc4 <__muldf3+0x5e8>
     fb4:	addi	a3,a4,4
     fb8:	sltu	a4,a3,a4
     fbc:	add	a5,a5,a4
     fc0:	mv	a4,a3
     fc4:	slli	a3,a5,0x8
     fc8:	bltz	a3,103c <__muldf3+0x660>
     fcc:	slli	a3,a5,0x1d
     fd0:	srli	a4,a4,0x3
     fd4:	or	a4,a3,a4
     fd8:	srli	a5,a5,0x3
     fdc:	li	a2,0
     fe0:	j	ed4 <__muldf3+0x4f8>
     fe4:	li	a3,-31
     fe8:	sub	a3,a3,a2
     fec:	li	a0,32
     ff0:	srl	a3,a5,a3
     ff4:	li	a2,0
     ff8:	beq	a1,a0,1004 <__muldf3+0x628>
     ffc:	addi	a7,a7,1086
    1000:	sll	a2,a5,a7
    1004:	or	a4,a2,a4
    1008:	snez	a4,a4
    100c:	or	a4,a3,a4
    1010:	li	a5,0
    1014:	j	fa0 <__muldf3+0x5c4>
    1018:	lui	a5,0x80
    101c:	li	a4,0
    1020:	li	a2,2047
    1024:	li	a6,0
    1028:	j	ed4 <__muldf3+0x4f8>
    102c:	li	a5,0
    1030:	li	a4,0
    1034:	li	a2,2047
    1038:	j	ed4 <__muldf3+0x4f8>
    103c:	li	a5,0
    1040:	li	a4,0
    1044:	li	a2,1
    1048:	j	ed4 <__muldf3+0x4f8>

0000104c <__subdf3>:
  FP_DECL_D (B);
  FP_DECL_D (R);
  DFtype r;

  FP_INIT_ROUNDMODE;
  FP_UNPACK_SEMIRAW_D (A, a);
    104c:	lui	a6,0x100
    1050:	addi	a6,a6,-1 # fffff <__sp+0xeffff>
    1054:	and	a7,a6,a1
    1058:	slli	a7,a7,0x3
    105c:	srli	a5,a0,0x1d
{
    1060:	addi	sp,sp,-32
  FP_UNPACK_SEMIRAW_D (A, a);
    1064:	srli	a4,a1,0x14
  FP_UNPACK_SEMIRAW_D (B, b);
    1068:	and	a6,a6,a3
  FP_UNPACK_SEMIRAW_D (A, a);
    106c:	or	a5,a5,a7
  FP_UNPACK_SEMIRAW_D (B, b);
    1070:	srli	a7,a3,0x14
{
    1074:	sw	s1,20(sp)
    1078:	sw	s2,16(sp)
  FP_UNPACK_SEMIRAW_D (A, a);
    107c:	andi	s1,a4,2047
    1080:	srli	s2,a1,0x1f
  FP_UNPACK_SEMIRAW_D (B, b);
    1084:	srli	a4,a2,0x1d
    1088:	slli	a6,a6,0x3
{
    108c:	sw	ra,28(sp)
    1090:	sw	s0,24(sp)
    1094:	sw	s3,12(sp)
  FP_UNPACK_SEMIRAW_D (B, b);
    1098:	andi	a7,a7,2047
  FP_SUB_D (R, A, B);
    109c:	li	a1,2047
  FP_UNPACK_SEMIRAW_D (A, a);
    10a0:	slli	a0,a0,0x3
  FP_UNPACK_SEMIRAW_D (B, b);
    10a4:	srli	a3,a3,0x1f
    10a8:	or	a4,a4,a6
    10ac:	slli	a2,a2,0x3
  FP_SUB_D (R, A, B);
    10b0:	bne	a7,a1,10bc <__subdf3+0x70>
    10b4:	or	a1,a4,a2
    10b8:	bnez	a1,10c0 <__subdf3+0x74>
    10bc:	xori	a3,a3,1
    10c0:	sub	a6,s1,a7
    10c4:	bne	a3,s2,1384 <__subdf3+0x338>
    10c8:	blez	a6,1200 <__subdf3+0x1b4>
    10cc:	bnez	a7,112c <__subdf3+0xe0>
    10d0:	or	a3,a4,a2
    10d4:	beqz	a3,1104 <__subdf3+0xb8>
    10d8:	addi	a6,s1,-1
    10dc:	bnez	a6,10fc <__subdf3+0xb0>
    10e0:	add	a2,a0,a2
    10e4:	sltu	a0,a2,a0
    10e8:	add	a5,a5,a4
    10ec:	add	a5,a5,a0
    10f0:	mv	a0,a2
  FP_UNPACK_SEMIRAW_D (B, b);
    10f4:	li	s1,1
  FP_SUB_D (R, A, B);
    10f8:	j	1184 <__subdf3+0x138>
    10fc:	li	a3,2047
    1100:	bne	s1,a3,113c <__subdf3+0xf0>
  FP_PACK_SEMIRAW_D (r, R);
    1104:	andi	a4,a0,7
    1108:	beqz	a4,1740 <__subdf3+0x6f4>
    110c:	andi	a4,a0,15
    1110:	li	a3,4
    1114:	beq	a4,a3,1740 <__subdf3+0x6f4>
    1118:	addi	a3,a0,4
    111c:	sltu	a0,a3,a0
    1120:	add	a5,a5,a0
    1124:	mv	a0,a3
    1128:	j	1740 <__subdf3+0x6f4>
  FP_SUB_D (R, A, B);
    112c:	li	a3,2047
    1130:	beq	s1,a3,1104 <__subdf3+0xb8>
    1134:	lui	a3,0x800
    1138:	or	a4,a4,a3
    113c:	li	a3,56
    1140:	blt	a3,a6,11f4 <__subdf3+0x1a8>
    1144:	li	a3,31
    1148:	blt	a3,a6,11c0 <__subdf3+0x174>
    114c:	li	a1,32
    1150:	sub	a1,a1,a6
    1154:	sll	a3,a4,a1
    1158:	srl	a7,a2,a6
    115c:	sll	a2,a2,a1
    1160:	or	a3,a3,a7
    1164:	snez	a2,a2
    1168:	or	a2,a3,a2
    116c:	srl	a4,a4,a6
    1170:	add	a2,a2,a0
    1174:	add	a4,a4,a5
    1178:	sltu	a5,a2,a0
    117c:	add	a5,a4,a5
    1180:	mv	a0,a2
    1184:	slli	a4,a5,0x8
    1188:	bgez	a4,1104 <__subdf3+0xb8>
    118c:	addi	s1,s1,1
    1190:	li	a4,2047
    1194:	beq	s1,a4,1738 <__subdf3+0x6ec>
    1198:	lui	a3,0xff800
    119c:	addi	a3,a3,-1 # ff7fffff <__sp+0xff7effff>
    11a0:	and	a3,a5,a3
    11a4:	srli	a1,a0,0x1
    11a8:	andi	a0,a0,1
    11ac:	slli	a5,a3,0x1f
    11b0:	or	a0,a1,a0
    11b4:	or	a0,a5,a0
    11b8:	srli	a5,a3,0x1
    11bc:	j	1104 <__subdf3+0xb8>
    11c0:	addi	a3,a6,-32
    11c4:	li	a7,32
    11c8:	srl	a3,a4,a3
    11cc:	li	a1,0
    11d0:	beq	a6,a7,11e0 <__subdf3+0x194>
    11d4:	li	a1,64
    11d8:	sub	a6,a1,a6
    11dc:	sll	a1,a4,a6
    11e0:	or	a2,a1,a2
    11e4:	snez	a2,a2
    11e8:	or	a2,a3,a2
    11ec:	li	a4,0
    11f0:	j	1170 <__subdf3+0x124>
    11f4:	or	a2,a4,a2
    11f8:	snez	a2,a2
    11fc:	j	11ec <__subdf3+0x1a0>
    1200:	beqz	a6,12e4 <__subdf3+0x298>
    1204:	sub	a1,a7,s1
    1208:	bnez	s1,1244 <__subdf3+0x1f8>
    120c:	or	a3,a5,a0
    1210:	beqz	a3,1718 <__subdf3+0x6cc>
    1214:	addi	a3,a1,-1
    1218:	bnez	a3,1230 <__subdf3+0x1e4>
    121c:	add	a0,a0,a2
    1220:	add	a5,a5,a4
    1224:	sltu	a2,a0,a2
    1228:	add	a5,a5,a2
    122c:	j	10f4 <__subdf3+0xa8>
    1230:	li	a6,2047
    1234:	bne	a1,a6,1258 <__subdf3+0x20c>
  FP_UNPACK_SEMIRAW_D (B, b);
    1238:	mv	a5,a4
    123c:	mv	a0,a2
    1240:	j	15f0 <__subdf3+0x5a4>
  FP_SUB_D (R, A, B);
    1244:	li	a3,2047
    1248:	beq	a7,a3,1238 <__subdf3+0x1ec>
    124c:	lui	a3,0x800
    1250:	or	a5,a5,a3
    1254:	mv	a3,a1
    1258:	li	a1,56
    125c:	blt	a1,a3,12d8 <__subdf3+0x28c>
    1260:	li	a1,31
    1264:	blt	a1,a3,12a4 <__subdf3+0x258>
    1268:	li	a6,32
    126c:	sub	a6,a6,a3
    1270:	srl	t1,a0,a3
    1274:	sll	a1,a5,a6
    1278:	sll	a0,a0,a6
    127c:	or	a1,a1,t1
    1280:	snez	a0,a0
    1284:	or	a0,a1,a0
    1288:	srl	a3,a5,a3
    128c:	add	a0,a0,a2
    1290:	add	a5,a3,a4
    1294:	sltu	a2,a0,a2
    1298:	add	a5,a5,a2
  FP_UNPACK_SEMIRAW_D (B, b);
    129c:	mv	s1,a7
    12a0:	j	1184 <__subdf3+0x138>
  FP_SUB_D (R, A, B);
    12a4:	addi	a1,a3,-32 # 7fffe0 <__sp+0x7effe0>
    12a8:	li	t1,32
    12ac:	srl	a1,a5,a1
    12b0:	li	a6,0
    12b4:	beq	a3,t1,12c4 <__subdf3+0x278>
    12b8:	li	a6,64
    12bc:	sub	a3,a6,a3
    12c0:	sll	a6,a5,a3
    12c4:	or	a0,a6,a0
    12c8:	snez	a0,a0
    12cc:	or	a0,a1,a0
    12d0:	li	a3,0
    12d4:	j	128c <__subdf3+0x240>
    12d8:	or	a0,a5,a0
    12dc:	snez	a0,a0
    12e0:	j	12d0 <__subdf3+0x284>
    12e4:	addi	a3,s1,1
    12e8:	andi	a1,a3,2046
    12ec:	bnez	a1,1354 <__subdf3+0x308>
    12f0:	or	a3,a5,a0
    12f4:	bnez	s1,1334 <__subdf3+0x2e8>
    12f8:	beqz	a3,1728 <__subdf3+0x6dc>
    12fc:	or	a3,a4,a2
    1300:	beqz	a3,1104 <__subdf3+0xb8>
    1304:	add	a2,a0,a2
    1308:	add	a5,a5,a4
    130c:	sltu	a0,a2,a0
    1310:	add	a5,a5,a0
    1314:	slli	a4,a5,0x8
    1318:	mv	a0,a2
    131c:	bgez	a4,1104 <__subdf3+0xb8>
    1320:	lui	a4,0xff800
    1324:	addi	a4,a4,-1 # ff7fffff <__sp+0xff7effff>
    1328:	and	a5,a5,a4
    132c:	li	s1,1
    1330:	j	1104 <__subdf3+0xb8>
    1334:	beqz	a3,1238 <__subdf3+0x1ec>
    1338:	or	a2,a4,a2
    133c:	beqz	a2,15f0 <__subdf3+0x5a4>
    1340:	li	s2,0
    1344:	lui	a5,0x400
    1348:	li	a0,0
    134c:	li	s1,2047
    1350:	j	1740 <__subdf3+0x6f4>
    1354:	li	a1,2047
    1358:	beq	a3,a1,1734 <__subdf3+0x6e8>
    135c:	add	a2,a0,a2
    1360:	add	a4,a5,a4
    1364:	sltu	a5,a2,a0
    1368:	add	a4,a4,a5
    136c:	slli	a0,a4,0x1f
    1370:	srli	a2,a2,0x1
    1374:	or	a0,a0,a2
    1378:	srli	a5,a4,0x1
    137c:	mv	s1,a3
    1380:	j	1104 <__subdf3+0xb8>
    1384:	blez	a6,1478 <__subdf3+0x42c>
    1388:	bnez	a7,1424 <__subdf3+0x3d8>
    138c:	or	a3,a4,a2
    1390:	beqz	a3,1104 <__subdf3+0xb8>
    1394:	addi	a6,s1,-1
    1398:	bnez	a6,13b8 <__subdf3+0x36c>
    139c:	sub	a2,a0,a2
    13a0:	sltu	a0,a0,a2
    13a4:	sub	a5,a5,a4
    13a8:	sub	a5,a5,a0
    13ac:	mv	a0,a2
  FP_UNPACK_SEMIRAW_D (B, b);
    13b0:	li	s1,1
  FP_SUB_D (R, A, B);
    13b4:	j	1408 <__subdf3+0x3bc>
    13b8:	li	a3,2047
    13bc:	beq	s1,a3,1104 <__subdf3+0xb8>
    13c0:	li	a3,56
    13c4:	blt	a3,a6,146c <__subdf3+0x420>
    13c8:	li	a3,31
    13cc:	blt	a3,a6,1438 <__subdf3+0x3ec>
    13d0:	li	a1,32
    13d4:	sub	a1,a1,a6
    13d8:	sll	a3,a4,a1
    13dc:	srl	a7,a2,a6
    13e0:	sll	a2,a2,a1
    13e4:	or	a3,a3,a7
    13e8:	snez	a2,a2
    13ec:	or	a2,a3,a2
    13f0:	srl	a4,a4,a6
    13f4:	sub	a2,a0,a2
    13f8:	sub	a4,a5,a4
    13fc:	sltu	a5,a0,a2
    1400:	sub	a5,a4,a5
    1404:	mv	a0,a2
    1408:	slli	a4,a5,0x8
    140c:	bgez	a4,1104 <__subdf3+0xb8>
    1410:	lui	s0,0x800
    1414:	addi	s0,s0,-1 # 7fffff <__sp+0x7effff>
    1418:	and	s0,a5,s0
    141c:	mv	s3,a0
    1420:	j	162c <__subdf3+0x5e0>
    1424:	li	a3,2047
    1428:	beq	s1,a3,1104 <__subdf3+0xb8>
    142c:	lui	a3,0x800
    1430:	or	a4,a4,a3
    1434:	j	13c0 <__subdf3+0x374>
    1438:	addi	a3,a6,-32
    143c:	li	a7,32
    1440:	srl	a3,a4,a3
    1444:	li	a1,0
    1448:	beq	a6,a7,1458 <__subdf3+0x40c>
    144c:	li	a1,64
    1450:	sub	a6,a1,a6
    1454:	sll	a1,a4,a6
    1458:	or	a2,a1,a2
    145c:	snez	a2,a2
    1460:	or	a2,a3,a2
    1464:	li	a4,0
    1468:	j	13f4 <__subdf3+0x3a8>
    146c:	or	a2,a4,a2
    1470:	snez	a2,a2
    1474:	j	1464 <__subdf3+0x418>
    1478:	beqz	a6,1568 <__subdf3+0x51c>
    147c:	sub	a6,a7,s1
    1480:	bnez	s1,14c4 <__subdf3+0x478>
    1484:	or	a1,a5,a0
    1488:	beqz	a1,17cc <__subdf3+0x780>
    148c:	addi	a1,a6,-1
    1490:	bnez	a1,14ac <__subdf3+0x460>
    1494:	sub	a0,a2,a0
    1498:	sub	a5,a4,a5
    149c:	sltu	a2,a2,a0
    14a0:	sub	a5,a5,a2
    14a4:	mv	s2,a3
    14a8:	j	13b0 <__subdf3+0x364>
    14ac:	li	t1,2047
    14b0:	bne	a6,t1,14d8 <__subdf3+0x48c>
  FP_UNPACK_SEMIRAW_D (B, b);
    14b4:	mv	a5,a4
    14b8:	mv	a0,a2
  FP_SUB_D (R, A, B);
    14bc:	li	s1,2047
    14c0:	j	1590 <__subdf3+0x544>
    14c4:	li	a1,2047
    14c8:	beq	a7,a1,14b4 <__subdf3+0x468>
    14cc:	lui	a1,0x800
    14d0:	or	a5,a5,a1
    14d4:	mv	a1,a6
    14d8:	li	a6,56
    14dc:	blt	a6,a1,155c <__subdf3+0x510>
    14e0:	li	a6,31
    14e4:	blt	a6,a1,1528 <__subdf3+0x4dc>
    14e8:	li	t1,32
    14ec:	sub	t1,t1,a1
    14f0:	srl	t3,a0,a1
    14f4:	sll	a6,a5,t1
    14f8:	sll	a0,a0,t1
    14fc:	or	a6,a6,t3
    1500:	snez	a0,a0
    1504:	or	a0,a6,a0
    1508:	srl	a1,a5,a1
    150c:	sub	a0,a2,a0
    1510:	sub	a5,a4,a1
    1514:	sltu	a2,a2,a0
    1518:	sub	a5,a5,a2
  FP_UNPACK_SEMIRAW_D (B, b);
    151c:	mv	s1,a7
    1520:	mv	s2,a3
    1524:	j	1408 <__subdf3+0x3bc>
  FP_SUB_D (R, A, B);
    1528:	addi	a6,a1,-32 # 7fffe0 <__sp+0x7effe0>
    152c:	li	t3,32
    1530:	srl	a6,a5,a6
    1534:	li	t1,0
    1538:	beq	a1,t3,1548 <__subdf3+0x4fc>
    153c:	li	t1,64
    1540:	sub	a1,t1,a1
    1544:	sll	t1,a5,a1
    1548:	or	a0,t1,a0
    154c:	snez	a0,a0
    1550:	or	a0,a6,a0
    1554:	li	a1,0
    1558:	j	150c <__subdf3+0x4c0>
    155c:	or	a0,a5,a0
    1560:	snez	a0,a0
    1564:	j	1554 <__subdf3+0x508>
    1568:	addi	a1,s1,1
    156c:	andi	a1,a1,2046
    1570:	bnez	a1,1600 <__subdf3+0x5b4>
    1574:	or	a6,a5,a0
    1578:	or	a1,a4,a2
    157c:	bnez	s1,15dc <__subdf3+0x590>
    1580:	bnez	a6,1598 <__subdf3+0x54c>
    1584:	beqz	a1,17dc <__subdf3+0x790>
  FP_UNPACK_SEMIRAW_D (B, b);
    1588:	mv	a5,a4
    158c:	mv	a0,a2
    1590:	mv	s2,a3
    1594:	j	1104 <__subdf3+0xb8>
  FP_SUB_D (R, A, B);
    1598:	beqz	a1,1104 <__subdf3+0xb8>
    159c:	sub	a6,a0,a2
    15a0:	sltu	a7,a0,a6
    15a4:	sub	a1,a5,a4
    15a8:	sub	a1,a1,a7
    15ac:	slli	a7,a1,0x8
    15b0:	bgez	a7,15c8 <__subdf3+0x57c>
    15b4:	sub	a0,a2,a0
    15b8:	sub	a5,a4,a5
    15bc:	sltu	a2,a2,a0
    15c0:	sub	a5,a5,a2
    15c4:	j	1590 <__subdf3+0x544>
    15c8:	or	a0,a6,a1
    15cc:	beqz	a0,17ec <__subdf3+0x7a0>
    15d0:	mv	a5,a1
    15d4:	mv	a0,a6
    15d8:	j	1104 <__subdf3+0xb8>
    15dc:	bnez	a6,15f8 <__subdf3+0x5ac>
    15e0:	beqz	a1,17f4 <__subdf3+0x7a8>
  FP_UNPACK_SEMIRAW_D (B, b);
    15e4:	mv	a5,a4
    15e8:	mv	a0,a2
  FP_SUB_D (R, A, B);
    15ec:	mv	s2,a3
    15f0:	li	s1,2047
    15f4:	j	1104 <__subdf3+0xb8>
    15f8:	beqz	a1,15f0 <__subdf3+0x5a4>
    15fc:	j	1340 <__subdf3+0x2f4>
    1600:	sub	s3,a0,a2
    1604:	sltu	a1,a0,s3
    1608:	sub	s0,a5,a4
    160c:	sub	s0,s0,a1
    1610:	slli	a1,s0,0x8
    1614:	bgez	a1,169c <__subdf3+0x650>
    1618:	sub	s3,a2,a0
    161c:	sub	a5,a4,a5
    1620:	sltu	a2,a2,s3
    1624:	sub	s0,a5,a2
    1628:	mv	s2,a3
    162c:	beqz	s0,16b0 <__subdf3+0x664>
    1630:	mv	a0,s0
    1634:	jal	ra,1960 <__clzsi2>
    1638:	addi	a4,a0,-8
    163c:	li	a5,31
    1640:	blt	a5,a4,16c0 <__subdf3+0x674>
    1644:	li	a5,32
    1648:	sub	a5,a5,a4
    164c:	sll	s0,s0,a4
    1650:	srl	a5,s3,a5
    1654:	or	s0,a5,s0
    1658:	sll	a0,s3,a4
    165c:	blt	a4,s1,1704 <__subdf3+0x6b8>
    1660:	sub	a4,a4,s1
    1664:	addi	a5,a4,1
    1668:	li	a3,31
    166c:	blt	a3,a5,16d0 <__subdf3+0x684>
    1670:	li	a4,32
    1674:	sub	a4,a4,a5
    1678:	srl	a2,a0,a5
    167c:	sll	a3,s0,a4
    1680:	sll	a0,a0,a4
    1684:	or	a3,a3,a2
    1688:	snez	a0,a0
    168c:	or	a0,a3,a0
    1690:	srl	a5,s0,a5
    1694:	li	s1,0
    1698:	j	1104 <__subdf3+0xb8>
    169c:	or	a0,s3,s0
    16a0:	bnez	a0,162c <__subdf3+0x5e0>
    16a4:	li	a5,0
    16a8:	li	s1,0
    16ac:	j	17e4 <__subdf3+0x798>
    16b0:	mv	a0,s3
    16b4:	jal	ra,1960 <__clzsi2>
    16b8:	addi	a0,a0,32
    16bc:	j	1638 <__subdf3+0x5ec>
    16c0:	addi	s0,a0,-40
    16c4:	sll	s0,s3,s0
    16c8:	li	a0,0
    16cc:	j	165c <__subdf3+0x610>
    16d0:	addi	a4,a4,-31
    16d4:	li	a2,32
    16d8:	srl	a4,s0,a4
    16dc:	li	a3,0
    16e0:	beq	a5,a2,16f0 <__subdf3+0x6a4>
    16e4:	li	a3,64
    16e8:	sub	a3,a3,a5
    16ec:	sll	a3,s0,a3
    16f0:	or	a0,a0,a3
    16f4:	snez	a0,a0
    16f8:	or	a0,a4,a0
    16fc:	li	a5,0
    1700:	j	1694 <__subdf3+0x648>
    1704:	lui	a5,0xff800
    1708:	addi	a5,a5,-1 # ff7fffff <__sp+0xff7effff>
    170c:	sub	s1,s1,a4
    1710:	and	a5,s0,a5
    1714:	j	1104 <__subdf3+0xb8>
  FP_UNPACK_SEMIRAW_D (B, b);
    1718:	mv	a5,a4
    171c:	mv	a0,a2
  FP_SUB_D (R, A, B);
    1720:	mv	s1,a1
    1724:	j	1104 <__subdf3+0xb8>
  FP_UNPACK_SEMIRAW_D (B, b);
    1728:	mv	a5,a4
    172c:	mv	a0,a2
    1730:	j	1104 <__subdf3+0xb8>
    1734:	li	s1,2047
    1738:	li	a5,0
    173c:	li	a0,0
  FP_PACK_SEMIRAW_D (r, R);
    1740:	slli	a4,a5,0x8
    1744:	bgez	a4,1760 <__subdf3+0x714>
    1748:	addi	s1,s1,1
    174c:	li	a4,2047
    1750:	beq	s1,a4,1804 <__subdf3+0x7b8>
    1754:	lui	a4,0xff800
    1758:	addi	a4,a4,-1 # ff7fffff <__sp+0xff7effff>
    175c:	and	a5,a5,a4
    1760:	slli	a4,a5,0x1d
    1764:	srli	a0,a0,0x3
    1768:	or	a0,a4,a0
    176c:	li	a4,2047
    1770:	srli	a5,a5,0x3
    1774:	bne	s1,a4,1790 <__subdf3+0x744>
    1778:	or	a0,a0,a5
    177c:	li	a5,0
    1780:	beqz	a0,1790 <__subdf3+0x744>
    1784:	lui	a5,0x80
    1788:	li	a0,0
    178c:	li	s2,0
    1790:	andi	a4,s1,2047
    1794:	slli	a5,a5,0xc
    1798:	slli	a4,a4,0x14
  FP_HANDLE_EXCEPTIONS;

  return r;
}
    179c:	lw	ra,28(sp)
    17a0:	lw	s0,24(sp)
  FP_PACK_SEMIRAW_D (r, R);
    17a4:	srli	a5,a5,0xc
    17a8:	slli	a1,s2,0x1f
    17ac:	or	a5,a5,a4
    17b0:	or	a4,a5,a1
}
    17b4:	lw	s1,20(sp)
    17b8:	lw	s2,16(sp)
    17bc:	lw	s3,12(sp)
    17c0:	mv	a1,a4
    17c4:	addi	sp,sp,32
    17c8:	ret
  FP_UNPACK_SEMIRAW_D (B, b);
    17cc:	mv	a5,a4
    17d0:	mv	a0,a2
  FP_SUB_D (R, A, B);
    17d4:	mv	s1,a6
    17d8:	j	1590 <__subdf3+0x544>
    17dc:	li	a5,0
    17e0:	li	a0,0
    17e4:	li	s2,0
    17e8:	j	1740 <__subdf3+0x6f4>
    17ec:	li	a5,0
    17f0:	j	17e4 <__subdf3+0x798>
    17f4:	li	a0,0
    17f8:	li	s2,0
    17fc:	lui	a5,0x400
    1800:	j	134c <__subdf3+0x300>
    1804:	li	a5,0
    1808:	li	a0,0
    180c:	j	1760 <__subdf3+0x714>

00001810 <__fixdfsi>:
  FP_DECL_EX;
  FP_DECL_D (A);
  USItype r;

  FP_INIT_EXCEPTIONS;
  FP_UNPACK_RAW_D (A, a);
    1810:	srli	a4,a1,0x14
    1814:	lui	a3,0x100
    1818:	addi	a5,a3,-1 # fffff <__sp+0xeffff>
    181c:	andi	a4,a4,2047
  FP_TO_INT_D (r, A, SI_BITS, 1);
    1820:	li	a2,1022
  FP_UNPACK_RAW_D (A, a);
    1824:	and	a5,a5,a1
    1828:	srli	a1,a1,0x1f
  FP_TO_INT_D (r, A, SI_BITS, 1);
    182c:	bge	a2,a4,1888 <__fixdfsi+0x78>
    1830:	li	a2,1053
    1834:	bge	a2,a4,1848 <__fixdfsi+0x38>
    1838:	lui	a0,0x80000
    183c:	not	a0,a0
    1840:	add	a0,a1,a0
    1844:	ret
    1848:	or	a5,a5,a3
    184c:	li	a3,1075
    1850:	sub	a3,a3,a4
    1854:	li	a2,31
    1858:	blt	a2,a3,1878 <__fixdfsi+0x68>
    185c:	addi	a4,a4,-1043
    1860:	sll	a5,a5,a4
    1864:	srl	a0,a0,a3
    1868:	or	a0,a5,a0
    186c:	beqz	a1,188c <__fixdfsi+0x7c>
    1870:	neg	a0,a0
    1874:	ret
    1878:	li	a0,1043
    187c:	sub	a0,a0,a4
    1880:	srl	a0,a5,a0
    1884:	j	186c <__fixdfsi+0x5c>
    1888:	li	a0,0
  FP_HANDLE_EXCEPTIONS;

  return r;
}
    188c:	ret

00001890 <__floatsidf>:
#include "soft-fp.h"
#include "double.h"

DFtype
__floatsidf (SItype i)
{
    1890:	addi	sp,sp,-16
    1894:	sw	ra,12(sp)
    1898:	sw	s0,8(sp)
    189c:	sw	s1,4(sp)
  FP_DECL_D (A);
  DFtype a;

  FP_FROM_INT_D (A, i, SI_BITS, USItype);
    18a0:	beqz	a0,1928 <__floatsidf+0x98>
    18a4:	srai	a5,a0,0x1f
    18a8:	xor	s0,a5,a0
    18ac:	sub	s0,s0,a5
    18b0:	srli	s1,a0,0x1f
    18b4:	mv	a0,s0
    18b8:	jal	ra,1960 <__clzsi2>
    18bc:	li	a4,1054
    18c0:	li	a5,10
    18c4:	sub	a4,a4,a0
    18c8:	blt	a5,a0,1918 <__floatsidf+0x88>
    18cc:	li	a5,11
    18d0:	sub	a5,a5,a0
    18d4:	addi	a0,a0,21 # 80000015 <__sp+0x7fff0015>
    18d8:	srl	a5,s0,a5
    18dc:	sll	s0,s0,a0
  FP_PACK_RAW_D (a, A);
    18e0:	slli	a5,a5,0xc
    18e4:	andi	a4,a4,2047
    18e8:	slli	a4,a4,0x14

  return a;
}
    18ec:	mv	a0,s0
    18f0:	lw	ra,12(sp)
    18f4:	lw	s0,8(sp)
  FP_PACK_RAW_D (a, A);
    18f8:	srli	a5,a5,0xc
    18fc:	slli	s1,s1,0x1f
    1900:	or	a5,a5,a4
    1904:	or	a4,a5,s1
}
    1908:	mv	a1,a4
    190c:	lw	s1,4(sp)
    1910:	addi	sp,sp,16
    1914:	ret
  FP_FROM_INT_D (A, i, SI_BITS, USItype);
    1918:	addi	a0,a0,-11
    191c:	sll	a5,s0,a0
    1920:	li	s0,0
    1924:	j	18e0 <__floatsidf+0x50>
    1928:	li	a5,0
    192c:	li	s0,0
    1930:	li	a4,0
    1934:	li	s1,0
    1938:	j	18e0 <__floatsidf+0x50>

0000193c <__mulsi3>:
/* Our RV64 64-bit routine is equivalent to our RV32 32-bit routine.  */
# define __muldi3 __mulsi3
#endif

FUNC_BEGIN (__muldi3)
  mv     a2, a0
    193c:	mv	a2,a0
  li     a0, 0
    1940:	li	a0,0
.L1:
  andi   a3, a1, 1
    1944:	andi	a3,a1,1
  beqz   a3, .L2
    1948:	beqz	a3,1950 <__mulsi3+0x14>
  add    a0, a0, a2
    194c:	add	a0,a0,a2
.L2:
  srli   a1, a1, 1
    1950:	srli	a1,a1,0x1
  slli   a2, a2, 1
    1954:	slli	a2,a2,0x1
  bnez   a1, .L1
    1958:	bnez	a1,1944 <__mulsi3+0x8>
  ret
    195c:	ret

00001960 <__clzsi2>:
int
__clzSI2 (UWtype x)
{
  Wtype ret;

  count_leading_zeros (ret, x);
    1960:	lui	a5,0x10
    1964:	bgeu	a0,a5,1994 <__clzsi2+0x34>
    1968:	li	a5,255
    196c:	sltu	a5,a5,a0
    1970:	slli	a5,a5,0x3
    1974:	li	a4,32
    1978:	sub	a4,a4,a5
    197c:	srl	a5,a0,a5
    1980:	addi	a0,gp,468 # 2774 <__clz_tab>
    1984:	add	a5,a5,a0
    1988:	lbu	a0,0(a5) # 10000 <__sp>

  return ret;
}
    198c:	sub	a0,a4,a0
    1990:	ret
  count_leading_zeros (ret, x);
    1994:	lui	a4,0x1000
    1998:	li	a5,16
    199c:	bltu	a0,a4,1974 <__clzsi2+0x14>
    19a0:	li	a5,24
    19a4:	j	1974 <__clzsi2+0x14>

000019a8 <atexit>:
    19a8:	mv	a1,a0
    19ac:	li	a3,0
    19b0:	li	a2,0
    19b4:	li	a0,0
    19b8:	j	1bcc <__register_exitproc>

000019bc <exit>:
    19bc:	addi	sp,sp,-16
    19c0:	li	a1,0
    19c4:	sw	s0,8(sp)
    19c8:	sw	ra,12(sp)
    19cc:	mv	s0,a0
    19d0:	jal	ra,1c48 <__call_exitprocs>
    19d4:	lw	a0,144(gp) # 2630 <_global_impure_ptr>
    19d8:	lw	a5,60(a0)
    19dc:	beqz	a5,19e4 <exit+0x28>
    19e0:	jalr	a5
    19e4:	mv	a0,s0
    19e8:	jal	ra,1d54 <_exit>

000019ec <__libc_fini_array>:
    19ec:	addi	sp,sp,-16
    19f0:	lui	a5,0x0
    19f4:	sw	s0,8(sp)
    19f8:	lui	s0,0x0
    19fc:	mv	a4,a5
    1a00:	mv	s0,s0
    1a04:	sub	s0,s0,a4
    1a08:	sw	s1,4(sp)
    1a0c:	sw	ra,12(sp)
    1a10:	srai	s0,s0,0x2
    1a14:	mv	s1,a5
    1a18:	bnez	s0,1a30 <__libc_fini_array+0x44>
    1a1c:	lw	s0,8(sp)
    1a20:	lw	ra,12(sp)
    1a24:	lw	s1,4(sp)
    1a28:	addi	sp,sp,16
    1a2c:	j	50 <_fini>
    1a30:	addi	s0,s0,-1
    1a34:	slli	a5,s0,0x2
    1a38:	add	a5,s1,a5
    1a3c:	lw	a5,0(a5) # 0 <entry>
    1a40:	jalr	a5
    1a44:	j	1a18 <__libc_fini_array+0x2c>

00001a48 <__libc_init_array>:
    1a48:	addi	sp,sp,-16
    1a4c:	lui	a5,0x0
    1a50:	sw	s0,8(sp)
    1a54:	lui	s0,0x0
    1a58:	mv	a4,a5
    1a5c:	mv	s0,s0
    1a60:	sub	s0,s0,a4
    1a64:	sw	s1,4(sp)
    1a68:	sw	s2,0(sp)
    1a6c:	sw	ra,12(sp)
    1a70:	srai	s0,s0,0x2
    1a74:	li	s1,0
    1a78:	mv	s2,a5
    1a7c:	bne	s1,s0,1ac0 <__libc_init_array+0x78>
    1a80:	jal	ra,50 <_fini>
    1a84:	lui	a5,0x0
    1a88:	lui	s0,0x0
    1a8c:	mv	a4,a5
    1a90:	mv	s0,s0
    1a94:	sub	s0,s0,a4
    1a98:	srai	s0,s0,0x2
    1a9c:	li	s1,0
    1aa0:	mv	s2,a5
    1aa4:	bne	s1,s0,1ad8 <__libc_init_array+0x90>
    1aa8:	lw	ra,12(sp)
    1aac:	lw	s0,8(sp)
    1ab0:	lw	s1,4(sp)
    1ab4:	lw	s2,0(sp)
    1ab8:	addi	sp,sp,16
    1abc:	ret
    1ac0:	slli	a5,s1,0x2
    1ac4:	add	a5,s2,a5
    1ac8:	lw	a5,0(a5) # 0 <entry>
    1acc:	addi	s1,s1,1
    1ad0:	jalr	a5
    1ad4:	j	1a7c <__libc_init_array+0x34>
    1ad8:	slli	a5,s1,0x2
    1adc:	add	a5,s2,a5
    1ae0:	lw	a5,0(a5)
    1ae4:	addi	s1,s1,1
    1ae8:	jalr	a5
    1aec:	j	1aa4 <__libc_init_array+0x5c>

00001af0 <memset>:
    1af0:	li	t1,15
    1af4:	mv	a4,a0
    1af8:	bgeu	t1,a2,1b34 <memset+0x44>
    1afc:	andi	a5,a4,15
    1b00:	bnez	a5,1ba0 <memset+0xb0>
    1b04:	bnez	a1,1b88 <memset+0x98>
    1b08:	andi	a3,a2,-16
    1b0c:	andi	a2,a2,15
    1b10:	add	a3,a3,a4
    1b14:	sw	a1,0(a4) # 1000000 <__sp+0xff0000>
    1b18:	sw	a1,4(a4)
    1b1c:	sw	a1,8(a4)
    1b20:	sw	a1,12(a4)
    1b24:	addi	a4,a4,16
    1b28:	bltu	a4,a3,1b14 <memset+0x24>
    1b2c:	bnez	a2,1b34 <memset+0x44>
    1b30:	ret
    1b34:	sub	a3,t1,a2
    1b38:	slli	a3,a3,0x2
    1b3c:	auipc	t0,0x0
    1b40:	add	a3,a3,t0
    1b44:	jr	12(a3)
    1b48:	sb	a1,14(a4)
    1b4c:	sb	a1,13(a4)
    1b50:	sb	a1,12(a4)
    1b54:	sb	a1,11(a4)
    1b58:	sb	a1,10(a4)
    1b5c:	sb	a1,9(a4)
    1b60:	sb	a1,8(a4)
    1b64:	sb	a1,7(a4)
    1b68:	sb	a1,6(a4)
    1b6c:	sb	a1,5(a4)
    1b70:	sb	a1,4(a4)
    1b74:	sb	a1,3(a4)
    1b78:	sb	a1,2(a4)
    1b7c:	sb	a1,1(a4)
    1b80:	sb	a1,0(a4)
    1b84:	ret
    1b88:	andi	a1,a1,255
    1b8c:	slli	a3,a1,0x8
    1b90:	or	a1,a1,a3
    1b94:	slli	a3,a1,0x10
    1b98:	or	a1,a1,a3
    1b9c:	j	1b08 <memset+0x18>
    1ba0:	slli	a3,a5,0x2
    1ba4:	auipc	t0,0x0
    1ba8:	add	a3,a3,t0
    1bac:	mv	t0,ra
    1bb0:	jalr	-96(a3)
    1bb4:	mv	ra,t0
    1bb8:	addi	a5,a5,-16
    1bbc:	sub	a4,a4,a5
    1bc0:	add	a2,a2,a5
    1bc4:	bgeu	t1,a2,1b34 <memset+0x44>
    1bc8:	j	1b04 <memset+0x14>

00001bcc <__register_exitproc>:
    1bcc:	lw	a4,144(gp) # 2630 <_global_impure_ptr>
    1bd0:	mv	t1,a0
    1bd4:	lw	a5,328(a4)
    1bd8:	bnez	a5,1be4 <__register_exitproc+0x18>
    1bdc:	addi	a5,a4,332
    1be0:	sw	a5,328(a4)
    1be4:	lw	a4,4(a5)
    1be8:	li	a6,31
    1bec:	li	a0,-1
    1bf0:	blt	a6,a4,1c44 <__register_exitproc+0x78>
    1bf4:	slli	a7,a4,0x2
    1bf8:	beqz	t1,1c30 <__register_exitproc+0x64>
    1bfc:	add	a0,a5,a7
    1c00:	sw	a2,136(a0)
    1c04:	lw	a6,392(a5)
    1c08:	li	a2,1
    1c0c:	sll	a2,a2,a4
    1c10:	or	a6,a6,a2
    1c14:	sw	a6,392(a5)
    1c18:	sw	a3,264(a0)
    1c1c:	li	a3,2
    1c20:	bne	t1,a3,1c30 <__register_exitproc+0x64>
    1c24:	lw	a3,396(a5)
    1c28:	or	a2,a3,a2
    1c2c:	sw	a2,396(a5)
    1c30:	addi	a4,a4,1
    1c34:	sw	a4,4(a5)
    1c38:	add	a5,a5,a7
    1c3c:	sw	a1,8(a5)
    1c40:	li	a0,0
    1c44:	ret

00001c48 <__call_exitprocs>:
    1c48:	addi	sp,sp,-48
    1c4c:	sw	s3,28(sp)
    1c50:	lw	s3,144(gp) # 2630 <_global_impure_ptr>
    1c54:	sw	s4,24(sp)
    1c58:	sw	s5,20(sp)
    1c5c:	sw	s6,16(sp)
    1c60:	sw	ra,44(sp)
    1c64:	sw	s0,40(sp)
    1c68:	sw	s1,36(sp)
    1c6c:	sw	s2,32(sp)
    1c70:	sw	s7,12(sp)
    1c74:	mv	s5,a0
    1c78:	mv	s4,a1
    1c7c:	li	s6,1
    1c80:	lw	s1,328(s3)
    1c84:	beqz	s1,1c9c <__call_exitprocs+0x54>
    1c88:	lw	s0,4(s1)
    1c8c:	addi	s2,s0,-1
    1c90:	slli	s0,s0,0x2
    1c94:	add	s0,s1,s0
    1c98:	bgez	s2,1cc8 <__call_exitprocs+0x80>
    1c9c:	lw	ra,44(sp)
    1ca0:	lw	s0,40(sp)
    1ca4:	lw	s1,36(sp)
    1ca8:	lw	s2,32(sp)
    1cac:	lw	s3,28(sp)
    1cb0:	lw	s4,24(sp)
    1cb4:	lw	s5,20(sp)
    1cb8:	lw	s6,16(sp)
    1cbc:	lw	s7,12(sp)
    1cc0:	addi	sp,sp,48
    1cc4:	ret
    1cc8:	beqz	s4,1ce0 <__call_exitprocs+0x98>
    1ccc:	lw	a5,260(s0)
    1cd0:	beq	a5,s4,1ce0 <__call_exitprocs+0x98>
    1cd4:	addi	s2,s2,-1
    1cd8:	addi	s0,s0,-4
    1cdc:	j	1c98 <__call_exitprocs+0x50>
    1ce0:	lw	a4,4(s1)
    1ce4:	lw	a5,4(s0)
    1ce8:	addi	a4,a4,-1
    1cec:	bne	a4,s2,1d24 <__call_exitprocs+0xdc>
    1cf0:	sw	s2,4(s1)
    1cf4:	beqz	a5,1cd4 <__call_exitprocs+0x8c>
    1cf8:	lw	a3,392(s1)
    1cfc:	sll	a4,s6,s2
    1d00:	lw	s7,4(s1)
    1d04:	and	a3,a4,a3
    1d08:	bnez	a3,1d2c <__call_exitprocs+0xe4>
    1d0c:	jalr	a5
    1d10:	lw	a5,4(s1)
    1d14:	bne	a5,s7,1c80 <__call_exitprocs+0x38>
    1d18:	lw	a5,328(s3)
    1d1c:	beq	a5,s1,1cd4 <__call_exitprocs+0x8c>
    1d20:	j	1c80 <__call_exitprocs+0x38>
    1d24:	sw	zero,4(s0)
    1d28:	j	1cf4 <__call_exitprocs+0xac>
    1d2c:	lw	a3,396(s1)
    1d30:	lw	a1,132(s0)
    1d34:	and	a4,a4,a3
    1d38:	bnez	a4,1d48 <__call_exitprocs+0x100>
    1d3c:	mv	a0,s5
    1d40:	jalr	a5
    1d44:	j	1d10 <__call_exitprocs+0xc8>
    1d48:	mv	a0,a1
    1d4c:	jalr	a5
    1d50:	j	1d10 <__call_exitprocs+0xc8>

00001d54 <_exit>:
    1d54:	li	a1,0
    1d58:	li	a2,0
    1d5c:	li	a3,0
    1d60:	li	a4,0
    1d64:	li	a5,0
    1d68:	li	a7,93
    1d6c:	ecall
    1d70:	bgez	a0,1d94 <_exit+0x40>
    1d74:	addi	sp,sp,-16
    1d78:	sw	s0,8(sp)
    1d7c:	mv	s0,a0
    1d80:	sw	ra,12(sp)
    1d84:	neg	s0,s0
    1d88:	jal	ra,1d98 <__errno>
    1d8c:	sw	s0,0(a0)
    1d90:	j	1d90 <_exit+0x3c>
    1d94:	j	1d94 <_exit+0x40>

00001d98 <__errno>:
    1d98:	lw	a0,108(gp) # 260c <_impure_ptr>
    1d9c:	ret

Disassembly of section .text.startup:

00001da0 <main>:

        //find the index with the highest intensity
            double max_val = testArray[0];
        int max_index = 0;
            for(int j = 1; j<n; j++){
                    if((testArray[j]-max_val)>1) {
    1da0:	lui	a5,0x2
    1da4:	lw	a6,1564(a5) # 261c <LEDS+0x8>
    1da8:	lw	a5,1560(a5)
{
    1dac:	addi	sp,sp,-928
                    if((testArray[j]-max_val)>1) {
    1db0:	sw	a6,60(sp)
    1db4:	sw	a5,56(sp)
                    }
            }

	*LEDS=32;
        //calculate the frequency from the index
        int max_freq = max_index*SAMPLE_RATE/32;
    1db8:	lui	a5,0x2
    1dbc:	lw	a6,1572(a5) # 2624 <LEDS+0x10>
    1dc0:	lw	a5,1568(a5)
{
    1dc4:	sw	ra,924(sp)
        int max_freq = max_index*SAMPLE_RATE/32;
    1dc8:	sw	a6,84(sp)
    1dcc:	sw	a5,80(sp)
    1dd0:	lui	a5,0x2
    1dd4:	lw	a6,1580(a5) # 262c <LEDS+0x18>
    1dd8:	lw	a5,1576(a5)
{
    1ddc:	sw	s0,920(sp)
    1de0:	sw	s1,916(sp)
        int max_freq = max_index*SAMPLE_RATE/32;
    1de4:	sw	a5,88(sp)
    1de8:	addi	a5,gp,152 # 2638 <_global_impure_ptr+0x8>
    1dec:	sw	a5,76(sp)
{
    1df0:	sw	s2,912(sp)
	*LEDS=1;
    1df4:	lui	a5,0x11080
{
    1df8:	sw	s3,908(sp)
    1dfc:	sw	s4,904(sp)
    1e00:	sw	s5,900(sp)
    1e04:	sw	s6,896(sp)
    1e08:	sw	s7,892(sp)
    1e0c:	sw	s8,888(sp)
    1e10:	sw	s9,884(sp)
    1e14:	sw	s10,880(sp)
    1e18:	sw	s11,876(sp)
        int max_freq = max_index*SAMPLE_RATE/32;
    1e1c:	sw	a6,92(sp)
	*LEDS=1;
    1e20:	li	a4,1
    1e24:	sw	a4,0(a5) # 11080000 <__sp+0x11070000>
    double testI[n];
    1e28:	addi	a5,gp,280 # 26b8 <_global_impure_ptr+0x88>
    1e2c:	sw	a5,72(sp)
	*LEDS=2;
    1e30:	lui	a5,0x11080
    1e34:	li	a4,2
    1e38:	sw	a4,0(a5) # 11080000 <__sp+0x11070000>
    double lookupR[16] = {1, 0, 0.707106781, -0.707106781, 0.923879533, -0.382683432, 0.382683432, -0.923879533, 0.98078528, -0.195090322, 0.555570233, -0.831469612, 0.831469612, -0.555570233, 0.195090322, -0.98078528};
    1e3c:	lw	a5,76(sp)
    1e40:	addi	a4,sp,96
    1e44:	lw	a3,12(a5)
    1e48:	lw	a0,0(a5)
    1e4c:	lw	a1,4(a5)
    1e50:	lw	a2,8(a5)
    1e54:	sw	a3,12(a4)
    1e58:	lw	a3,72(sp)
    1e5c:	sw	a0,0(a4)
    1e60:	sw	a1,4(a4)
    1e64:	sw	a2,8(a4)
    1e68:	addi	a5,a5,16
    1e6c:	addi	a4,a4,16
    1e70:	bne	a5,a3,1e44 <main+0xa4>
    double lookupI[16] = {0, 1, 0.707106781, 0.707106781, 0.382683432, 0.923879533, 0.923879533, 0.382683432, 0.195090322, 0.98078528, 0.831469612, 0.555570233, 0.555570233, 0.831469612, 0.98078528, 0.195090322};
    1e74:	mv	a5,a3
    1e78:	addi	a4,sp,224
    1e7c:	lw	a3,12(a5)
    1e80:	lw	a0,0(a5)
    1e84:	lw	a1,4(a5)
    1e88:	lw	a2,8(a5)
    1e8c:	sw	a3,12(a4)
    1e90:	sw	a0,0(a4)
    1e94:	sw	a1,4(a4)
    1e98:	sw	a2,8(a4)
    1e9c:	addi	a5,a5,16
    1ea0:	addi	a3,gp,408 # 2738 <_global_impure_ptr+0x108>
    1ea4:	addi	a4,a4,16
    1ea8:	bne	a5,a3,1e7c <main+0xdc>
	*LEDS=4;
    1eac:	lui	a5,0x11080
    1eb0:	li	a4,4
    1eb4:	sw	a4,0(a5) # 11080000 <__sp+0x11070000>
    1eb8:	addi	s0,sp,352
    1ebc:	li	s1,1
    {testArray[i] = -i+1;} //*MIC_ADDR;}//store to array
    1ec0:	mv	a0,s1
    1ec4:	jal	ra,1890 <__floatsidf>
    1ec8:	sw	a0,0(s0)
    1ecc:	sw	a1,4(s0)
    for(int i=0; i<n; i++)
    1ed0:	addi	a5,sp,608
    1ed4:	addi	s0,s0,8
    1ed8:	addi	s1,s1,-1
    1edc:	bne	s0,a5,1ec0 <main+0x120>
	*LEDS=8;
    1ee0:	lui	a5,0x11080
    1ee4:	li	a4,8
    1ee8:	sw	a4,0(a5) # 11080000 <__sp+0x11070000>
    1eec:	li	a5,5
    1ef0:	sw	a5,68(sp)
  for (m=n; m>=2; m=m>>1) 
    1ef4:	li	a5,32
    1ef8:	sw	a5,52(sp)
    mt = m >> 1;
    1efc:	lw	a4,52(sp)
    1f00:	addi	t4,sp,608
    for (g=0,k=0; g<n; g+=m,k++) 
    1f04:	li	t3,0
    mt = m >> 1;
    1f08:	srai	a5,a4,0x1
    1f0c:	sw	a5,64(sp)
    for (g=0,k=0; g<n; g+=m,k++) 
    1f10:	addi	t6,sp,96
    1f14:	addi	t0,sp,224
    1f18:	slli	t1,a4,0x3
    1f1c:	slli	t2,a5,0x3
    mt = m >> 1;
    1f20:	addi	t5,sp,352
    for (g=0,k=0; g<n; g+=m,k++) 
    1f24:	mv	s1,t3
    1f28:	mv	s11,t4
      w_re = W_re[k];
    1f2c:	lw	a3,0(t6)
    1f30:	lw	a4,4(t6)
      for (b=g; b<(g+mt); b++) 
    1f34:	lw	a5,64(sp)
      w_re = W_re[k];
    1f38:	sw	a3,0(sp)
    1f3c:	sw	a4,4(sp)
      w_im = W_im[k];
    1f40:	lw	a3,0(t0) # 1ba4 <memset+0xb4>
    1f44:	lw	a4,4(t0)
      for (b=g; b<(g+mt); b++) 
    1f48:	add	a5,s1,a5
      w_im = W_im[k];
    1f4c:	sw	a3,8(sp)
    1f50:	sw	a4,12(sp)
      for (b=g; b<(g+mt); b++) 
    1f54:	bge	s1,a5,20e0 <main+0x340>
    1f58:	add	s0,t2,t5
    1f5c:	add	s10,t2,s11
    1f60:	mv	s9,s11
    1f64:	sw	s11,28(sp)
    1f68:	add	a6,s0,t2
    1f6c:	mv	s8,t5
    1f70:	mv	s11,t2
        t_re = w_re * A_re[b+mt] - w_im * A_im[b+mt]; 
    1f74:	lw	s6,0(s0)
    1f78:	lw	s7,4(s0)
    1f7c:	lw	a0,0(sp)
    1f80:	lw	a1,4(sp)
    1f84:	mv	a2,s6
    1f88:	mv	a3,s7
    1f8c:	sw	t6,48(sp)
    1f90:	sw	t0,44(sp)
    1f94:	sw	t5,40(sp)
    1f98:	sw	t1,36(sp)
    1f9c:	sw	a6,32(sp)
    1fa0:	lw	s2,0(s10)
    1fa4:	jal	ra,9dc <__muldf3>
    1fa8:	lw	s3,4(s10)
    1fac:	mv	s4,a0
    1fb0:	mv	s5,a1
    1fb4:	lw	a0,8(sp)
    1fb8:	lw	a1,12(sp)
    1fbc:	mv	a2,s2
    1fc0:	mv	a3,s3
    1fc4:	jal	ra,9dc <__muldf3>
    1fc8:	mv	a2,a0
    1fcc:	mv	a3,a1
    1fd0:	mv	a0,s4
    1fd4:	mv	a1,s5
    1fd8:	jal	ra,104c <__subdf3>
    1fdc:	sw	a0,16(sp)
    1fe0:	sw	a1,20(sp)
        t_im = w_re * A_im[b+mt] + w_im * A_re[b+mt];
    1fe4:	lw	a0,0(sp)
    1fe8:	lw	a1,4(sp)
    1fec:	mv	a2,s2
    1ff0:	mv	a3,s3
    1ff4:	jal	ra,9dc <__muldf3>
    1ff8:	mv	s2,a0
    1ffc:	mv	s3,a1
    2000:	lw	a0,8(sp)
    2004:	lw	a1,12(sp)
    2008:	mv	a2,s6
    200c:	mv	a3,s7
    2010:	jal	ra,9dc <__muldf3>
    2014:	mv	a2,a0
    2018:	mv	a3,a1
    201c:	mv	a0,s2
    2020:	mv	a1,s3
    2024:	jal	ra,134 <__adddf3>
        u_re = A_re[b];
    2028:	lw	s6,0(s8)
    202c:	lw	s7,4(s8)
        t_im = w_re * A_im[b+mt] + w_im * A_re[b+mt];
    2030:	mv	s4,a0
    2034:	mv	s5,a1
        A_re[b] = u_re + t_re;
    2038:	lw	a0,16(sp)
    203c:	lw	a1,20(sp)
        u_im = A_im[b];
    2040:	lw	s2,0(s9)
    2044:	lw	s3,4(s9)
        A_re[b] = u_re + t_re;
    2048:	mv	a2,s6
    204c:	mv	a3,s7
    2050:	jal	ra,134 <__adddf3>
    2054:	sw	a0,0(s8)
    2058:	sw	a1,4(s8)
        A_im[b] = u_im + t_im;
    205c:	mv	a2,s2
    2060:	mv	a3,s3
    2064:	mv	a0,s4
    2068:	mv	a1,s5
    206c:	jal	ra,134 <__adddf3>
        A_re[b+mt] = u_re - t_re;
    2070:	lw	a2,16(sp)
    2074:	lw	a3,20(sp)
        A_im[b] = u_im + t_im;
    2078:	sw	a0,0(s9)
    207c:	sw	a1,4(s9)
        A_re[b+mt] = u_re - t_re;
    2080:	mv	a0,s6
    2084:	mv	a1,s7
    2088:	jal	ra,104c <__subdf3>
    208c:	sw	a0,0(s0)
    2090:	sw	a1,4(s0)
        A_im[b+mt] = u_im - t_im;
    2094:	mv	a2,s4
    2098:	mv	a3,s5
    209c:	mv	a0,s2
    20a0:	mv	a1,s3
    20a4:	jal	ra,104c <__subdf3>
    20a8:	sw	a0,0(s10)
    20ac:	sw	a1,4(s10)
      for (b=g; b<(g+mt); b++) 
    20b0:	lw	a6,32(sp)
    20b4:	addi	s0,s0,8
    20b8:	addi	s10,s10,8
    20bc:	addi	s8,s8,8
    20c0:	addi	s9,s9,8
    20c4:	lw	t1,36(sp)
    20c8:	lw	t5,40(sp)
    20cc:	lw	t0,44(sp)
    20d0:	lw	t6,48(sp)
    20d4:	bne	s0,a6,1f74 <main+0x1d4>
    20d8:	mv	t2,s11
    20dc:	lw	s11,28(sp)
    for (g=0,k=0; g<n; g+=m,k++) 
    20e0:	lw	a5,52(sp)
    20e4:	addi	t6,t6,8
    20e8:	addi	t0,t0,8
    20ec:	add	s1,s1,a5
    20f0:	li	a5,31
    20f4:	add	t5,t5,t1
    20f8:	add	s11,s11,t1
    20fc:	bge	a5,s1,1f2c <main+0x18c>
    2100:	lw	a5,68(sp)
  for (m=n; m>=2; m=m>>1) 
    2104:	lw	a4,64(sp)
    2108:	addi	a5,a5,-1
    210c:	sw	a5,68(sp)
    2110:	sw	a4,52(sp)
    2114:	bnez	a5,1efc <main+0x15c>
	*LEDS=16;
    2118:	lui	a5,0x11080
    211c:	li	a4,16
            double max_val = testArray[0];
    2120:	lw	s5,352(sp)
    2124:	lw	s4,356(sp)
    2128:	addi	s0,sp,360
	*LEDS=16;
    212c:	sw	a4,0(a5) # 11080000 <__sp+0x11070000>
        int max_index = 0;
    2130:	li	s6,0
            for(int j = 1; j<n; j++){
    2134:	li	s1,1
                    if((testArray[j]-max_val)>1) {
    2138:	lw	s2,4(s0)
    213c:	lw	s3,0(s0)
    2140:	mv	a2,s5
    2144:	mv	a3,s4
    2148:	mv	a0,s3
    214c:	mv	a1,s2
    2150:	jal	ra,104c <__subdf3>
    2154:	lw	a2,56(sp)
    2158:	lw	a3,60(sp)
    215c:	jal	ra,8f4 <__gedf2>
    2160:	blez	a0,2170 <main+0x3d0>
    2164:	mv	s6,s1
    2168:	mv	s5,s3
    216c:	mv	s4,s2
            for(int j = 1; j<n; j++){
    2170:	addi	s1,s1,1
    2174:	li	a5,32
    2178:	addi	s0,s0,8
    217c:	bne	s1,a5,2138 <main+0x398>
	*LEDS=32;
    2180:	lui	s0,0x11080
    2184:	sw	a5,0(s0) # 11080000 <__sp+0x11070000>
        int max_freq = max_index*SAMPLE_RATE/32;
    2188:	mv	a0,s6
    218c:	jal	ra,1890 <__floatsidf>
    2190:	lw	a2,80(sp)
    2194:	lw	a3,84(sp)
    2198:	jal	ra,9dc <__muldf3>
    219c:	lw	a2,88(sp)
    21a0:	lw	a3,92(sp)
    21a4:	jal	ra,9dc <__muldf3>
    21a8:	jal	ra,1810 <__fixdfsi>
        *SSEG_ADDR = max_freq;
    21ac:	lui	a5,0x110c0
    21b0:	sw	a0,0(a5) # 110c0000 <__sp+0x110b0000>
        //printf("%g\n", max_freq);
    //}    

	*LEDS=64;
    21b4:	li	a5,64
    21b8:	sw	a5,0(s0)
  {
    21bc:	j	1e30 <main+0x90>
