
build/program.elf:     file format elf32-littleriscv

Contents of section .text.init:
 0000 17010100 130101fe ef001075 6f000000  ...........uo...
Contents of section .text:
 0010 97110000 93818174 17350000 13050582  .......t.5......
 0020 17360000 13068681 3306a640 93050000  .6......3..@....
 0030 ef00d034 17150000 130545a4 ef00501f  ...4......E...P.
 0040 ef005029 03250100 93054100 13060000  ..P).%....A.....
 0050 ef009070 6f00101f 67800000 37350000  ...po...g...75..
 0060 b7370000 1307c583 9387c783 638ce700  .7..........c...
 0070 37030000 13030300 63060300 1305c583  7.......c.......
 0080 67000300 67800000 b7370000 37350000  g...g....7..75..
 0090 9385c783 9307c583 b385f540 93d52540  ...........@..%@
 00a0 93d7f501 b385b700 93d51540 638c0500  ...........@c...
 00b0 37030000 13030300 63060300 1305c583  7.......c.......
 00c0 67000300 67800000 b7270000 03c7873c  g...g....'.....<
 00d0 63160704 130101ff 23248100 23261100  c.......#$..#&..
 00e0 13840700 eff09ff7 b7070000 93870700  ................
 00f0 638a0700 37350000 13058583 97000000  c...75..........
 0100 e7000000 93071000 2304f43c 8320c100  ........#..<. ..
 0110 03248100 13010101 67800000 67800000  .$......g...g...
 0120 b7070000 93870700 63860702 b7250000  ........c....%..
 0130 37350000 130101ff 9385c53c 13058583  75.........<....
 0140 23261100 97000000 e7000000 8320c100  #&........... ..
 0150 13010101 6ff05ff3 37130000 930e0000  ....o._.7.......
 0160 13038310 37081011 37051411 130ef00f  ....7...7.......
 0170 9306d004 130f9003 93d81e40 13f61e00  ...........@....
 0180 93881800 93957e00 93070000 13f71700  ......~.........
 0190 631a0704 63080608 13d71740 930f1700  c...c......@....
 01a0 13974f00 3307f741 13171700 33071701  ..O.3..A....3...
 01b0 13172700 33076700 03270700 b3eff500  ..'.3.g..'......
 01c0 2320f801 13774700 631a0704 2320c501  # ...wG.c...# ..
 01d0 93871700 e39cd7fa 938e1e00 e39eeef9  ................
 01e0 67800000 13d71740 930f1700 13974f00  g......@......O.
 01f0 3307f741 13171700 33071701 13172700  3..A....3.....'.
 0200 33076700 03270700 b3eff500 63140602  3.g..'......c...
 0210 13772700 2320f801 e30a07fa 23200500  .w'.# ......# ..
 0220 6ff01ffb 33e7f500 2320e800 23200500  o...3...# ..# ..
 0230 6ff01ffa 13771700 2320f801 e31807f8  o....w..# ......
 0240 23200500 6ff0dff8 130101ff b71e0000  # ..o...........
 0250 23268100 23249100 930f0000 938e8e10  #&..#$..........
 0260 37031011 b7081411 130ff00f 9302000e  7...............
 0270 9306d004 93039003 13de1f40 13f61f00  ...........@....
 0280 130e1e00 13987f00 93070000 13f71700  ................
 0290 63100706 630e0608 13d71740 13041700  c...c......@....
 02a0 13174400 33078740 13171700 3307c701  ..D.3..@....3...
 02b0 13172700 3307d701 03270700 3364f800  ..'.3....'..3d..
 02c0 23208300 13774700 63100706 23a0e801  # ...wG.c...#...
 02d0 93871700 e39cd7fa 938f1f00 e39e7ff8  ................
 02e0 0324c100 83248100 13010101 67800000  .$...$......g...
 02f0 13d71740 13041700 63140604 13174400  ...@....c.....D.
 0300 33078740 13171700 3307c701 13172700  3..@....3.....'.
 0310 3307d701 03270700 3364f800 23208300  3....'..3d..# ..
 0320 13772700 e30407fa 23a00800 6ff05ffa  .w'.....#...o._.
 0330 3367f800 2320e300 23a00800 6ff05ff9  3g..# ..#...o._.
 0340 b364f800 630aa402 13174400 33078740  .d..c.....D.3..@
 0350 13171700 3307c701 13172700 3307d701  ....3.....'.3...
 0360 03270700 23209300 13771700 e31007f6  .'..# ...w......
 0370 23a00800 6ff0dff5 e318befc 23209300  #...o.......# ..
 0380 23a05800 6ff0dff4 67800000 b7170000  #.X.o...g.......
 0390 37160000 130101ff 1306062c 93050000  7..........,....
 03a0 13858710 23248100 23261100 13848710  ....#$..#&......
 03b0 ef00c07c 37370000 93061000 232ad780  ...|77......#*..
 03c0 13058407 13030000 130e7002 9308d001  ..........p.....
 03d0 130785f8 63000306 6300c309 130685f8  ....c...c.......
 03e0 93060000 6f004001 2320f600 638a160b  ....o.@.# ..c...
 03f0 93861600 13064600 83250600 138736fe  ......F..%....6.
 0400 93371700 13f8e5ff b3e70701 3337e000  .7..........37..
 0410 93f797ff 13172700 93e72700 b3e7e700  ......'...'.....
 0420 e39406fc 93f585ff 93e51500 2320b600  ............# ..
 0430 6ff01ffc 83270700 13074700 93f787ff  o....'....G.....
 0440 93e71700 232ef7fe e316e5fe 13031000  ....#...........
 0450 13058507 e314c3f9 130785f8 13060000  ................
 0460 9305d001 6f004001 2320f700 6300b604  ....o.@.# ..c...
 0470 13061600 13074700 83260700 930736fe  ......G..&....6.
 0480 b337f000 93f686ff 93972700 93e61600  .7........'.....
 0490 b3e7d700 e31a06fc 2320d700 6ff05ffd  ........# ..o._.
 04a0 13031300 13058507 6ff09ff2 8320c100  ........o.... ..
 04b0 03248100 13010101 67800000 130101fb  .$......g.......
 04c0 37180000 23267103 930b8810 83a7cb07  7...#&q.........
 04d0 3707ffff 23229104 93e71700 23aefb06  7...#"......#...
 04e0 9307d71f 23202105 23286103 23229103  ....# !.#(a.#"..
 04f0 2320a103 232eb101 23261104 23248104  # ..#...#&..#$..
 0500 232e3103 232c4103 232a5103 23248103  #.1.#,A.#*Q.#$..
 0510 130b1000 930c1000 130d0001 930d1000  ................
 0520 13092000 93043000 2320f100 b3069d41  .. ...0.# .....A
 0530 1304fbff 93961600 b3858600 93952500  ..............%.
 0540 b385bb00 83a50500 93f51500 638e0516  ............c...
 0550 130c1b00 338a8601 131a2a00 338a4b01  ....3.....*.3.K.
 0560 83250a00 93f51500 63800516 938afcff  .%......c.......
 0570 93954a00 b3855541 93951500 b3856501  ..J...UA......e.
 0580 93952500 b385bb00 83a50500 93f51500  ..%.............
 0590 63860502 13851c00 93154500 b385a540  c.........E....@
 05a0 93971500 b3876701 13952700 3385ab00  ......g...'.3...
 05b0 03250500 13751500 63100536 93964a00  .%...u..c..6..J.
 05c0 b3865641 93961600 b3866601 93962600  ..VA......f...&.
 05d0 b386db00 83a60600 93f61600 6386060e  ............c...
 05e0 93851c00 93964500 b386b640 93961600  ......E....@....
 05f0 b3866601 93962600 b386db00 83a60600  ..f...&.........
 0600 93f61600 63960602 6f00000c 03250500  ....c...o....%..
 0610 13751500 630a050a 83a60600 93f61600  .u..c...........
 0620 6384060a 83a60500 93f61600 638e0608  c...........c...
 0630 b3079d41 93971700 33876701 13172700  ...A....3.g...'.
 0640 3387eb00 03270700 13569740 937cf607  3....'...V.@.|..
 0650 13573740 139d4c00 137bf703 13831c00  .W7@..L..{......
 0660 33059d41 93154300 13151500 1304fbff  3..A..C.........
 0670 b3856540 33038500 138efcff 13132300  ..e@3.........#.
 0680 93164e00 33836b00 b386c641 03230300  ..N.3.k....A.#..
 0690 130e1b00 93961600 93951500 3305c501  ............3...
 06a0 b3866601 b3856501 13152500 93962600  ..f...e...%...&.
 06b0 93952500 13731300 3385ab00 b386db00  ..%..s..3.......
 06c0 b385bb00 e31403f4 138cfcff 93194c00  ..............L.
 06d0 b3898941 938a1c00 93991900 b3896901  ...A..........i.
 06e0 139a4a00 93992900 330a5a41 b3893b01  ..J...).3.ZA..;.
 06f0 131a1a00 ef008057 9356f541 93d6e601  .......W.V.A....
 0700 3305d500 13753500 3305d540 6300b515  3....u5.3..@c...
 0710 63d8ad0c 63022519 e31e95fc b3056a01  c...c.%.......j.
 0720 93952500 b385bb00 83a60500 13f51600  ..%.............
 0730 e31205fc b707ffff 9387b71f 13969c00  ................
 0740 b3f6f600 b3e6c600 93f676e0 93173b00  ..........v...;.
 0750 b3e6f600 938c0a00 23a0d500 139d4a00  ........#.....J.
 0760 b3059d41 93951500 b3856501 93952500  ...A......e...%.
 0770 b7370000 93e61600 b385bb00 03a54781  .7............G.
 0780 23a0d500 b7060011 83a60600 13051500  #...............
 0790 23aaa780 93f62600 63900616 93067042  #.....&.c.....pB
 07a0 e3d6a6d8 8320c104 03248104 83244104  ..... ...$...$A.
 07b0 03290104 8329c103 032a8103 832a4103  .)...)...*...*A.
 07c0 032b0103 832bc102 032c8102 832c4102  .+...+...,...,A.
 07d0 032d0102 832dc101 13010105 67800000  .-...-......g...
 07e0 e31a05f0 b3069d41 93961600 33858600  .......A....3...
 07f0 13152500 3385ab00 83250500 93f51500  ..%.3....%......
 0800 e39a05ee b3856601 93952500 b385bb00  ......f...%.....
 0810 03a30500 b707ffff 9387f71f 1373d3ff  .............s..
 0820 23a06500 83250500 93969c00 131e3b00  #.e..%........;.
 0830 b3f5f500 b3e6d500 93f676e0 b3e6c601  ..........v.....
 0840 130b0400 2320d500 6ff09ff1 b3059d41  ....# ..o......A
 0850 13051b00 93951500 b385a500 93952500  ..............%.
 0860 b385bb00 83a60500 13f31600 e31403e8  ................
 0870 83270100 13939c00 13173b00 b3f6f600  .'........;.....
 0880 b3e66600 93f676e0 b3e6e600 23a0d500  ..f...v.....#...
 0890 130b0500 6ff0dfec 83a60900 93f61600  ....o...........
 08a0 e39a06e4 b3079d41 93971700 b3876701  .......A......g.
 08b0 93972700 b387fb00 03a50700 13939c00  ..'.............
 08c0 93163b00 1376b5ff 23a0c700 83a50900  ..;..v..#.......
 08d0 b707ffff 9387f71f b3f5f500 b3e56500  ..............e.
 08e0 93f575e0 b3e6d500 930c0c00 131d4c00  ..u...........L.
 08f0 23a0d900 6ff0dfe6 93050b00 13850c00  #...o...........
 0900 eff09f94 b7370000 83a54781 93067042  .....7....G...pB
 0910 e3deb6c0 6ff01fe9 b3896601 93992900  ....o.....f...).
 0920 b3893b01 2326b100 2322f100 23244101  ..;.#&..#"..#$A.
 0930 ef00c033 9356f541 93d6e601 3305d500  ...3.V.A....3...
 0940 13753500 3305d540 6308b507 63d6ad04  .u5.3..@c...c...
 0950 63062509 e31e95fc 83274100 93962700  c.%......'A...'.
 0960 b386db00 83a60600 93f54600 e38205fc  ..........F.....
 0970 93076002 e38efcfa 8327c100 93f6b6ff  ..`......'......
 0980 93951700 b3856501 93952500 b385bb00  ......e...%.....
 0990 23a0d500 6f000006 e31c05f8 83a60900  #...o...........
 09a0 93f52600 e38605f8 e304bbf9 93f6d6ff  ..&.............
 09b0 23a0d900 6f000004 83278100 83a60700  #...o....'......
 09c0 93f52600 e38605f6 9305c001 e302bbf6  ..&.............
 09d0 93f6d6ff 2320da00 6f00c001 83a60900  ....# ..o.......
 09e0 93f54600 e38605f4 e384bcf5 93f6b6ff  ..F.............
 09f0 23a0d900 b3069d41 93961600 b3858600  #......A........
 0a00 93952500 b385bb00 83a50500 93f51500  ..%.............
 0a10 e38c05ca b3868601 93962600 b386db00  ..........&.....
 0a20 83a60600 93f61600 e39a06b8 6ff0dfc9  ............o...
 0a30 93050500 93060000 13060000 13050000  ................
 0a40 6f004028 130101ff 93050000 23248100  o.@(........#$..
 0a50 23261100 13040500 ef00c02e b7370000  #&...........7..
 0a60 03a5c782 8327c503 63840700 e7800700  .....'..c.......
 0a70 13050400 ef00003e 130101ff b7070000  .......>........
 0a80 23248100 37040000 13870700 13040400  #$..7...........
 0a90 3304e440 23229100 23261100 13542440  3..@#"..#&...T$@
 0aa0 93840700 631c0400 03248100 8320c100  ....c....$... ..
 0ab0 83244100 13010101 6ff00fda 1304f4ff  .$A.....o.......
 0ac0 93172400 b387f400 83a70700 e7800700  ..$.............
 0ad0 6ff05ffd 130101ff b7070000 23248100  o._.........#$..
 0ae0 37040000 13870700 13040400 3304e440  7...........3..@
 0af0 23229100 23202101 23261100 13542440  #"..# !.#&...T$@
 0b00 93040000 13890700 63928404 eff0cfd4  ........c.......
 0b10 b7070000 37040000 13870700 13040400  ....7...........
 0b20 3304e440 13542440 93040000 13890700  3..@.T$@........
 0b30 639a8402 8320c100 03248100 83244100  c.... ...$...$A.
 0b40 03290100 13010101 67800000 93972400  .)......g.....$.
 0b50 b307f900 83a70700 93841400 e7800700  ................
 0b60 6ff09ffa 93972400 b307f900 83a70700  o.....$.........
 0b70 93841400 e7800700 6ff09ffb 1303f000  ........o.......
 0b80 13070500 637ec302 9377f700 6390070a  ....c~...w..c...
 0b90 63920508 937606ff 1376f600 b386e600  c....v...v......
 0ba0 2320b700 2322b700 2324b700 2326b700  # ..#"..#$..#&..
 0bb0 13070701 e366d7fe 63140600 67800000  .....f..c...g...
 0bc0 b306c340 93962600 97020000 b3865600  ...@..&.......V.
 0bd0 6780c600 2307b700 a306b700 2306b700  g...#.......#...
 0be0 a305b700 2305b700 a304b700 2304b700  ....#.......#...
 0bf0 a303b700 2303b700 a302b700 2302b700  ....#.......#...
 0c00 a301b700 2301b700 a300b700 2300b700  ....#.......#...
 0c10 67800000 93f5f50f 93968500 b3e5d500  g...............
 0c20 93960501 b3e5d500 6ff0dff6 93962700  ........o.....'.
 0c30 97020000 b3865600 93820000 e78006fa  ......V.........
 0c40 93800200 938707ff 3307f740 3306f600  ........3..@3...
 0c50 e378c3f6 6ff0dff3 b7370000 83a78781  .x..o....7......
 0c60 23a4a70a 23a6070a 67800000 130101ff  #...#...g.......
 0c70 b7370000 23248100 03a48781 b7370000  .7..#$.......7..
 0c80 03a60783 0325840a 8325c40a 83a64783  .....%...%....G.
 0c90 23261100 ef000021 93071500 33b5a700  #&.....!....3...
 0ca0 3305b500 2326a40a 2324f40a 8320c100  3...#&..#$... ..
 0cb0 03248100 13151500 13551500 13010101  .$.......U......
 0cc0 67800000 b7370000 03a7c782 13030500  g....7..........
 0cd0 83278714 63960700 9307c714 2324f714  .'..c.......#$..
 0ce0 03a74700 1308f001 1305f0ff 634ae804  ..G.........cJ..
 0cf0 93182700 630c0302 33851701 2324c508  ..'.c...3...#$..
 0d00 03a88718 13061000 3316e600 3368c800  ........3...3h..
 0d10 23a40719 2324d510 93062000 6318d300  #...#$.... .c...
 0d20 83a6c718 33e6c600 23a6c718 13071700  ....3...#.......
 0d30 23a2e700 b3871701 23a4b700 13050000  #.......#.......
 0d40 67800000 130101fd b7370000 232e3101  g........7..#.1.
 0d50 83a9c782 232c4101 232a5101 23286101  ....#,A.#*Q.#(a.
 0d60 23261102 23248102 23229102 23202103  #&..#$..#"..# !.
 0d70 23267101 930a0500 138a0500 130b1000  #&q.............
 0d80 83a48914 638c0400 03a44400 1309f4ff  ....c.....D.....
 0d90 13142400 33848400 63580902 8320c102  ..$.3...cX... ..
 0da0 03248102 83244102 03290102 8329c101  .$...$A..)...)..
 0db0 032a8101 832a4101 032b0101 832bc100  .*...*A..+...+..
 0dc0 13010103 67800000 630c0a00 83274410  ....g...c....'D.
 0dd0 63884701 1309f9ff 1304c4ff 6ff0dffb  c.G.........o...
 0de0 03a74400 83274400 1307f7ff 631c2703  ..D..'D.....c.'.
 0df0 23a22401 e38007fe 83a68418 33172b01  #.$.........3.+.
 0e00 83ab4400 b376d700 63920602 e7800700  ..D..v..c.......
 0e10 83a74400 e39677f7 83a78914 e38c97fa  ..D...w.........
 0e20 6ff01ff6 23220400 6ff0dffc 83a6c418  o...#"..o.......
 0e30 83254408 3377d700 63180700 13850a00  .%D.3w..c.......
 0e40 e7800700 6ff0dffc 13850500 e7800700  ....o...........
 0e50 6ff01ffc 93050000 13060000 93060000  o...............
 0e60 13070000 93070000 9308d005 73000000  ............s...
 0e70 63520502 130101ff 23248100 13040500  cR......#$......
 0e80 23261100 33048040 ef000001 23208500  #&..3..@....# ..
 0e90 6f000000 6f000000 b7370000 03a58781  o...o....7......
 0ea0 67800000 130101ff 13830600 23261100  g...........#&..
 0eb0 130e0500 93080500 93060600 13070000  ................
 0ec0 93070000 13080000 13f51600 931e1700  ................
 0ed0 630c0500 33850801 33380501 b387e700  c...3...38......
 0ee0 b307f800 13080500 13d7f801 93d61600  ................
 0ef0 33e7ee00 93981800 e39806fc 63880500  3...........c...
 0f00 13050600 ef000003 b387a700 630a0300  ............c...
 0f10 13050e00 93050300 ef00c001 b307f500  ................
 0f20 8320c100 13050800 93850700 13010101  . ..............
 0f30 67800000 13060500 13050000 93f61500  g...............
 0f40 63840600 3305c500 93d51500 13161600  c...3...........
 0f50 e39605fe 67800000                    ....g...        
Contents of section .text.startup:
 0f58 b7070011 03a50700 130101fd 23229102  ............#"..
 0f68 232c4101 232a5101 b7240000 b71a0000  #,A.#*Q..$......
 0f78 371a0000 23248102 23202103 232e3101  7...#$..# !.#.1.
 0f88 23286101 23267101 23248101 23261102  #(a.#&q.#$..#&..
 0f98 b73b0000 eff0dfcb 138b8a10 9384843c  .;.............<
 0fa8 37040811 93091000 130a0a2c 13097002  7..........,..p.
 0fb8 130cd001 13060a00 23203401 93050000  ........# 4.....
 0fc8 13858a10 eff01fbb 93070b00 23aa3b81  ............#.;.
 0fd8 13060000 63020610 630c2609 13880700  ....c...c.&.....
 0fe8 13050000 930635fe 13b71600 b335d000  ......5......5..
 0ff8 83260800 93952500 93f8e6ff 33671701  .&....%.....3g..
 1008 137797ff 13672700 3367b700 63060504  .w...g'.3g..c...
 1018 2320e800 63188505 93878707 13061600  # ..c...........
 1028 e39af4fa 93072000 2320f400 eff08fc8  ...... .# ......
 1038 93073000 2320f400 eff08f91 93074000  ..0.# ........@.
 1048 2320f400 37070011 83270700 93f71700  # ..7....'......
 1058 e38c07fe 6ff01ff6 93f686ff 93e61600  ....o...........
 1068 2320d800 13051500 13084800 6ff09ff7  # ........H.o...
 1078 13850700 83260500 93050000 138735fe  .....&........5.
 1088 3337e000 93f686ff 13172700 93e61600  37........'.....
 1098 3367d700 638a0502 2320e500 e38e85f7  3g..c...# ......
 10a8 93851500 13054500 83260500 138735fe  ......E..&....5.
 10b8 3337e000 93f686ff 13172700 93e61600  37........'.....
 10c8 3367d700 e39a05fc 2320d500 93851500  3g......# ......
 10d8 13054500 6ff05ffd 13870700 93878707  ..E.o._.........
 10e8 83260700 13074700 93f686ff 93e61600  .&....G.........
 10f8 232ed7fe e304f7f2 6ff09ffe           #.......o...    
Contents of section .data:
 1108 00000000 00000000 00000000 00000000  ................
 1118 00000000 00000000 00000000 00000000  ................
 1128 00000000 00000000 00000000 00000000  ................
 1138 00000000 00000000 00000000 00000000  ................
 1148 00000000 00000000 00000000 00000000  ................
 1158 00000000 00000000 00000000 00000000  ................
 1168 00000000 00000000 00000000 00000000  ................
 1178 00000000 00000000 00000000 00000000  ................
 1188 00000000 00000000 00000000 00000000  ................
 1198 00000000 00000000 00000000 00000000  ................
 11a8 00000000 00000000 00000000 00000000  ................
 11b8 00000000 00000000 00000000 00000000  ................
 11c8 00000000 00000000 00000000 00000000  ................
 11d8 00000000 00000000 00000000 00000000  ................
 11e8 00000000 00000000 00000000 00000000  ................
 11f8 00000000 00000000 00000000 00000000  ................
 1208 00000000 00000000 00000000 00000000  ................
 1218 00000000 00000000 00000000 00000000  ................
 1228 00000000 00000000 00000000 00000000  ................
 1238 00000000 00000000 00000000 00000000  ................
 1248 00000000 00000000 00000000 00000000  ................
 1258 00000000 00000000 00000000 00000000  ................
 1268 00000000 00000000 00000000 00000000  ................
 1278 00000000 00000000 00000000 00000000  ................
 1288 00000000 00000000 00000000 00000000  ................
 1298 00000000 00000000 00000000 00000000  ................
 12a8 00000000 00000000 00000000 00000000  ................
 12b8 00000000 00000000 00000000 00000000  ................
 12c8 00000000 00000000 00000000 00000000  ................
 12d8 00000000 00000000 00000000 00000000  ................
 12e8 00000000 00000000 00000000 00000000  ................
 12f8 00000000 00000000 00000000 00000000  ................
 1308 00000000 00000000 00000000 00000000  ................
 1318 00000000 00000000 00000000 00000000  ................
 1328 00000000 00000000 00000000 00000000  ................
 1338 00000000 00000000 00000000 00000000  ................
 1348 00000000 00000000 00000000 00000000  ................
 1358 00000000 00000000 00000000 00000000  ................
 1368 00000000 00000000 00000000 00000000  ................
 1378 00000000 00000000 00000000 00000000  ................
 1388 00000000 00000000 00000000 00000000  ................
 1398 00000000 00000000 00000000 00000000  ................
 13a8 00000000 00000000 00000000 00000000  ................
 13b8 00000000 00000000 00000000 00000000  ................
 13c8 00000000 00000000 00000000 00000000  ................
 13d8 00000000 00000000 00000000 00000000  ................
 13e8 00000000 00000000 00000000 00000000  ................
 13f8 00000000 00000000 00000000 00000000  ................
 1408 00000000 00000000 00000000 00000000  ................
 1418 00000000 00000000 00000000 00000000  ................
 1428 00000000 00000000 00000000 00000000  ................
 1438 00000000 00000000 00000000 00000000  ................
 1448 00000000 00000000 00000000 00000000  ................
 1458 00000000 00000000 00000000 00000000  ................
 1468 00000000 00000000 00000000 00000000  ................
 1478 00000000 00000000 00000000 00000000  ................
 1488 00000000 00000000 00000000 00000000  ................
 1498 00000000 00000000 00000000 00000000  ................
 14a8 00000000 00000000 00000000 00000000  ................
 14b8 00000000 00000000 00000000 00000000  ................
 14c8 00000000 00000000 00000000 00000000  ................
 14d8 00000000 00000000 00000000 00000000  ................
 14e8 00000000 00000000 00000000 00000000  ................
 14f8 00000000 00000000 00000000 00000000  ................
 1508 00000000 00000000 00000000 00000000  ................
 1518 00000000 00000000 00000000 00000000  ................
 1528 00000000 00000000 00000000 00000000  ................
 1538 00000000 00000000 00000000 00000000  ................
 1548 00000000 00000000 00000000 00000000  ................
 1558 00000000 00000000 00000000 00000000  ................
 1568 00000000 00000000 00000000 00000000  ................
 1578 00000000 00000000 00000000 00000000  ................
 1588 00000000 00000000 00000000 00000000  ................
 1598 00000000 00000000 00000000 00000000  ................
 15a8 00000000 00000000 00000000 00000000  ................
 15b8 00000000 00000000 00000000 00000000  ................
 15c8 00000000 00000000 00000000 00000000  ................
 15d8 00000000 00000000 00000000 00000000  ................
 15e8 00000000 00000000 00000000 00000000  ................
 15f8 00000000 00000000 00000000 00000000  ................
 1608 00000000 00000000 00000000 00000000  ................
 1618 00000000 00000000 00000000 00000000  ................
 1628 00000000 00000000 00000000 00000000  ................
 1638 00000000 00000000 00000000 00000000  ................
 1648 00000000 00000000 00000000 00000000  ................
 1658 00000000 00000000 00000000 00000000  ................
 1668 00000000 00000000 00000000 00000000  ................
 1678 00000000 00000000 00000000 00000000  ................
 1688 00000000 00000000 00000000 00000000  ................
 1698 00000000 00000000 00000000 00000000  ................
 16a8 00000000 00000000 00000000 00000000  ................
 16b8 00000000 00000000 00000000 00000000  ................
 16c8 00000000 00000000 00000000 00000000  ................
 16d8 00000000 00000000 00000000 00000000  ................
 16e8 00000000 00000000 00000000 00000000  ................
 16f8 00000000 00000000 00000000 00000000  ................
 1708 00000000 00000000 00000000 00000000  ................
 1718 00000000 00000000 00000000 00000000  ................
 1728 00000000 00000000 00000000 00000000  ................
 1738 00000000 00000000 00000000 00000000  ................
 1748 00000000 00000000 00000000 00000000  ................
 1758 00000000 00000000 00000000 00000000  ................
 1768 00000000 00000000 00000000 00000000  ................
 1778 00000000 00000000 00000000 00000000  ................
 1788 00000000 00000000 00000000 00000000  ................
 1798 00000000 00000000 00000000 00000000  ................
 17a8 00000000 00000000 00000000 00000000  ................
 17b8 00000000 00000000 00000000 00000000  ................
 17c8 00000000 00000000 00000000 00000000  ................
 17d8 00000000 00000000 00000000 00000000  ................
 17e8 00000000 00000000 00000000 00000000  ................
 17f8 00000000 00000000 00000000 00000000  ................
 1808 00000000 00000000 00000000 00000000  ................
 1818 00000000 00000000 00000000 00000000  ................
 1828 00000000 00000000 00000000 00000000  ................
 1838 00000000 00000000 00000000 00000000  ................
 1848 00000000 00000000 00000000 00000000  ................
 1858 00000000 00000000 00000000 00000000  ................
 1868 00000000 00000000 00000000 00000000  ................
 1878 00000000 00000000 00000000 00000000  ................
 1888 00000000 00000000 00000000 00000000  ................
 1898 00000000 00000000 00000000 00000000  ................
 18a8 00000000 00000000 00000000 00000000  ................
 18b8 00000000 00000000 00000000 00000000  ................
 18c8 00000000 00000000 00000000 00000000  ................
 18d8 00000000 00000000 00000000 00000000  ................
 18e8 00000000 00000000 00000000 00000000  ................
 18f8 00000000 00000000 00000000 00000000  ................
 1908 00000000 00000000 00000000 00000000  ................
 1918 00000000 00000000 00000000 00000000  ................
 1928 00000000 00000000 00000000 00000000  ................
 1938 00000000 00000000 00000000 00000000  ................
 1948 00000000 00000000 00000000 00000000  ................
 1958 00000000 00000000 00000000 00000000  ................
 1968 00000000 00000000 00000000 00000000  ................
 1978 00000000 00000000 00000000 00000000  ................
 1988 00000000 00000000 00000000 00000000  ................
 1998 00000000 00000000 00000000 00000000  ................
 19a8 00000000 00000000 00000000 00000000  ................
 19b8 00000000 00000000 00000000 00000000  ................
 19c8 00000000 00000000 00000000 00000000  ................
 19d8 00000000 00000000 00000000 00000000  ................
 19e8 00000000 00000000 00000000 00000000  ................
 19f8 00000000 00000000 00000000 00000000  ................
 1a08 00000000 00000000 00000000 00000000  ................
 1a18 00000000 00000000 00000000 00000000  ................
 1a28 00000000 00000000 00000000 00000000  ................
 1a38 00000000 00000000 00000000 00000000  ................
 1a48 00000000 00000000 00000000 00000000  ................
 1a58 00000000 00000000 00000000 00000000  ................
 1a68 00000000 00000000 00000000 00000000  ................
 1a78 00000000 00000000 00000000 00000000  ................
 1a88 00000000 00000000 00000000 00000000  ................
 1a98 00000000 00000000 00000000 00000000  ................
 1aa8 00000000 00000000 00000000 00000000  ................
 1ab8 00000000 00000000 00000000 00000000  ................
 1ac8 00000000 00000000 00000000 00000000  ................
 1ad8 00000000 00000000 00000000 00000000  ................
 1ae8 00000000 00000000 00000000 00000000  ................
 1af8 00000000 00000000 00000000 00000000  ................
 1b08 00000000 00000000 00000000 00000000  ................
 1b18 00000000 00000000 00000000 00000000  ................
 1b28 00000000 00000000 00000000 00000000  ................
 1b38 00000000 00000000 00000000 00000000  ................
 1b48 00000000 00000000 00000000 00000000  ................
 1b58 00000000 00000000 00000000 00000000  ................
 1b68 00000000 00000000 00000000 00000000  ................
 1b78 00000000 00000000 00000000 00000000  ................
 1b88 00000000 00000000 00000000 00000000  ................
 1b98 00000000 00000000 00000000 00000000  ................
 1ba8 00000000 00000000 00000000 00000000  ................
 1bb8 00000000 00000000 00000000 00000000  ................
 1bc8 00000000 00000000 00000000 00000000  ................
 1bd8 00000000 00000000 00000000 00000000  ................
 1be8 00000000 00000000 00000000 00000000  ................
 1bf8 00000000 00000000 00000000 00000000  ................
 1c08 00000000 00000000 00000000 00000000  ................
 1c18 00000000 00000000 00000000 00000000  ................
 1c28 00000000 00000000 00000000 00000000  ................
 1c38 00000000 00000000 00000000 00000000  ................
 1c48 00000000 00000000 00000000 00000000  ................
 1c58 00000000 00000000 00000000 00000000  ................
 1c68 00000000 00000000 00000000 00000000  ................
 1c78 00000000 00000000 00000000 00000000  ................
 1c88 00000000 00000000 00000000 00000000  ................
 1c98 00000000 00000000 00000000 00000000  ................
 1ca8 00000000 00000000 00000000 00000000  ................
 1cb8 00000000 00000000 00000000 00000000  ................
 1cc8 00000000 00000000 00000000 00000000  ................
 1cd8 00000000 00000000 00000000 00000000  ................
 1ce8 00000000 00000000 00000000 00000000  ................
 1cf8 00000000 00000000 00000000 00000000  ................
 1d08 00000000 00000000 00000000 00000000  ................
 1d18 00000000 00000000 00000000 00000000  ................
 1d28 00000000 00000000 00000000 00000000  ................
 1d38 00000000 00000000 00000000 00000000  ................
 1d48 00000000 00000000 00000000 00000000  ................
 1d58 00000000 00000000 00000000 00000000  ................
 1d68 00000000 00000000 00000000 00000000  ................
 1d78 00000000 00000000 00000000 00000000  ................
 1d88 00000000 00000000 00000000 00000000  ................
 1d98 00000000 00000000 00000000 00000000  ................
 1da8 00000000 00000000 00000000 00000000  ................
 1db8 00000000 00000000 00000000 00000000  ................
 1dc8 00000000 00000000 00000000 00000000  ................
 1dd8 00000000 00000000 00000000 00000000  ................
 1de8 00000000 00000000 00000000 00000000  ................
 1df8 00000000 00000000 00000000 00000000  ................
 1e08 00000000 00000000 00000000 00000000  ................
 1e18 00000000 00000000 00000000 00000000  ................
 1e28 00000000 00000000 00000000 00000000  ................
 1e38 00000000 00000000 00000000 00000000  ................
 1e48 00000000 00000000 00000000 00000000  ................
 1e58 00000000 00000000 00000000 00000000  ................
 1e68 00000000 00000000 00000000 00000000  ................
 1e78 00000000 00000000 00000000 00000000  ................
 1e88 00000000 00000000 00000000 00000000  ................
 1e98 00000000 00000000 00000000 00000000  ................
 1ea8 00000000 00000000 00000000 00000000  ................
 1eb8 00000000 00000000 00000000 00000000  ................
 1ec8 00000000 00000000 00000000 00000000  ................
 1ed8 00000000 00000000 00000000 00000000  ................
 1ee8 00000000 00000000 00000000 00000000  ................
 1ef8 00000000 00000000 00000000 00000000  ................
 1f08 00000000 00000000 00000000 00000000  ................
 1f18 00000000 00000000 00000000 00000000  ................
 1f28 00000000 00000000 00000000 00000000  ................
 1f38 00000000 00000000 00000000 00000000  ................
 1f48 00000000 00000000 00000000 00000000  ................
 1f58 00000000 00000000 00000000 00000000  ................
 1f68 00000000 00000000 00000000 00000000  ................
 1f78 00000000 00000000 00000000 00000000  ................
 1f88 00000000 00000000 00000000 00000000  ................
 1f98 00000000 00000000 00000000 00000000  ................
 1fa8 00000000 00000000 00000000 00000000  ................
 1fb8 00000000 00000000 00000000 00000000  ................
 1fc8 00000000 00000000 00000000 00000000  ................
 1fd8 00000000 00000000 00000000 00000000  ................
 1fe8 00000000 00000000 00000000 00000000  ................
 1ff8 00000000 00000000 00000000 00000000  ................
 2008 00000000 00000000 00000000 00000000  ................
 2018 00000000 00000000 00000000 00000000  ................
 2028 00000000 00000000 00000000 00000000  ................
 2038 00000000 00000000 00000000 00000000  ................
 2048 00000000 00000000 00000000 00000000  ................
 2058 00000000 00000000 00000000 00000000  ................
 2068 00000000 00000000 00000000 00000000  ................
 2078 00000000 00000000 00000000 00000000  ................
 2088 00000000 00000000 00000000 00000000  ................
 2098 00000000 00000000 00000000 00000000  ................
 20a8 00000000 00000000 00000000 00000000  ................
 20b8 00000000 00000000 00000000 00000000  ................
 20c8 00000000 00000000 00000000 00000000  ................
 20d8 00000000 00000000 00000000 00000000  ................
 20e8 00000000 00000000 00000000 00000000  ................
 20f8 00000000 00000000 00000000 00000000  ................
 2108 00000000 00000000 00000000 00000000  ................
 2118 00000000 00000000 00000000 00000000  ................
 2128 00000000 00000000 00000000 00000000  ................
 2138 00000000 00000000 00000000 00000000  ................
 2148 00000000 00000000 00000000 00000000  ................
 2158 00000000 00000000 00000000 00000000  ................
 2168 00000000 00000000 00000000 00000000  ................
 2178 00000000 00000000 00000000 00000000  ................
 2188 00000000 00000000 00000000 00000000  ................
 2198 00000000 00000000 00000000 00000000  ................
 21a8 00000000 00000000 00000000 00000000  ................
 21b8 00000000 00000000 00000000 00000000  ................
 21c8 00000000 00000000 00000000 00000000  ................
 21d8 00000000 00000000 00000000 00000000  ................
 21e8 00000000 00000000 00000000 00000000  ................
 21f8 00000000 00000000 00000000 00000000  ................
 2208 00000000 00000000 00000000 00000000  ................
 2218 00000000 00000000 00000000 00000000  ................
 2228 00000000 00000000 00000000 00000000  ................
 2238 00000000 00000000 00000000 00000000  ................
 2248 00000000 00000000 00000000 00000000  ................
 2258 00000000 00000000 00000000 00000000  ................
 2268 00000000 00000000 00000000 00000000  ................
 2278 00000000 00000000 00000000 00000000  ................
 2288 00000000 00000000 00000000 00000000  ................
 2298 00000000 00000000 00000000 00000000  ................
 22a8 00000000 00000000 00000000 00000000  ................
 22b8 00000000 00000000 00000000 00000000  ................
 22c8 00000000 00000000 00000000 00000000  ................
 22d8 00000000 00000000 00000000 00000000  ................
 22e8 00000000 00000000 00000000 00000000  ................
 22f8 00000000 00000000 00000000 00000000  ................
 2308 00000000 00000000 00000000 00000000  ................
 2318 00000000 00000000 00000000 00000000  ................
 2328 00000000 00000000 00000000 00000000  ................
 2338 00000000 00000000 00000000 00000000  ................
 2348 00000000 00000000 00000000 00000000  ................
 2358 00000000 00000000 00000000 00000000  ................
 2368 00000000 00000000 00000000 00000000  ................
 2378 00000000 00000000 00000000 00000000  ................
 2388 00000000 00000000 00000000 00000000  ................
 2398 00000000 00000000 00000000 00000000  ................
 23a8 00000000 00000000 00000000 00000000  ................
 23b8 00000000 00000000 00000000 00000000  ................
 23c8 00000000 00000000 00000000 00000000  ................
 23d8 00000000 00000000 00000000 00000000  ................
 23e8 00000000 d4260000 3c270000 a4270000  .....&..<'...'..
 23f8 00000000 00000000 00000000 00000000  ................
 2408 00000000 00000000 00000000 00000000  ................
 2418 00000000 00000000 00000000 00000000  ................
 2428 00000000 00000000 00000000 00000000  ................
 2438 00000000 00000000 00000000 00000000  ................
 2448 00000000 00000000 00000000 00000000  ................
 2458 00000000 00000000 00000000 00000000  ................
 2468 00000000 00000000 00000000 00000000  ................
 2478 00000000 00000000 00000000 00000000  ................
 2488 00000000 00000000 01000000 00000000  ................
 2498 0e33cdab 34126de6 ecde0500 0b000000  .3..4.m.........
 24a8 00000000 00000000 00000000 00000000  ................
 24b8 00000000 00000000 00000000 00000000  ................
 24c8 00000000 00000000 00000000 00000000  ................
 24d8 00000000 00000000 00000000 00000000  ................
 24e8 00000000 00000000 00000000 00000000  ................
 24f8 00000000 00000000 00000000 00000000  ................
 2508 00000000 00000000 00000000 00000000  ................
 2518 00000000 00000000 00000000 00000000  ................
 2528 00000000 00000000 00000000 00000000  ................
 2538 00000000 00000000 00000000 00000000  ................
 2548 00000000 00000000 00000000 00000000  ................
 2558 00000000 00000000 00000000 00000000  ................
 2568 00000000 00000000 00000000 00000000  ................
 2578 00000000 00000000 00000000 00000000  ................
 2588 00000000 00000000 00000000 00000000  ................
 2598 00000000 00000000 00000000 00000000  ................
 25a8 00000000 00000000 00000000 00000000  ................
 25b8 00000000 00000000 00000000 00000000  ................
 25c8 00000000 00000000 00000000 00000000  ................
 25d8 00000000 00000000 00000000 00000000  ................
 25e8 00000000 00000000 00000000 00000000  ................
 25f8 00000000 00000000 00000000 00000000  ................
 2608 00000000 00000000 00000000 00000000  ................
 2618 00000000 00000000 00000000 00000000  ................
 2628 00000000 00000000 00000000 00000000  ................
 2638 00000000 00000000 00000000 00000000  ................
 2648 00000000 00000000 00000000 00000000  ................
 2658 00000000 00000000 00000000 00000000  ................
 2668 00000000 00000000 00000000 00000000  ................
 2678 00000000 00000000 00000000 00000000  ................
 2688 00000000 00000000 00000000 00000000  ................
 2698 00000000 00000000 00000000 00000000  ................
 26a8 00000000 00000000 00000000 00000000  ................
 26b8 00000000 00000000 00000000 00000000  ................
 26c8 00000000 00000000 00000000 00000000  ................
 26d8 00000000 00000000 00000000 00000000  ................
 26e8 00000000 00000000 00000000 00000000  ................
 26f8 00000000 00000000 00000000 00000000  ................
 2708 00000000 00000000 00000000 00000000  ................
 2718 00000000 00000000 00000000 00000000  ................
 2728 00000000 00000000 00000000 00000000  ................
 2738 00000000 00000000 00000000 00000000  ................
 2748 00000000 00000000 00000000 00000000  ................
 2758 00000000 00000000 00000000 00000000  ................
 2768 00000000 00000000 00000000 00000000  ................
 2778 00000000 00000000 00000000 00000000  ................
 2788 00000000 00000000 00000000 00000000  ................
 2798 00000000 00000000 00000000 00000000  ................
 27a8 00000000 00000000 00000000 00000000  ................
 27b8 00000000 00000000 00000000 00000000  ................
 27c8 00000000 00000000 00000000 00000000  ................
 27d8 00000000 00000000 00000000 00000000  ................
 27e8 00000000 00000000 00000000 00000000  ................
 27f8 00000000 00000000 00000000 00000000  ................
 2808 00000000 00000000 00000000 01000000  ................
 2818 e8230000 00000011 00000811 00001411  .#..............
 2828 00001011 e8230000 2d7f954c 2df45158  .....#..-..L-.QX
Contents of section .eh_frame:
 2838 00000000                             ....            
Contents of section .fini_array:
 283c c8000000                             ....            
Contents of section .init_array:
 2840 20010000                              ...            
Contents of section .comment:
 0000 4743433a 2028474e 55292038 2e322e30  GCC: (GNU) 8.2.0
 0010 00                                   .               
Contents of section .debug_line:
 0000 41000000 02002100 00000101 fb0e0d00  A.....!.........
 0010 01010101 00000001 00000173 72630000  ...........src..
 0020 696e6974 2e730001 00000000 05020000  init.s..........
 0030 00001803 04090800 01030309 04000109  ................
 0040 04000001 01381000 0002000a 01000001  .....8..........
 0050 01fb0e0d 00010101 01000000 01000001  ................
 0060 73726300 2f686f6d 652f7374 7564656e  src./home/studen
 0070 742f6c6f 63616c2f 72697363 7633322d  t/local/riscv32-
 0080 756e6b6e 6f776e2d 656c662f 696e636c  unknown-elf/incl
 0090 7564652f 73797300 2f686f6d 652f7374  ude/sys./home/st
 00a0 7564656e 742f6c6f 63616c2f 6c69622f  udent/local/lib/
 00b0 6763632f 72697363 7633322d 756e6b6e  gcc/riscv32-unkn
 00c0 6f776e2d 656c662f 382e322e 302f696e  own-elf/8.2.0/in
 00d0 636c7564 65002f68 6f6d652f 73747564  clude./home/stud
 00e0 656e742f 6c6f6361 6c2f7269 73637633  ent/local/riscv3
 00f0 322d756e 6b6e6f77 6e2d656c 662f696e  2-unknown-elf/in
 0100 636c7564 6500006d 617a652e 63000100  clude..maze.c...
 0110 006c6f63 6b2e6800 0200005f 74797065  .lock.h...._type
 0120 732e6800 02000073 74646465 662e6800  s.h....stddef.h.
 0130 03000072 65656e74 2e680002 00007374  ...reent.h....st
 0140 646c6962 2e680004 00003c62 75696c74  dlib.h....<built
 0150 2d696e3e 00000000 00050100 05025801  -in>..........X.
 0160 00000333 01050203 01090000 01030109  ...3............
 0170 00000103 02090000 01050603 00090000  ................
 0180 01050906 030a0900 0001050a 03760904  .............v..
 0190 00010509 030a0904 0001050b 03ca0109  ................
 01a0 04000105 0c030109 04000105 0303ac7e  ...............~
 01b0 09080001 0502037f 09040001 0509030c  ................
 01c0 09040001 05140376 09040001 0509030a  .......v........
 01d0 09040001 050f03c8 01090400 01050b03  ................
 01e0 ad7e0904 00010504 06030109 04000105  .~..............
 01f0 08060300 09000001 05060300 09040001  ................
 0200 05160002 04010305 09040001 05050603  ................
 0210 03090400 01050906 03000900 00010522  ..............."
 0220 03000920 0001050b 03ca0109 08000105  ... ............
 0230 2203b67e 09040001 05070300 09040001  "..~............
 0240 05310603 02090400 01050203 c8010900  .1..............
 0250 00010301 09000001 050c0603 00090000  ................
 0260 01052300 02040203 ac7e0904 00010503  ..#......~......
 0270 00020402 03000904 00010523 00020402  ...........#....
 0280 037f0904 00010502 00020402 03000904  ................
 0290 00010501 03110904 0001050a 00020401  ................
 02a0 03740904 00010510 00020401 037d0928  .t...........}.(
 02b0 00010505 06030a09 04000105 20060300  ............ ...
 02c0 09000001 050b03c8 01090400 01050703  ................
 02d0 b87e0904 00010525 06030009 04000105  .~.....%........
 02e0 0203c801 09000001 03010900 0001050c  ................
 02f0 06030009 00000105 050603b3 7e090800  ............~...
 0300 01050203 cc010900 00010514 06030009  ................
 0310 00000105 0b030009 04000105 02060301  ................
 0320 09040001 050c0603 00090000 01050606  ................
 0330 03b07e09 08000105 0a060300 09000001  ..~.............
 0340 050b03cf 01090400 01050803 b17e0904  .............~..
 0350 00010525 06030709 04000105 0203c801  ...%............
 0360 09000001 03010900 0001050c 06030009  ................
 0370 00000105 010603bf 7e090800 01050203  ........~.......
 0380 01090000 01030109 00000103 02090000  ................
 0390 01050603 00090000 01050106 037c0900  .............|..
 03a0 00010509 030e0904 00010501 03720904  .............r..
 03b0 0001050a 03040908 00010509 030a0904  ................
 03c0 0001050b 03b20109 04000105 0c030109  ................
 03d0 04000105 0303c47e 090c0001 0502037f  .......~........
 03e0 09040001 0509030c 09040001 05140376  ...............v
 03f0 09040001 0509030a 09040001 050f03b0  ................
 0400 01090400 01050b03 c57e0904 00010504  .........~......
 0410 06030109 04000105 08060300 09000001  ................
 0420 05060300 09040001 05160002 04010305  ................
 0430 09040001 05050603 03090400 01050906  ................
 0440 03000900 00010522 03000920 0001050b  ......."... ....
 0450 03b20109 08000105 2203ce7e 09040001  ........"..~....
 0460 05070300 09040001 05310603 02090400  .........1......
 0470 01050203 b0010900 00010301 09000001  ................
 0480 050c0603 00090000 01052300 02040203  ..........#.....
 0490 c47e0904 00010503 00020402 03000904  .~..............
 04a0 00010523 00020402 037f0904 00010502  ...#............
 04b0 00020402 03000904 00010501 03110904  ................
 04c0 00010509 00020401 03720910 0001050b  .........r......
 04d0 00020401 03000904 00010510 00020401  ................
 04e0 037f0904 00010505 06030a09 04000105  ................
 04f0 09060300 09000001 05200300 09180001  ......... ......
 0500 050b03b0 01090800 01052003 d07e0904  .......... ..~..
 0510 00010507 03000904 00010525 06030009  ...........%....
 0520 04000105 0203b001 09000001 03010900  ................
 0530 0001050c 06030009 00000105 050603cb  ................
 0540 7e090800 01050203 b4010900 00010514  ~...............
 0550 06030009 00000105 0b030009 04000105  ................
 0560 02060301 09040001 050c0603 00090000  ................
 0570 01050506 03c67e09 08000105 07060300  ......~.........
 0580 09040001 05060603 02090400 01050a06  ................
 0590 03000900 0001050b 03b70109 1c000105  ................
 05a0 0a03c97e 09040001 05080300 09040001  ...~............
 05b0 05250603 07090400 01050203 b0010900  .%..............
 05c0 00010301 09000001 050c0603 00090000  ................
 05d0 01051600 02040103 c67e0908 00010528  .........~.....(
 05e0 06030009 04000105 0203b901 09000001  ................
 05f0 050b0603 00090000 01050206 03010904  ................
 0600 0001050c 06030009 00000105 010603d9  ................
 0610 7e090800 01050203 01090000 01050603  ~...............
 0620 00090000 01050203 01090000 01050106  ................
 0630 03010900 00010512 06031609 04000105  ................
 0640 02030209 00000105 06030009 00000105  ................
 0650 1206037e 09080001 05020603 05092000  ...~.......... .
 0660 01050706 03000900 00010502 06030209  ................
 0670 0c000105 06030009 00000105 0a060300  ................
 0680 09040001 05030301 09080001 050a037f  ................
 0690 09140001 05040306 09080001 0503037b  ...............{
 06a0 09040001 05040603 02090c00 01030209  ................
 06b0 00000103 00090000 01030109 00000103  ................
 06c0 00090000 0106037d 09000001 06030009  .......}........
 06d0 10000106 03030904 0001037d 09140001  ...........}....
 06e0 06030209 04000103 00090000 01030109  ................
 06f0 00000103 00090000 01037d09 10000103  ..........}.....
 0700 00090000 01030209 00000103 00090000  ................
 0710 01030109 00000103 00090000 01050306  ................
 0720 037b0914 00010517 037f0904 0001050a  .{..............
 0730 03000910 00010503 03010904 00010504  ................
 0740 03050908 00010503 037b0904 00010504  .........{......
 0750 06030209 0c000103 00090000 01030209  ................
 0760 00000103 00090000 01030109 00000103  ................
 0770 00091800 01051700 02040206 037a0910  .............z..
 0780 00010501 030d090c 00010510 06030209  ................
 0790 10000105 02030109 00000103 01090000  ................
 07a0 01030009 00000105 1006037e 09000001  ...........~....
 07b0 05020302 09040001 0510037e 09040001  ...........~....
 07c0 05020302 09040001 050603d7 00090800  ................
 07d0 01051003 a77f0904 00010502 03020904  ................
 07e0 00010506 03ce0009 08000105 1003b07f  ................
 07f0 09040001 050e0301 092c0001 05060300  .........,......
 0800 09040001 03cf0009 14000105 020603b3  ................
 0810 7f090400 01030109 00000103 01090000  ................
 0820 01050303 03090000 01050706 03000900  ................
 0830 00010505 03000920 0001051f 00020401  ....... ........
 0840 03000904 0001051d 00020401 03000918  ................
 0850 00010507 00020402 03010904 00010535  ...............5
 0860 00020402 037f0924 0001051f 03010904  .......$........
 0870 0001051d 03000924 00010507 03250904  .......$.....%..
 0880 00010543 037f0920 00010524 03010904  ...C... ...$....
 0890 00010521 03000924 00010529 00020401  ...!...$...)....
 08a0 037f0908 00010526 00020401 03000908  .......&........
 08b0 00010507 00020402 03010904 00010543  ...............C
 08c0 00020402 037f0908 00010524 03010904  ...........$....
 08d0 00010521 03000908 00010505 06030209  ...!............
 08e0 04000105 0f060300 09000001 05090300  ................
 08f0 091c0001 05050603 01090400 01050a06  ................
 0900 03000900 0001050b 037c0904 00010509  .........|......
 0910 03040904 00010505 06030109 04000105  ................
 0920 2406037c 09000001 050b037f 09040001  $..|............
 0930 05240301 09040001 050b037f 09040001  .$..............
 0940 05240301 09080001 050b037f 09040001  .$..............
 0950 05070301 09040001 050b037f 09040001  ................
 0960 05070301 09040001 050b037f 09040001  ................
 0970 05070301 09040001 050b037f 09040001  ................
 0980 05290300 09040001 05070301 09040001  .)..............
 0990 05240300 09040001 0529037f 09040001  .$.......)......
 09a0 05070301 09040001 05240300 09040001  .........$......
 09b0 0529037f 09040001 05070301 09040001  .)..............
 09c0 05240300 09040001 050b037f 09040001  .$..............
 09d0 05290300 09040001 05070301 09040001  .)..............
 09e0 05240300 09040001 0508037f 09040001  .$..............
 09f0 05090329 09040001 0309090c 00010377  ...)...........w
 0a00 09040001 03090908 00010377 09040001  ...........w....
 0a10 03090904 00010377 09040001 03090904  .......w........
 0a20 00010503 06035f09 04000105 04030209  ......_.........
 0a30 00000103 01090000 01050d06 03000900  ................
 0a40 0001050c 03000904 00010504 06030109  ................
 0a50 14000105 05031d09 10000105 09060300  ................
 0a60 09000001 05070300 09140001 05060603  ................
 0a70 01090400 01030109 00000103 00090000  ................
 0a80 01030109 00000103 00090000 01030109  ................
 0a90 00000103 00090000 0106037f 09000001  ................
 0aa0 03010914 00010509 037c090c 00010506  .........|......
 0ab0 03040904 00010603 01090400 01050303  ................
 0ac0 05090400 01030009 00000105 08060301  ................
 0ad0 09100001 0503037f 09040001 05080301  ................
 0ae0 09080001 0503037f 09040001 06030109  ................
 0af0 04000105 08060301 09000001 037f0908  ................
 0b00 00010503 06030109 08000105 05060300  ................
 0b10 09000001 05020304 09080001 05010304  ................
 0b20 09080001 05050603 51094000 01050906  ........Q.@.....
 0b30 03000900 00010507 0300091c 00010506  ................
 0b40 06030109 04000103 01090000 01060301  ................
 0b50 09100001 037f0908 00010603 00090800  ................
 0b60 01030109 00000103 00090000 01030109  ................
 0b70 00000103 00090000 0106037f 09000001  ................
 0b80 03010908 0001037f 09040001 03010908  ................
 0b90 0001050a 03010908 00010506 037f0904  ................
 0ba0 00010603 01090400 01050503 04090400  ................
 0bb0 01050906 03000900 00010507 03000920  ............... 
 0bc0 00010506 06030109 04000103 01090000  ................
 0bd0 01030009 00000103 01090000 01030009  ................
 0be0 00000103 01090000 01030009 00000106  ................
 0bf0 037f0900 00010301 09080001 037f0904  ................
 0c00 00010301 09080001 06030109 0c000105  ................
 0c10 0906037b 09000001 05050603 09090800  ...{............
 0c20 01050906 03000900 00010507 03000908  ................
 0c30 00010506 06030109 04000103 01090000  ................
 0c40 01060301 09180001 03010904 0001037e  ...............~
 0c50 09040001 06030009 08000103 01090000  ................
 0c60 01030009 00000103 01090000 01030009  ................
 0c70 00000106 037f0900 00010301 09140001  ................
 0c80 0509037c 09080001 05060304 09080001  ...|............
 0c90 06030109 04000105 05031109 04000105  ................
 0ca0 04030109 0c000105 0203e57e 09000001  ...........~....
 0cb0 05060300 09000001 05020301 09000001  ................
 0cc0 06039c01 09000001 050903ae 7f091400  ................
 0cd0 01030609 0c000103 74090800 01050406  ........t.......
 0ce0 03740904 00010505 03010900 00010301  .t..............
 0cf0 09000001 050e0603 00090000 01050d03  ................
 0d00 00090400 01050506 03020914 00010506  ................
 0d10 03140910 00010509 06030009 00000105  ................
 0d20 08030009 14000105 21000204 01030009  ........!.......
 0d30 04000105 07060301 09080001 03010900  ................
 0d40 00010300 091c0001 0506036c 09080001  ...........l....
 0d50 05090603 00090000 01050803 00090800  ................
 0d60 01051d00 02040103 00090400 01050706  ................
 0d70 03010904 00010301 09000001 03000908  ................
 0d80 00010506 03040904 00010509 06030009  ................
 0d90 00000105 08030009 0c000105 1f000204  ................
 0da0 01030009 04000105 07060301 09080001  ................
 0db0 03010900 00010300 09080001 05060304  ................
 0dc0 09040001 05090603 00090000 01050803  ................
 0dd0 00090800 01051f00 02040103 00090400  ................
 0de0 01050706 03010904 00010301 09000001  ................
 0df0 03000908 0001050b 06030e09 00000105  ................
 0e00 08030009 1c000105 26030009 04000109  ........&.......
 0e10 1c000001 01050b00 0502580f 000003ea  ..........X.....
 0e20 00010502 03030900 00010508 06030009  ................
 0e30 00000105 0b037d09 08000105 02030309  ......}.........
 0e40 3c000105 09030309 0c000105 03031609  <...............
 0e50 10000105 02060368 09040001 05030302  .......h........
 0e60 09000001 05090603 00090400 01050306  ................
 0e70 03010904 00010502 0312090c 00010507  ................
 0e80 06030009 04000105 02060302 09040001  ................
 0e90 05060300 09000001 050a0603 00090000  ................
 0ea0 01050406 03030914 00010302 09000001  ................
 0eb0 03000900 00010301 09000001 03000900  ................
 0ec0 00010603 7d090000 01030309 08000103  ....}...........
 0ed0 7d090400 01030309 04000103 7d090400  }...........}...
 0ee0 01060300 09040001 06030309 04000103  ................
 0ef0 7d090c00 01030309 04000105 03037b09  }.............{.
 0f00 04000105 17037f09 08000105 02030009  ................
 0f10 04000106 030c0904 00010503 03620900  .............b..
 0f20 00010508 06030009 00000105 03060301  ................
 0f30 09080001 03010904 00010508 06030009  ................
 0f40 00000105 03060301 09080001 03010904  ................
 0f50 00010508 06030009 00000105 03060301  ................
 0f60 09080001 0502036e 09000001 05060300  .......n........
 0f70 09000001 05020301 09000001 050a0603  ................
 0f80 12090000 01051a00 02040106 03000904  ................
 0f90 0001050a 00020401 06030009 00000105  ................
 0fa0 13000204 01030009 04000105 08000204  ................
 0fb0 01030009 04000105 04060311 09080001  ................
 0fc0 03000900 00010301 09000001 03000900  ................
 0fd0 0001050a 06037a09 18000105 04030609  ......z.........
 0fe0 04000105 0a037a09 04000105 04060303  ......z.........
 0ff0 09040001 03000900 00010302 09000001  ................
 1000 03000900 00010301 09000001 03000914  ................
 1010 00010503 06037b09 0c000105 04060302  ......{.........
 1020 090c0001 03000900 00010302 09000001  ................
 1030 03000900 00010301 09000001 03000918  ................
 1040 0001050b 06035f09 18000105 0406031e  ......_.........
 1050 09080001 03000900 00010302 09000001  ................
 1060 03000900 00010301 09000001 03000900  ................
 1070 00010503 06037b09 14000109 08000001  ......{.........
 1080 01060400 00020015 02000001 01fb0e0d  ................
 1090 00010101 01000000 01000001 2e2e2f2e  ............../.
 10a0 2e2f2e2e 2f2e2f72 69736376 2d676363  ./.././riscv-gcc
 10b0 2f6c6962 6763632f 636f6e66 69672f72  /libgcc/config/r
 10c0 69736376 002f686f 6d652f73 74756465  iscv./home/stude
 10d0 6e742f6c 6f63616c 2f726973 63763332  nt/local/riscv32
 10e0 2d756e6b 6e6f776e 2d656c66 2f696e63  -unknown-elf/inc
 10f0 6c756465 2f737973 002f686f 6d652f73  lude/sys./home/s
 1100 74756465 6e742f72 69736376 2d746f6f  tudent/riscv-too
 1110 6c732f72 69736376 2d676e75 2d746f6f  ls/riscv-gnu-too
 1120 6c636861 696e2f62 75696c64 2d676363  lchain/build-gcc
 1130 2d6e6577 6c69622d 73746167 65322f67  -newlib-stage2/g
 1140 63632f69 6e636c75 6465002f 686f6d65  cc/include./home
 1150 2f737475 64656e74 2f6c6f63 616c2f72  /student/local/r
 1160 69736376 33322d75 6e6b6e6f 776e2d65  iscv32-unknown-e
 1170 6c662f69 6e636c75 6465002e 2e2f2e2e  lf/include.../..
 1180 2f2e2e2f 2e2f7269 7363762d 6763632f  /.././riscv-gcc/
 1190 6c696267 63632f2e 2e2f696e 636c7564  libgcc/../includ
 11a0 65002e2e 2f2e2e2f 2e2e2f2e 2f726973  e.../../.././ris
 11b0 63762d67 63632f6c 69626763 632f2e2e  cv-gcc/libgcc/..
 11c0 2f676363 2f636f6e 6669672f 72697363  /gcc/config/risc
 11d0 76002e2e 2f2e2e2f 2e2f6763 63002e2e  v.../.././gcc...
 11e0 2f2e2e2f 2e2e2f2e 2f726973 63762d67  /../.././riscv-g
 11f0 63632f6c 69626763 6300006d 756c7469  cc/libgcc..multi
 1200 332e6300 0100006c 6f636b2e 68000200  3.c....lock.h...
 1210 005f7479 7065732e 68000200 00737464  ._types.h....std
 1220 6465662e 68000300 00726565 6e742e68  def.h....reent.h
 1230 00020000 6572726e 6f2e6800 02000073  ....errno.h....s
 1240 74646c69 622e6800 04000075 6e697374  tdlib.h....unist
 1250 642e6800 02000074 696d652e 68000400  d.h....time.h...
 1260 00686173 68746162 2e680005 00007269  .hashtab.h....ri
 1270 7363762d 6f707473 2e680006 0000696e  scv-opts.h....in
 1280 736e2d63 6f6e7374 616e7473 2e680007  sn-constants.h..
 1290 00006c69 62676363 322e6800 08000000  ..libgcc2.h.....
 12a0 05010005 02a40e00 00032901 05030301  ..........).....
 12b0 09000001 03010900 00010301 09000001  ................
 12c0 03010900 00010501 06037c09 00000103  ..........|.....
 12d0 00090c00 01050a03 04090400 01050306  ................
 12e0 03010904 00010301 09000001 03010900  ................
 12f0 00010301 09000001 03010900 00010301  ................
 1300 09000001 050a0603 7b090000 01030509  ........{.......
 1310 04000103 7f090400 01037e09 04000105  ..........~.....
 1320 03060304 09040001 03010900 00010304  ................
 1330 09000001 05070302 09000001 03010900  ................
 1340 00010511 06030209 00000105 14037e09  ..............~.
 1350 04000105 07060301 09040001 03010900  ................
 1360 0001050a 06030009 00000105 11037d09  ..............}.
 1370 04000105 04060305 09040001 03010900  ................
 1380 00010301 09000001 05160603 7e090000  ............~...
 1390 01051203 7d090400 01050b03 05090400  ....}...........
 13a0 01050a03 7f090400 01050706 03030904  ................
 13b0 00010511 06030009 00000105 07060301  ................
 13c0 09040001 050d0603 00090000 01050706  ................
 13d0 03010904 00010301 09000001 05120603  ................
 13e0 00090000 01050303 02090800 01060302  ................
 13f0 09040001 03010900 00010302 09000001  ................
 1400 05060603 00090000 01050506 03010904  ................
 1410 0001051b 03000900 00010300 09040001  ................
 1420 03000900 00010300 09040001 05190603  ................
 1430 00090000 01050306 03020904 00010506  ................
 1440 06030009 00000105 05060301 09040001  ................
 1450 05110300 09000001 03000904 00010300  ................
 1460 09040001 03000904 0001050e 06030009  ................
 1470 00000105 03060302 09040001 05010603  ................
 1480 01090000 01091400 0001018e 00000002  ................
 1490 00480000 000101fb 0e0d0001 01010100  .H..............
 14a0 00000100 00012e2e 2f2e2e2f 2e2e2f2e  ......../../../.
 14b0 2f726973 63762d67 63632f6c 69626763  /riscv-gcc/libgc
 14c0 632f636f 6e666967 2f726973 63760000  c/config/riscv..
 14d0 6d756c64 69332e53 00010000 00000502  muldi3.S........
 14e0 340f0000 03240103 01090400 01030209  4....$..........
 14f0 04000103 01090400 01030109 04000103  ................
 1500 02090400 01030109 04000103 01090400  ................
 1510 01030109 04000109 04000001 01        .............   
Contents of section .debug_info:
 0000 22000000 02000000 00000401 00000000  "...............
 0010 00000000 10000000 00000000 0b000000  ................
 0020 2d000000 0180f30e 00000400 14000000  -...............
 0030 04019a02 00000c53 0400000b 000000d8  .......S........
 0040 01000000 00000045 00000002 01064f03  .......E......O.
 0050 00000201 084d0300 00020205 69030000  .....M......i...
 0060 0202073c 02000002 04050501 00000204  ...<............
 0070 07ab0000 00020805 00010000 020807a6  ................
 0080 00000003 0405696e 7400045d 00000002  ......int..]....
 0090 0407b000 00000210 04c00500 00052003  .............. .
 00a0 0000020c 0d5d0000 00050f03 0000032c  .....].........,
 00b0 0e410000 00053904 00000372 0e410000  .A....9....r.A..
 00c0 0005d304 00000391 175d0000 00067f02  .........]......
 00d0 00000465 01176900 00000704 03a603d6  ...e..i.........
 00e0 00000008 79020000 03a80ca7 00000008  ....y...........
 00f0 03020000 03a913d6 00000000 092c0000  .............,..
 0100 00e60000 000a6900 00000300 0b0803a3  ......i.........
 0110 090a0100 000c2304 000003a5 075d0000  ......#......]..
 0120 00000c2b 04000003 aa05b400 00000400  ...+............
 0130 05910300 0003ab03 e6000000 05c60100  ................
 0140 0003af1b 77000000 0d040584 04000005  ....w...........
 0150 16194800 00000ed7 01000018 052f088a  ..H........../..
 0160 0100000c bb030000 0531138a 01000000  .........1......
 0170 0f5f6b00 0532075d 00000004 0c0e0400  ._k..2.]........
 0180 0005320b 5d000000 080cbb01 00000532  ..2.]..........2
 0190 145d0000 000c0cbe 04000005 321b5d00  .]..........2.].
 01a0 0000100f 5f780005 330b9001 00001400  ...._x..3.......
 01b0 10043001 00000924 010000a0 0100000a  ..0....$........
 01c0 69000000 00000efe 01000024 05370823  i..........$.7.#
 01d0 0200000c f7000000 0539095d 00000000  .........9.]....
 01e0 0c4a0400 00053a09 5d000000 040c2001  .J....:.]..... .
 01f0 0000053b 095d0000 00080c3c 05000005  ...;.].....<....
 0200 3c095d00 00000c0c e9020000 053d095d  <.]..........=.]
 0210 00000010 0ccf0200 00053e09 5d000000  ..........>.]...
 0220 140cc304 0000053f 095d0000 00180c73  .......?.].....s
 0230 03000005 40095d00 00001c0c fe040000  ....@.].........
 0240 0541095d 00000020 00112f01 00000801  .A.]... ../.....
 0250 054a0868 0200000c ae010000 054b0a68  .J.h.........K.h
 0260 02000000 0c3b0000 00054c09 68020000  .....;....L.h...
 0270 80127604 0000054e 0a240100 00000112  ..v....N.$......
 0280 59010000 05510a24 01000004 01000922  Y....Q.$......."
 0290 01000078 0200000a 69000000 1f0011f2  ...x....i.......
 02a0 02000090 01055d08 bb020000 0cbb0300  ......].........
 02b0 00055e12 bb020000 000cd303 0000055f  ..^............_
 02c0 065d0000 00040cb6 01000005 6109c102  .]..........a...
 02d0 0000080c 2f010000 05621e23 02000088  ..../....b.#....
 02e0 00100478 02000009 d1020000 d1020000  ...x............
 02f0 0a690000 001f0010 04d70200 00130e7d  .i.............}
 0300 03000008 05750800 0300000c 1a010000  .....u..........
 0310 05761100 03000000 0c500000 00057706  .v.......P....w.
 0320 5d000000 04001004 2c000000 0ea50300  ].......,.......
 0330 006805b5 08490400 000f5f70 0005b612  .h...I...._p....
 0340 00030000 000f5f72 0005b707 5d000000  ......_r....]...
 0350 040f5f77 0005b807 5d000000 080c5201  .._w....].....R.
 0360 000005b9 09330000 000c0c21 02000005  .....3.....!....
 0370 ba093300 00000e0f 5f626600 05bb11d8  ..3....._bf.....
 0380 02000010 0cc60000 0005bc07 5d000000  ............]...
 0390 180c4201 000005c3 0a220100 001c0cee  ..B......"......
 03a0 01000005 c51dcd05 0000200c c8020000  .......... .....
 03b0 05c71df7 05000024 0c330400 0005ca0d  .......$.3......
 03c0 1b060000 280c1805 000005cb 09350600  ....(........5..
 03d0 002c0f5f 75620005 ce11d802 0000300f  .,._ub........0.
 03e0 5f757000 05cf1200 03000038 0f5f7572  _up........8._ur
 03f0 0005d007 5d000000 3c0c0e01 000005d3  ....]...<.......
 0400 113b0600 00400cf0 04000005 d4114b06  .;...@........K.
 0410 0000430f 5f6c6200 05d711d8 02000044  ..C._lb........D
 0420 0c680100 0005da07 5d000000 4c0c8701  .h......]...L...
 0430 000005db 0a830000 00500c6f 00000005  .........P.o....
 0440 de126704 0000540c 86020000 05e20c16  ..g...T.........
 0450 01000058 0cad0300 0005e40e 0a010000  ...X............
 0460 5c0c8c02 000005e5 095d0000 00640014  \........]...d..
 0470 9b000000 67040000 15670400 00152201  ....g....g....".
 0480 000015bb 05000015 5d000000 00100472  ........]......r
 0490 04000016 67040000 17160400 00280405  ....g........(..
 04a0 390208bb 05000018 62030000 053b0207  9.......b....;..
 04b0 5d000000 00186101 00000540 020ba706  ].....a....@....
 04c0 00000418 0a020000 05400214 a7060000  .........@......
 04d0 0818cf01 00000540 021ea706 00000c18  .......@........
 04e0 ce030000 05420208 5d000000 10186400  .....B..].....d.
 04f0 00000543 0208a708 00001418 f5030000  ...C............
 0500 05460207 5d000000 3018e303 00000547  .F..]...0......G
 0510 0216bc08 00003418 04030000 05490207  ......4......I..
 0520 5d000000 3818eb03 0000054b 020acd08  ]...8......K....
 0530 00003c18 71020000 054e0213 8a010000  ..<.q....N......
 0540 4018f401 0000054f 02075d00 00004418  @......O..]...D.
 0550 32050000 05500213 8a010000 48181603  2....P......H...
 0560 00000551 0214d308 00004c18 19020000  ...Q......L.....
 0570 05540207 5d000000 50187f01 00000555  .T..]...P......U
 0580 0209bb05 00005418 5b030000 05780207  ......T.[....x..
 0590 82080000 5819f202 0000057c 0213bb02  ....X......|....
 05a0 00004801 194f0200 00057d02 12780200  ..H..O....}..x..
 05b0 004c0119 e6040000 0581020c e4080000  .L..............
 05c0 dc02194a 01000005 86021068 060000e0  ...J.......h....
 05d0 02192a01 00000588 020af008 0000ec02  ..*.............
 05e0 001004c1 05000002 01085603 000016c1  ..........V.....
 05f0 05000010 04490400 00149b00 0000f105  .....I..........
 0600 00001567 04000015 22010000 15f10500  ...g....".......
 0610 00155d00 00000010 04c80500 001004d3  ..].............
 0620 05000014 8f000000 1b060000 15670400  .............g..
 0630 00152201 0000158f 00000015 5d000000  ..".........]...
 0640 001004fd 05000014 5d000000 35060000  ........]...5...
 0650 15670400 00152201 00000010 04210600  .g...."......!..
 0660 00092c00 00004b06 00000a69 00000002  ..,...K....i....
 0670 00092c00 00005b06 00000a69 00000000  ..,...[....i....
 0680 00068a03 0000051f 011a0603 00001acd  ................
 0690 0400000c 05230108 a1060000 18bb0300  .....#..........
 06a0 00052501 11a10600 0000182f 02000005  ..%......../....
 06b0 2601075d 00000004 18840300 00052701  &..]..........'.
 06c0 0ba70600 00080010 04680600 0010045b  .........h.....[
 06d0 0600001a 56000000 0e053f01 08e60600  ....V.....?.....
 06e0 00181d04 00000540 0112e606 00000018  .......@........
 06f0 63040000 05410112 e6060000 06187f04  c....A..........
 0700 00000542 01123a00 00000c00 093a0000  ...B..:......:..
 0710 00f60600 000a6900 00000200 1bd00559  ......i........Y
 0720 02070b08 000018ac 04000005 5b021869  ............[..i
 0730 00000000 18690400 00055c02 12bb0500  .....i....\.....
 0740 00041864 02000005 5d02100b 08000008  ...d....].......
 0750 18090500 00055e02 17a00100 002418df  ......^......$..
 0760 01000005 5f020f5d 00000048 18b60300  ...._..]...H....
 0770 00056002 2c560000 0050181f 05000005  ..`.,V...P......
 0780 61021aad 06000058 18c10300 00056202  a......X......b.
 0790 160a0100 00681824 05000005 6302160a  .....h.$....c...
 07a0 01000070 18e90000 00056402 160a0100  ...p......d.....
 07b0 007818dc 04000005 6502101b 08000080  .x......e.......
 07c0 18580200 00056602 102b0800 0088188c  .X....f..+......
 07d0 04000005 67020f5d 000000a0 18a00100  ....g..]........
 07e0 00056802 160a0100 00a418da 00000005  ..h.............
 07f0 6902160a 010000ac 188f0100 00056a02  i.............j.
 0800 160a0100 00b41875 00000005 6b02160a  .......u....k...
 0810 010000bc 18840000 00056c02 160a0100  ..........l.....
 0820 00c41860 03000005 6d02085d 000000cc  ...`....m..]....
 0830 0009c105 00001b08 00000a69 00000019  ...........i....
 0840 0009c105 00002b08 00000a69 00000007  ......+....i....
 0850 0009c105 00003b08 00000a69 00000017  ......;....i....
 0860 001bf005 72020762 08000018 e2020000  ....r..b........
 0870 0575021b 62080000 0018d902 00000576  .u..b..........v
 0880 02187208 00007800 09000300 00720800  ..r...x......r..
 0890 000a6900 00001d00 09690000 00820800  ..i......i......
 08a0 000a6900 00001d00 1cf00557 0203a708  ..i........W....
 08b0 00001d16 04000005 6e020bf6 0600001d  ........n.......
 08c0 f6040000 0577020b 3b080000 0009c105  .....w..;.......
 08d0 0000b708 00000a69 00000018 001ecf00  .......i........
 08e0 00001004 b7080000 1fcd0800 00156704  ..............g.
 08f0 00000010 04c20800 0010048a 0100001f  ................
 0900 e4080000 155d0000 00001004 ea080000  .....]..........
 0910 1004d908 0000095b 06000000 0900000a  .......[........
 0920 69000000 020020a0 04000005 07031767  i..... ........g
 0930 04000020 99040000 0508031d 6d040000  ... ........m...
 0940 21fa0200 0006630e bb050000 22270200  !.....c....."'..
 0950 00010a16 3e090000 05032828 00001004  ....>.....((....
 0960 64000000 16380900 00224700 0000010b  d....8..."G.....
 0970 163e0900 00050324 28000022 b9040000  .>.....$(.."....
 0980 010c173e 09000005 03202800 00224104  ...>..... (.."A.
 0990 0000010d 163e0900 0005031c 28000022  .....>......(.."
 09a0 5e000000 01120641 00000005 03142800  ^......A......(.
 09b0 00095d00 0000a109 00000a69 00000027  ..]........i...'
 09c0 0a690000 001d0022 71010000 012a058b  .i....."q....*..
 09d0 09000005 03081100 00237601 0000010b  .........#v.....
 09e0 010d01e5 09000024 5800010b 011a5d00  .......$X.....].
 09f0 00002459 00010b01 215d0000 00259402  ..$Y....!]...%..
 0a00 0000010b 01285d00 00000026 bd000000  .....(]....&....
 0a10 019506bc 04000074 05000001 9c820a00  .......t........
 0a20 0027c101 00000196 065d0000 00000000  .'.......]......
 0a30 00273d01 00000196 0e5d0000 00700000  .'=......]...p..
 0a40 00279c03 00000198 065d0000 00c60000  .'.......]......
 0a50 00274605 00000199 065d0000 00050100  .'F......]......
 0a60 00283801 0000550a 00002714 01000001  .(8...U...'.....
 0a70 c5095d00 0000cd01 00000029 f8060000  ..]........)....
 0a80 d30e0000 2a040900 007b0b00 00780a00  ....*....{...x..
 0a90 002b015a 0289002b 015b0286 00002934  .+.Z...+.[....)4
 0aa0 090000d3 0e000000 2cd80300 00017f06  ........,.......
 0ab0 01c40a00 002dab0a 00002e78 0001810a  .....-.....x....
 0ac0 5d000000 2f2e7900 01820b5d 00000000  ].../.y....]....
 0ad0 002f2e78 0001860a 5d000000 2f2e7900  ./.x....].../.y.
 0ae0 01870b5d 00000000 00003037 05000001  ...]......07....
 0af0 6b055d00 0000580f 0000ac01 0000019c  k.]...X.........
 0b00 570b0000 31820a00 00b80f00 00500100  W...1........P..
 0b10 00017203 190b0000 32900e00 00780100  ..r.....2....x..
 0b20 0033ac0a 0000eb01 000032a6 0e0000a0  .3........2.....
 0b30 01000033 b70a0000 15020000 00000029  ...3...........)
 0b40 a00f0000 df0e0000 2ad00f00 00eb0e00  ........*.......
 0b50 00440b00 002b015a 05030811 00002b01  .D...+.Z......+.
 0b60 5b01302b 015c0284 00002938 100000e5  [.0+.\....)8....
 0b70 09000029 44100000 110d0000 00345e04  ...)D........4^.
 0b80 00000165 06017b0b 00003574 0001650f  ...e..{...5t..e.
 0b90 5d000000 2f2e6900 01670a5d 00000000  ].../.i..g.]....
 0ba0 00364203 0000014b 06480200 00400100  .6B....K.H...@..
 0bb0 00019c11 0d000037 c1010000 014b155d  .......7.....K.]
 0bc0 00000001 5a373d01 0000014b 1e5d0000  ....Z7=....K.]..
 0bd0 00015b38 36020000 014d065d 0000004d  ..[86....M.]...M
 0be0 38120200 00014e06 5d000000 39397800  8.....N.]...99x.
 0bf0 00003a79 0001500a 5d000000 9f020000  ..:y..P.].......
 0c00 39a00000 003a7800 01510b5d 000000be  9....:x..Q.]....
 0c10 0200003b b3090000 60020000 0c000000  ...;....`.......
 0c20 015a3311 0c00003c d7090000 3ccc0900  .Z3....<....<...
 0c30 003cc109 00000031 b3090000 6c020000  .<.....1....l...
 0c40 c8000000 0153283a 0c00003d d7090000  .....S(:...=....
 0c50 e03ecc09 0000016f 3ec10900 00015f00  .>.....o>....._.
 0c60 31b30900 00840200 00e00000 00015c31  1.............\1
 0c70 6a0c0000 3fd70900 00dd0200 003fcc09  j...?........?..
 0c80 0000f202 00003fc1 09000005 03000000  ......?.........
 0c90 3bb30900 00c00200 00040000 00015a27  ;.............Z'
 0ca0 8e0c0000 3cd70900 003ccc09 00003cc1  ....<....<....<.
 0cb0 09000000 31b30900 001c0300 00f80000  ....1...........
 0cc0 00015c25 be0c0000 3fd70900 00180300  ..\%....?.......
 0cd0 003fcc09 00003803 00003fc1 09000056  .?....8...?....V
 0ce0 03000000 3bb30900 00300300 00100000  ....;....0......
 0cf0 00015805 ee0c0000 3fd70900 00740300  ..X.....?....t..
 0d00 003fcc09 00008803 00003fc1 0900009b  .?........?.....
 0d10 03000000 40b30900 00640300 00040000  ....@....d......
 0d20 00015526 3cd70900 003ccc09 00003cc1  ..U&<....<....<.
 0d30 09000000 00000026 38030000 01330658  .......&8....3.X
 0d40 010000f0 00000001 9c620e00 00383602  .........b...86.
 0d50 00000135 065d0000 004d3812 02000001  ...5.]...M8.....
 0d60 36065d00 00003939 00000000 3a790001  6.]...99....:y..
 0d70 380a5d00 0000ae03 00003918 0000003a  8.].......9....:
 0d80 78000139 0b5d0000 00cd0300 003bb309  x..9.].......;..
 0d90 00006401 00000c00 00000142 338b0d00  ..d........B3...
 0da0 003cd709 00003ccc 0900003c c1090000  .<....<....<....
 0db0 0031b309 00008401 00004000 00000144  .1........@....D
 0dc0 31bb0d00 003fd709 0000ec03 00003fcc  1....?........?.
 0dd0 09000001 0400003f c1090000 14040000  .......?........
 0de0 003bb309 0000c001 00000400 00000142  .;.............B
 0df0 27df0d00 003cd709 00003ccc 0900003c  '....<....<....<
 0e00 c1090000 0031b309 00001402 00005800  .....1........X.
 0e10 00000144 250f0e00 003fd709 00002704  ...D%....?....'.
 0e20 00003fcc 09000047 0400003f c1090000  ..?....G...?....
 0e30 65040000 003bb309 00002402 00001000  e....;....$.....
 0e40 00000140 053f0e00 003fd709 00008304  ...@.?...?......
 0e50 00003fcc 09000097 0400003f c1090000  ..?........?....
 0e60 aa040000 0040b309 00003802 00000400  .....@....8.....
 0e70 0000013d 263cd709 00003ccc 0900003c  ...=&<....<....<
 0e80 c1090000 00000000 41570b00 00880300  ........AW......
 0e90 00040000 00019c7d 0e00003e 640b0000  .......}...>d...
 0ea0 015a0041 820a0000 8c030000 30010000  .Z.A........0...
 0eb0 019cd30e 000042c0 030000ec 000000b6  ......B.........
 0ec0 0e000033 ac0a0000 bd040000 39180100  ...3........9...
 0ed0 0033b70a 0000fe04 00000000 43b40300  .3..........C...
 0ee0 00eb0e00 002b015a 0278002b 015b0130  .....+.Z.x.+.[.0
 0ef0 2b015c03 0ac01200 0044b404 0000b404  +.\......D......
 0f00 0000068c 05443203 00003203 0000069b  .....D2...2.....
 0f10 06459f00 00009500 00000700 00e60c00  .E..............
 0f20 000400e7 03000004 01e90600 000c7905  ..............y.
 0f30 0000f307 0000a40e 00009000 00008110  ................
 0f40 00000208 07a60000 00030405 696e7400  ............int.
 0f50 020407b0 00000002 08050001 00000210  ................
 0f60 04c00500 00020106 4f030000 0201084d  ........O......M
 0f70 03000002 02056903 00000202 073c0200  ......i......<..
 0f80 00020405 05010000 020407ab 00000004  ................
 0f90 20030000 020c0d2c 00000004 0f030000   ......,........
 0fa0 032c0e64 00000004 39040000 03720e64  .,.d....9....r.d
 0fb0 00000004 d3040000 0391172c 00000005  ...........,....
 0fc0 7f020000 04650117 33000000 060403a6  .....e..3.......
 0fd0 03d10000 00077902 000003a8 0ca20000  ......y.........
 0fe0 00070302 000003a9 13d10000 0000084f  ...............O
 0ff0 000000e1 00000009 33000000 03000a08  ........3.......
 1000 03a30905 0100000b 23040000 03a5072c  ........#......,
 1010 00000000 0b2b0400 0003aa05 af000000  .....+..........
 1020 04000491 03000003 ab03e100 000004c6  ................
 1030 01000003 af1b7200 00000c04 04840400  ......r.........
 1040 00051619 6b000000 0dd70100 0018052f  ....k........../
 1050 08850100 000bbb03 00000531 13850100  ...........1....
 1060 00000e5f 6b000532 072c0000 00040b0e  ..._k..2.,......
 1070 04000005 320b2c00 0000080b bb010000  ....2.,.........
 1080 0532142c 0000000c 0bbe0400 0005321b  .2.,..........2.
 1090 2c000000 100e5f78 0005330b 8b010000  ,....._x..3.....
 10a0 14000f04 2b010000 081f0100 009b0100  ....+...........
 10b0 00093300 00000000 0dfe0100 00240537  ..3..........$.7
 10c0 081e0200 000bf700 00000539 092c0000  ...........9.,..
 10d0 00000b4a 04000005 3a092c00 0000040b  ...J....:.,.....
 10e0 20010000 053b092c 00000008 0b3c0500   ....;.,.....<..
 10f0 00053c09 2c000000 0c0be902 0000053d  ..<.,..........=
 1100 092c0000 00100bcf 02000005 3e092c00  .,..........>.,.
 1110 0000140b c3040000 053f092c 00000018  .........?.,....
 1120 0b730300 00054009 2c000000 1c0bfe04  .s....@.,.......
 1130 00000541 092c0000 00200010 2f010000  ...A.,... ../...
 1140 0801054a 08630200 000bae01 0000054b  ...J.c.........K
 1150 0a630200 00000b3b 00000005 4c096302  .c.....;....L.c.
 1160 00008011 76040000 054e0a1f 01000000  ....v....N......
 1170 01115901 00000551 0a1f0100 00040100  ..Y....Q........
 1180 081d0100 00730200 00093300 00001f00  .....s....3.....
 1190 10f20200 00900105 5d08b602 00000bbb  ........].......
 11a0 03000005 5e12b602 0000000b d3030000  ....^...........
 11b0 055f062c 00000004 0bb60100 00056109  ._.,..........a.
 11c0 bc020000 080b2f01 00000562 1e1e0200  ....../....b....
 11d0 0088000f 04730200 0008cc02 0000cc02  .....s..........
 11e0 00000933 0000001f 000f04d2 02000012  ...3............
 11f0 0d7d0300 00080575 08fb0200 000b1a01  .}.....u........
 1200 00000576 11fb0200 00000b50 00000005  ...v.......P....
 1210 77062c00 00000400 0f044f00 00000da5  w.,.......O.....
 1220 03000068 05b50844 0400000e 5f700005  ...h...D...._p..
 1230 b612fb02 0000000e 5f720005 b7072c00  ........_r....,.
 1240 0000040e 5f770005 b8072c00 0000080b  ...._w....,.....
 1250 52010000 05b90956 0000000c 0b210200  R......V.....!..
 1260 0005ba09 56000000 0e0e5f62 660005bb  ....V....._bf...
 1270 11d30200 00100bc6 00000005 bc072c00  ..............,.
 1280 0000180b 42010000 05c30a1d 0100001c  ....B...........
 1290 0bee0100 0005c51d c8050000 200bc802  ............ ...
 12a0 000005c7 1df70500 00240b33 04000005  .........$.3....
 12b0 ca0d1b06 0000280b 18050000 05cb0935  ......(........5
 12c0 0600002c 0e5f7562 0005ce11 d3020000  ...,._ub........
 12d0 300e5f75 700005cf 12fb0200 00380e5f  0._up........8._
 12e0 75720005 d0072c00 00003c0b 0e010000  ur....,...<.....
 12f0 05d3113b 06000040 0bf00400 0005d411  ...;...@........
 1300 4b060000 430e5f6c 620005d7 11d30200  K...C._lb.......
 1310 00440b68 01000005 da072c00 00004c0b  .D.h......,...L.
 1320 87010000 05db0a7e 00000050 0b6f0000  .......~...P.o..
 1330 0005de12 62040000 540b8602 000005e2  ....b...T.......
 1340 0c110100 00580bad 03000005 e40e0501  .....X..........
 1350 00005c0b 8c020000 05e5092c 00000064  ..\........,...d
 1360 00139600 00006204 00001462 04000014  ......b....b....
 1370 1d010000 14b60500 00142c00 0000000f  ..........,.....
 1380 046d0400 00156204 00001616 04000028  .m....b........(
 1390 04053902 08b60500 00176203 0000053b  ..9.......b....;
 13a0 02072c00 00000017 61010000 0540020b  ..,.....a....@..
 13b0 a7060000 04170a02 00000540 0214a706  ...........@....
 13c0 00000817 cf010000 0540021e a7060000  .........@......
 13d0 0c17ce03 00000542 02082c00 00001017  .......B..,.....
 13e0 64000000 05430208 a7080000 1417f503  d....C..........
 13f0 00000546 02072c00 00003017 e3030000  ...F..,...0.....
 1400 05470216 bc080000 34170403 00000549  .G......4......I
 1410 02072c00 00003817 eb030000 054b020a  ..,...8......K..
 1420 cd080000 3c177102 0000054e 02138501  ....<.q....N....
 1430 00004017 f4010000 054f0207 2c000000  ..@......O..,...
 1440 44173205 00000550 02138501 00004817  D.2....P......H.
 1450 16030000 05510214 d3080000 4c171902  .....Q......L...
 1460 00000554 02072c00 00005017 7f010000  ...T..,...P.....
 1470 05550209 b6050000 54175b03 00000578  .U......T.[....x
 1480 02078208 00005818 f2020000 057c0213  ......X......|..
 1490 b6020000 4801184f 02000005 7d021273  ....H..O....}..s
 14a0 0200004c 0118e604 00000581 020ce408  ...L............
 14b0 0000dc02 184a0100 00058602 10680600  .....J.......h..
 14c0 00e00218 2a010000 0588020a f0080000  ....*...........
 14d0 ec02000f 04bc0500 00020108 56030000  ............V...
 14e0 15bc0500 000f0444 04000013 96000000  .......D........
 14f0 ec050000 14620400 00141d01 000014ec  .....b..........
 1500 05000014 2c000000 000f04c3 05000015  ....,...........
 1510 ec050000 0f04ce05 0000138a 0000001b  ................
 1520 06000014 62040000 141d0100 00148a00  ....b...........
 1530 0000142c 00000000 0f04fd05 0000132c  ...,...........,
 1540 00000035 06000014 62040000 141d0100  ...5....b.......
 1550 00000f04 21060000 084f0000 004b0600  ....!....O...K..
 1560 00093300 00000200 084f0000 005b0600  ..3......O...[..
 1570 00093300 00000000 058a0300 00051f01  ..3.............
 1580 1a010300 0019cd04 00000c05 230108a1  ............#...
 1590 06000017 bb030000 05250111 a1060000  .........%......
 15a0 00172f02 00000526 01072c00 00000417  ../....&..,.....
 15b0 84030000 0527010b a7060000 08000f04  .....'..........
 15c0 68060000 0f045b06 00001956 0000000e  h.....[....V....
 15d0 053f0108 e6060000 171d0400 00054001  .?............@.
 15e0 12e60600 00001763 04000005 410112e6  .......c....A...
 15f0 06000006 177f0400 00054201 125d0000  ..........B..]..
 1600 000c0008 5d000000 f6060000 09330000  ....]........3..
 1610 0002001a d0055902 070b0800 0017ac04  ......Y.........
 1620 0000055b 02183300 00000017 69040000  ...[..3.....i...
 1630 055c0212 b6050000 04176402 0000055d  .\........d....]
 1640 02100b08 00000817 09050000 055e0217  .............^..
 1650 9b010000 2417df01 0000055f 020f2c00  ....$......_..,.
 1660 00004817 b6030000 0560022c 25000000  ..H......`.,%...
 1670 50171f05 00000561 021aad06 00005817  P......a......X.
 1680 c1030000 05620216 05010000 68172405  .....b......h.$.
 1690 00000563 02160501 00007017 e9000000  ...c......p.....
 16a0 05640216 05010000 7817dc04 00000565  .d......x......e
 16b0 02101b08 00008017 58020000 05660210  ........X....f..
 16c0 2b080000 88178c04 00000567 020f2c00  +..........g..,.
 16d0 0000a017 a0010000 05680216 05010000  .........h......
 16e0 a417da00 00000569 02160501 0000ac17  .......i........
 16f0 8f010000 056a0216 05010000 b4177500  .....j........u.
 1700 0000056b 02160501 0000bc17 84000000  ...k............
 1710 056c0216 05010000 c4176003 0000056d  .l........`....m
 1720 02082c00 0000cc00 08bc0500 001b0800  ..,.............
 1730 00093300 00001900 08bc0500 002b0800  ..3..........+..
 1740 00093300 00000700 08bc0500 003b0800  ..3..........;..
 1750 00093300 00001700 1af00572 02076208  ..3........r..b.
 1760 000017e2 02000005 75021b62 08000000  ........u..b....
 1770 17d90200 00057602 18720800 00780008  ......v..r...x..
 1780 fb020000 72080000 09330000 001d0008  ....r....3......
 1790 33000000 82080000 09330000 001d001b  3........3......
 17a0 f0055702 03a70800 001c1604 0000056e  ..W............n
 17b0 020bf606 00001cf6 04000005 77020b3b  ............w..;
 17c0 08000000 08bc0500 00b70800 00093300  ..............3.
 17d0 00001800 1dcf0000 000f04b7 0800001e  ................
 17e0 cd080000 14620400 00000f04 c2080000  .....b..........
 17f0 0f048501 00001ee4 08000014 2c000000  ............,...
 1800 000f04ea 0800000f 04d90800 00085b06  ..............[.
 1810 00000009 00000933 00000002 001fa004  .......3........
 1820 00000507 03176204 00001f99 04000005  ......b.........
 1830 08031d68 04000008 f2050000 25090000  ...h........%...
 1840 2000151a 09000021 07060000 06142425   ......!......$%
 1850 09000021 bb070000 0615152c 0000000f  ...!.......,....
 1860 04480900 00132c00 00005c09 0000145c  .H....,...\....\
 1870 09000014 5c090000 000f0462 09000022  ....\......b..."
 1880 21fa0200 0007630e b6050000 21660600  !.....c.....!f..
 1890 0008100f 7b090000 0f04b605 000021fd  ....{.........!.
 18a0 02000008 fc0eb605 000021cb 06000008  ..........!.....
 18b0 fd0c2c00 000021d5 07000008 fd142c00  ..,...!.......,.
 18c0 0000216d 08000008 fd1c2c00 000021a6  ..!m......,...!.
 18d0 06000008 ff0c2c00 0000217a 07000009  ......,...!z....
 18e0 9a166400 00002160 05000009 9b152c00  ..d...!`......,.
 18f0 000008b6 050000e5 09000009 33000000  ............3...
 1900 010021d6 05000009 9e17d509 00000437  ..!............7
 1910 0600000a 2a163300 000004b1 0700000a  ....*.3.........
 1920 2f15090a 00000f04 0f0a0000 13f10900  /...............
 1930 001e0a00 00145c09 00000004 86080000  ......\.........
 1940 0a360f42 09000021 4e050000 0abb12fd  .6.B...!N.......
 1950 09000021 e3070000 0abe101e 0a000023  ...!...........#
 1960 28060000 07043300 00000b18 067f0a00  (.....3.........
 1970 00249307 00000024 79060000 0124af06  .$.....$y....$..
 1980 00000224 6e060000 03248a07 00000424  ...$n....$.....$
 1990 74080000 05246308 00000600 21cc0500  t....$c.....!...
 19a0 000b211c 420a0000 23ba0600 00070433  ..!.B...#......3
 19b0 0000000b 2306b00a 000024a7 07000000  ....#.....$.....
 19c0 249d0700 000124dc 07000002 00211406  $.....$......!..
 19d0 00000b28 1e8b0a00 00218b06 00000c29  ...(.....!.....)
 19e0 1a250900 0021ef05 00000c38 1a250900  .%...!.....8.%..
 19f0 00047e08 00000d7b 164f0000 0015d40a  ..~....{.O......
 1a00 00000400 0600000d 800f2c00 000004ff  ..........,.....
 1a10 0500000d 81163300 00000484 0600000d  ......3.........
 1a20 840f3a00 00000204 04da0600 00020803  ..:.............
 1a30 d2060000 020804c5 05000002 10036a05  ..............j.
 1a40 00000220 03b80500 0019e006 0000080d  ... ............
 1a50 ed010a57 0b000025 6c6f7700 0ded011a  ...W...%low.....
 1a60 e50a0000 00172306 00000ded 011fe50a  ......#.........
 1a70 00000400 1b080df4 0109790b 00002673  ..........y...&s
 1a80 000df601 132c0b00 00266c6c 000df701  .....,...&ll....
 1a90 0afd0a00 00000541 0600000d f8010357  .......A.......W
 1aa0 0b000015 790b0000 08e00a00 009b0b00  ....y...........
 1ab0 00093300 0000ff00 158b0b00 001f5408  ..3...........T.
 1ac0 00000dfc 01169b0b 00001f53 0600000d  ...........S....
 1ad0 0202169b 0b000027 5d060000 012901fd  .......']....)..
 1ae0 0a0000a4 0e000090 00000001 9c287500  .............(u.
 1af0 012912fd 0a00008c 05000028 76000129  .).........(v..)
 1b00 1cfd0a00 00b40500 00297575 00012b11  .........)uu..+.
 1b10 860b0000 29767600 012c1186 0b000029  ....)vv..,.....)
 1b20 7700012d 0b790b00 002ade05 0000012e  w..-.y...*......
 1b30 0af10a00 00dc0500 002acf07 0000012f  .........*...../
 1b40 0af10a00 00fa0500 002bc507 00000130  .........+.....0
 1b50 0af10a00 00015e2a 4d060000 01310af1  ......^*M....1..
 1b60 0a000018 0600002a 49060000 01320af1  .......*I....2..
 1b70 0a00004d 0600002a 21060000 01330af1  ...M...*!....3..
 1b80 0a000070 0600002a e4050000 01340af1  ...p...*.....4..
 1b90 0a00009a 0600002b ab050000 01350af1  .......+.....5..
 1ba0 0a000001 6d2a8407 00000136 0af10a00  ....m*.....6....
 1bb0 00df0600 002c000f 00000800 0000c20c  .....,..........
 1bc0 00002b9a 06000001 501bf10a 0000015a  ..+.....P......Z
 1bd0 2ba00600 0001501b f10a0000 015b002d  +.....P......[.-
 1be0 100f0000 0c000000 2b9a0600 00015311  ........+.....S.
 1bf0 f10a0000 015a2ba0 06000001 5311f10a  .....Z+.....S...
 1c00 0000015b 00000022 00000002 00560600  ...[...".....V..
 1c10 0004018b 14000034 0f000058 0f00008e  .......4...X....
 1c20 080000f3 0700002d 00000001 80        .......-.....   
Contents of section .debug_abbrev:
 0000 01110010 06110112 01030e1b 0e250e13  .............%..
 0010 05000000 01110125 0e130b03 0e1b0e55  .......%.......U
 0020 17110110 17000002 24000b0b 3e0b030e  ........$...>...
 0030 00000324 000b0b3e 0b030800 00043500  ...$...>......5.
 0040 49130000 05160003 0e3a0b3b 0b390b49  I........:.;.9.I
 0050 13000006 1600030e 3a0b3b05 390b4913  ........:.;.9.I.
 0060 00000717 010b0b3a 0b3b0b39 0b011300  .......:.;.9....
 0070 00080d00 030e3a0b 3b0b390b 49130000  ......:.;.9.I...
 0080 09010149 13011300 000a2100 49132f0b  ...I......!.I./.
 0090 00000b13 010b0b3a 0b3b0b39 0b011300  .......:.;.9....
 00a0 000c0d00 030e3a0b 3b0b390b 4913380b  ......:.;.9.I.8.
 00b0 00000d0f 000b0b00 000e1301 030e0b0b  ................
 00c0 3a0b3b0b 390b0113 00000f0d 0003083a  :.;.9..........:
 00d0 0b3b0b39 0b491338 0b000010 0f000b0b  .;.9.I.8........
 00e0 49130000 11130103 0e0b053a 0b3b0b39  I..........:.;.9
 00f0 0b011300 00120d00 030e3a0b 3b0b390b  ..........:.;.9.
 0100 49133805 00001315 00271900 00141501  I.8......'......
 0110 27194913 01130000 15050049 13000016  '.I........I....
 0120 26004913 00001713 01030e0b 053a0b3b  &.I..........:.;
 0130 05390b01 13000018 0d00030e 3a0b3b05  .9..........:.;.
 0140 390b4913 380b0000 190d0003 0e3a0b3b  9.I.8........:.;
 0150 05390b49 13380500 001a1301 030e0b0b  .9.I.8..........
 0160 3a0b3b05 390b0113 00001b13 010b0b3a  :.;.9..........:
 0170 0b3b0539 0b011300 001c1701 0b0b3a0b  .;.9..........:.
 0180 3b05390b 01130000 1d0d0003 0e3a0b3b  ;.9..........:.;
 0190 05390b49 1300001e 1300030e 3c190000  .9.I........<...
 01a0 1f150127 19011300 00203400 030e3a0b  ...'..... 4...:.
 01b0 3b05390b 49133f19 3c190000 21340003  ;.9.I.?.<...!4..
 01c0 0e3a0b3b 0b390b49 133f193c 19000022  .:.;.9.I.?.<..."
 01d0 3400030e 3a0b3b0b 390b4913 3f190218  4...:.;.9.I.?...
 01e0 0000232e 01030e3a 0b3b0539 0b271920  ..#....:.;.9.'. 
 01f0 0b011300 00240500 03083a0b 3b05390b  .....$....:.;.9.
 0200 49130000 25050003 0e3a0b3b 05390b49  I...%....:.;.9.I
 0210 13000026 2e013f19 030e3a0b 3b0b390b  ...&..?...:.;.9.
 0220 11011206 40189742 19011300 00273400  ....@..B.....'4.
 0230 030e3a0b 3b0b390b 49130217 0000280b  ..:.;.9.I.....(.
 0240 01551701 13000029 89820100 11013113  .U.....)......1.
 0250 00002a89 82010111 01311301 1300002b  ..*......1.....+
 0260 8a820100 02189142 1800002c 2e013f19  .......B...,..?.
 0270 030e3a0b 3b0b390b 200b0113 00002d0b  ..:.;.9. .....-.
 0280 01011300 002e3400 03083a0b 3b0b390b  ......4...:.;.9.
 0290 49130000 2f0b0100 00302e01 3f19030e  I.../....0..?...
 02a0 3a0b3b0b 390b4913 11011206 40189742  :.;.9.I.....@..B
 02b0 19011300 00311d01 31135201 5517580b  .....1..1.R.U.X.
 02c0 590b570b 01130000 320b0131 13551700  Y.W.....2..1.U..
 02d0 00333400 31130217 0000342e 013f1903  .34.1.....4..?..
 02e0 0e3a0b3b 0b390b27 19200b01 13000035  .:.;.9.'. .....5
 02f0 05000308 3a0b3b0b 390b4913 0000362e  ....:.;.9.I...6.
 0300 013f1903 0e3a0b3b 0b390b27 19110112  .?...:.;.9.'....
 0310 06401897 42190113 00003705 00030e3a  .@..B.....7....:
 0320 0b3b0b39 0b491302 18000038 3400030e  .;.9.I.....84...
 0330 3a0b3b0b 390b4913 1c0b0000 390b0155  :.;.9.I.....9..U
 0340 1700003a 34000308 3a0b3b0b 390b4913  ...:4...:.;.9.I.
 0350 02170000 3b1d0131 13110112 06580b59  ....;..1.....X.Y
 0360 0b570b01 1300003c 05003113 00003d05  .W.....<..1...=.
 0370 0031131c 0b00003e 05003113 02180000  .1.....>..1.....
 0380 3f050031 13021700 00401d01 31131101  ?..1.....@..1...
 0390 1206580b 590b570b 0000412e 01311311  ..X.Y.W...A..1..
 03a0 01120640 18974219 01130000 420b0111  ...@..B.....B...
 03b0 01120601 13000043 89820101 11013113  .......C......1.
 03c0 0000442e 003f193c 196e0e03 0e3a0b3b  ..D..?.<.n...:.;
 03d0 0b390b00 00452e00 3f193c19 6e0e030e  .9...E..?.<.n...
 03e0 3a0b3b0b 00000001 1101250e 130b030e  :.;.......%.....
 03f0 1b0e1101 12061017 00000224 000b0b3e  ...........$...>
 0400 0b030e00 00032400 0b0b3e0b 03080000  ......$...>.....
 0410 04160003 0e3a0b3b 0b390b49 13000005  .....:.;.9.I....
 0420 1600030e 3a0b3b05 390b4913 00000617  ....:.;.9.I.....
 0430 010b0b3a 0b3b0b39 0b011300 00070d00  ...:.;.9........
 0440 030e3a0b 3b0b390b 49130000 08010149  ..:.;.9.I......I
 0450 13011300 00092100 49132f0b 00000a13  ......!.I./.....
 0460 010b0b3a 0b3b0b39 0b011300 000b0d00  ...:.;.9........
 0470 030e3a0b 3b0b390b 4913380b 00000c0f  ..:.;.9.I.8.....
 0480 000b0b00 000d1301 030e0b0b 3a0b3b0b  ............:.;.
 0490 390b0113 00000e0d 0003083a 0b3b0b39  9..........:.;.9
 04a0 0b491338 0b00000f 0f000b0b 49130000  .I.8........I...
 04b0 10130103 0e0b053a 0b3b0b39 0b011300  .......:.;.9....
 04c0 00110d00 030e3a0b 3b0b390b 49133805  ......:.;.9.I.8.
 04d0 00001215 00271900 00131501 27194913  .....'......'.I.
 04e0 01130000 14050049 13000015 26004913  .......I....&.I.
 04f0 00001613 01030e0b 053a0b3b 05390b01  .........:.;.9..
 0500 13000017 0d00030e 3a0b3b05 390b4913  ........:.;.9.I.
 0510 380b0000 180d0003 0e3a0b3b 05390b49  8........:.;.9.I
 0520 13380500 00191301 030e0b0b 3a0b3b05  .8..........:.;.
 0530 390b0113 00001a13 010b0b3a 0b3b0539  9..........:.;.9
 0540 0b011300 001b1701 0b0b3a0b 3b05390b  ..........:.;.9.
 0550 01130000 1c0d0003 0e3a0b3b 05390b49  .........:.;.9.I
 0560 1300001d 1300030e 3c190000 1e150127  ........<......'
 0570 19011300 001f3400 030e3a0b 3b05390b  ......4...:.;.9.
 0580 49133f19 3c190000 20210000 00213400  I.?.<... !...!4.
 0590 030e3a0b 3b0b390b 49133f19 3c190000  ..:.;.9.I.?.<...
 05a0 22260000 00230401 030e3e0b 0b0b4913  "&...#....>...I.
 05b0 3a0b3b0b 390b0113 00002428 00030e1c  :.;.9.....$(....
 05c0 0b000025 0d000308 3a0b3b05 390b4913  ...%....:.;.9.I.
 05d0 380b0000 260d0003 083a0b3b 05390b49  8...&....:.;.9.I
 05e0 13000027 2e013f19 030e3a0b 3b0b390b  ...'..?...:.;.9.
 05f0 27194913 11011206 40189742 19000028  '.I.....@..B...(
 0600 05000308 3a0b3b0b 390b4913 02170000  ....:.;.9.I.....
 0610 29340003 083a0b3b 0b390b49 1300002a  )4...:.;.9.I...*
 0620 3400030e 3a0b3b0b 390b4913 02170000  4...:.;.9.I.....
 0630 2b340003 0e3a0b3b 0b390b49 13021800  +4...:.;.9.I....
 0640 002c0b01 11011206 01130000 2d0b0111  .,..........-...
 0650 01120600 00000111 00100611 01120103  ................
 0660 0e1b0e25 0e130500 0000               ...%......      
Contents of section .debug_aranges:
 0000 1c000000 02000000 00000400 00000000  ................
 0010 00000000 10000000 00000000 00000000  ................
 0020 24000000 02002600 00000400 00000000  $.....&.........
 0030 58010000 d8080000 580f0000 ac010000  X.......X.......
 0040 00000000 00000000 1c000000 02001d0f  ................
 0050 00000400 00000000 a40e0000 90000000  ................
 0060 00000000 00000000 1c000000 0200071c  ................
 0070 00000400 00000000 340f0000 24000000  ........4...$...
 0080 00000000 00000000                    ........        
Contents of section .debug_str:
 0000 7372632f 696e6974 2e73002f 686f6d65  src/init.s./home
 0010 2f737475 64656e74 2f6f7474 65722d70  /student/otter-p
 0020 726f6772 616d732f 6d617a65 00474e55  rograms/maze.GNU
 0030 20415320 322e3331 2e31005f 64736f5f   AS 2.31.1._dso_
 0040 68616e64 6c650056 475f434f 4c4f5200  handle.VG_COLOR.
 0050 5f73697a 65005f72 616e6434 38006e75  _size._rand48.nu
 0060 6d696e00 5f656d65 7267656e 6379005f  min._emergency._
 0070 64617461 005f7763 72746f6d 625f7374  data._wcrtomb_st
 0080 61746500 5f776373 72746f6d 62735f73  ate._wcsrtombs_s
 0090 74617465 005f5f62 75696c74 696e5f6d  tate.__builtin_m
 00a0 656d7365 74006c6f 6e67206c 6f6e6720  emset.long long 
 00b0 756e7369 676e6564 20696e74 0067656e  unsigned int.gen
 00c0 65726174 65005f6c 62667369 7a65005f  erate._lbfsize._
 00d0 5f6c6f63 616c655f 74005f6d 6272746f  _locale_t._mbrto
 00e0 77635f73 74617465 005f7763 746f6d62  wc_state._wctomb
 00f0 5f737461 7465005f 5f746d5f 73656300  _state.__tm_sec.
 0100 6c6f6e67 206c6f6e 6720696e 74005f75  long long int._u
 0110 62756600 78637572 32005f62 61736500  buf.xcur2._base.
 0120 5f5f746d 5f686f75 72005f5f 7366005f  __tm_hour.__sf._
 0130 6f6e5f65 7869745f 61726773 00796375  on_exit_args.ycu
 0140 72005f63 6f6f6b69 65005f5f 73676c75  r._cookie.__sglu
 0150 65005f66 6c616773 005f6973 5f637861  e._flags._is_cxa
 0160 005f7374 64696e00 5f626c6b 73697a65  ._stdin._blksize
 0170 004d415a 45006472 61775f64 6f74005f  .MAZE.draw_dot._
 0180 63767462 7566005f 6f666673 6574005f  cvtbuf._offset._
 0190 6d627372 746f7763 735f7374 61746500  mbsrtowcs_state.
 01a0 5f6d6272 6c656e5f 73746174 65005f66  _mbrlen_state._f
 01b0 6e617267 73005f66 6e73005f 7369676e  nargs._fns._sign
 01c0 00786375 72005f66 6c6f636b 5f74005f  .xcur._flock_t._
 01d0 73746465 7272005f 42696769 6e74005f  stderr._Bigint._
 01e0 67616d6d 615f7369 676e6761 6d005f72  gamma_signgam._r
 01f0 65616400 5f726573 756c745f 6b005f5f  ead._result_k.__
 0200 746d005f 5f776368 62005f73 74646f75  tm.__wchb._stdou
 0210 74006865 69676874 005f6376 746c656e  t.height._cvtlen
 0220 005f6669 6c650056 475f4144 4452005f  ._file.VG_ADDR._
 0230 6e696f62 73007769 64746800 73686f72  niobs.width.shor
 0240 7420756e 7369676e 65642069 6e74005f  t unsigned int._
 0250 61746578 69743000 5f736967 6e616c5f  atexit0._signal_
 0260 62756600 5f617363 74696d65 5f627566  buf._asctime_buf
 0270 005f7265 73756c74 005f5f77 63680077  ._result.__wch.w
 0280 696e745f 74005f6c 6f636b00 5f666c61  int_t._lock._fla
 0290 67733200 636f6c6f 7200474e 55204331  gs2.color.GNU C1
 02a0 3720382e 322e3020 2d6d6172 63683d72  7 8.2.0 -march=r
 02b0 76333269 202d6d61 62693d69 6c703332  v32i -mabi=ilp32
 02c0 202d6720 2d4f3300 5f777269 7465005f   -g -O3._write._
 02d0 5f746d5f 79656172 005f6e6d 616c6c6f  _tm_year._nmallo
 02e0 63005f6e 65787466 005f5f74 6d5f6d6f  c._nextf.__tm_mo
 02f0 6e005f61 74657869 74007375 626f7074  n._atexit.subopt
 0300 61726700 5f5f7364 6964696e 6974005f  arg.__sdidinit._
 0310 6f66665f 74005f66 7265656c 69737400  off_t._freelist.
 0320 5f4c4f43 4b5f5245 43555253 4956455f  _LOCK_RECURSIVE_
 0330 54007372 616e6400 64726177 5f6d617a  T.srand.draw_maz
 0340 65006472 61775f6d 617a6532 00756e73  e.draw_maze2.uns
 0350 69676e65 64206368 6172005f 6e657700  igned char._new.
 0360 5f685f65 72726e6f 0073686f 72742069  _h_errno.short i
 0370 6e74005f 5f746d5f 79646179 005f5f73  nt.__tm_yday.__s
 0380 62756600 5f696f62 73005f5f 46494c45  buf._iobs.__FILE
 0390 005f6d62 73746174 655f7400 77686963  ._mbstate_t.whic
 03a0 68776179 005f5f73 46494c45 005f6d62  hway.__sFILE._mb
 03b0 73746174 65005f72 616e645f 6e657874  state._rand_next
 03c0 005f6d62 6c656e5f 73746174 65005f69  ._mblen_state._i
 03d0 6e63005f 696e6400 696e6974 69616c69  nc._ind.initiali
 03e0 7a65005f 6c6f6361 6c65005f 5f636c65  ze._locale.__cle
 03f0 616e7570 005f756e 73706563 69666965  anup._unspecifie
 0400 645f6c6f 63616c65 5f696e66 6f005f6d  d_locale_info._m
 0410 61787764 73005f72 65656e74 005f7365  axwds._reent._se
 0420 6564005f 5f636f75 6e74005f 5f76616c  ed.__count.__val
 0430 7565005f 7365656b 005f6670 6f735f74  ue._seek._fpos_t
 0440 00535749 54434845 53005f5f 746d5f6d  .SWITCHES.__tm_m
 0450 696e0073 72632f6d 617a652e 63007761  in.src/maze.c.wa
 0460 6974005f 6d756c74 005f7374 72746f6b  it._mult._strtok
 0470 5f6c6173 74005f66 6e747970 6573005f  _last._fntypes._
 0480 61646400 5f5f554c 6f6e6700 5f676574  add.__ULong._get
 0490 64617465 5f657272 005f676c 6f62616c  date_err._global
 04a0 5f696d70 7572655f 70747200 5f756e75  _impure_ptr._unu
 04b0 7365645f 72616e64 004c4544 53005f77  sed_rand.LEDS._w
 04c0 6473005f 5f746d5f 77646179 005f676c  ds.__tm_wday._gl
 04d0 7565005f 7373697a 655f7400 5f6c3634  ue._ssize_t._l64
 04e0 615f6275 66005f73 69675f66 756e6300  a_buf._sig_func.
 04f0 5f6e6275 66005f75 6e757365 64005f5f  _nbuf._unused.__
 0500 746d5f69 73647374 005f6c6f 63616c74  tm_isdst._localt
 0510 696d655f 62756600 5f636c6f 7365005f  ime_buf._close._
 0520 72343800 5f6d6274 6f77635f 73746174  r48._mbtowc_stat
 0530 65005f70 3573006d 61696e00 5f5f746d  e._p5s.main.__tm
 0540 5f6d6461 79007375 63636573 73006874  _mday.success.ht
 0550 61625f68 6173685f 706f696e 74657200  ab_hash_pointer.
 0560 5f646179 6c696768 7400636f 6d706c65  _daylight.comple
 0570 7820646f 75626c65 002e2e2f 2e2e2f2e  x double.../../.
 0580 2e2f2e2f 72697363 762d6763 632f6c69  ././riscv-gcc/li
 0590 62676363 2f636f6e 6669672f 72697363  bgcc/config/risc
 05a0 762f6d75 6c746933 2e630077 5f686967  v/multi3.c.w_hig
 05b0 685f746d 70327800 636f6d70 6c657820  h_tmp2x.complex 
 05c0 6c6f6e67 20646f75 626c6500 72697363  long double.risc
 05d0 765f6162 69005f74 7a6e616d 6500755f  v_abi._tzname.u_
 05e0 6c6f7700 775f6869 67685f74 6d700075  low.w_high_tmp.u
 05f0 6e737065 63765f73 7472696e 67730055  nspecv_strings.U
 0600 53497479 7065005f 7379735f 6572726c  SItype._sys_errl
 0610 69737400 72697363 765f636d 6f64656c  ist.riscv_cmodel
 0620 00775f68 69676800 72697363 765f6162  .w_high.riscv_ab
 0630 695f7479 70650068 61736876 616c5f74  i_type.hashval_t
 0640 00445775 6e696f6e 006e6577 5f775f6c  .DWunion.new_w_l
 0650 6f77005f 5f636c7a 5f746162 005f5f6d  ow.__clz_tab.__m
 0660 756c6469 3300656e 7669726f 6e004142  uldi3.environ.AB
 0670 495f494c 50333244 00414249 5f494c50  I_ILP32D.ABI_ILP
 0680 33324500 44497479 70650075 6e737065  32E.DItype.unspe
 0690 635f7374 72696e67 73005f5f 6f703000  c_strings.__op0.
 06a0 5f5f6f70 31006f70 74726573 65740041  __op1.optreset.A
 06b0 42495f49 4c503332 46007269 7363765f  BI_ILP32F.riscv_
 06c0 636f6465 5f6d6f64 656c006f 7074696e  code_model.optin
 06d0 6400636f 6d706c65 7820666c 6f617400  d.complex float.
 06e0 44577374 72756374 00474e55 20433137  DWstruct.GNU C17
 06f0 20382e32 2e30202d 6d636d6f 64656c3d   8.2.0 -mcmodel=
 0700 6d65646c 6f77202d 6d636d6f 64656c3d  medlow -mcmodel=
 0710 6d65646c 6f77202d 6d617263 683d7276  medlow -march=rv
 0720 33326920 2d6d6162 693d696c 70333220  32i -mabi=ilp32 
 0730 2d67202d 4f73202d 4f32202d 4f73202d  -g -Os -O2 -Os -
 0740 66627569 6c64696e 672d6c69 62676363  fbuilding-libgcc
 0750 202d666e 6f2d7374 61636b2d 70726f74   -fno-stack-prot
 0760 6563746f 72202d66 76697369 62696c69  ector -fvisibili
 0770 74793d68 69646465 6e005f74 696d657a  ty=hidden._timez
 0780 6f6e6500 63617272 79004142 495f4c50  one.carry.ABI_LP
 0790 36340041 42495f49 4c503332 00434d5f  64.ABI_ILP32.CM_
 07a0 4d454441 4e590043 4d5f4d45 444c4f57  MEDANY.CM_MEDLOW
 07b0 00687461 625f6861 7368005f 7379735f  .htab_hash._sys_
 07c0 6e657272 00755f6c 6f775f6d 73620076  nerr.u_low_msb.v
 07d0 5f6c6f77 006f7074 65727200 434d5f50  _low.opterr.CM_P
 07e0 49430068 7461625f 65715f70 6f696e74  IC.htab_eq_point
 07f0 6572002f 686f6d65 2f737475 64656e74  er./home/student
 0800 2f726973 63762d74 6f6f6c73 2f726973  /riscv-tools/ris
 0810 63762d67 6e752d74 6f6f6c63 6861696e  cv-gnu-toolchain
 0820 2f627569 6c642d67 63632d6e 65776c69  /build-gcc-newli
 0830 622d7374 61676532 2f726973 63763332  b-stage2/riscv32
 0840 2d756e6b 6e6f776e 2d656c66 2f6c6962  -unknown-elf/lib
 0850 67636300 5f5f706f 70636f75 6e745f74  gcc.__popcount_t
 0860 61620041 42495f4c 50363444 006f7074  ab.ABI_LP64D.opt
 0870 6f707400 4142495f 4c503634 46005551  opt.ABI_LP64F.UQ
 0880 49747970 65006874 61625f65 71002e2e  Itype.htab_eq...
 0890 2f2e2e2f 2e2e2f2e 2f726973 63762d67  /../.././riscv-g
 08a0 63632f6c 69626763 632f636f 6e666967  cc/libgcc/config
 08b0 2f726973 63762f6d 756c6469 332e5300  /riscv/muldi3.S.
Contents of section .debug_loc:
 0000 bc040000 2c050000 0200319f 2c050000  ....,.....1.,...
 0010 50060000 0100695c 06000058 07000001  P.....i\...X....
 0020 00695807 00005c07 00000300 857f9f5c  .iX...\........\
 0030 07000060 07000001 0069e007 0000ec08  ...`.....i......
 0040 00000100 69ec0800 00f40800 00030085  ....i...........
 0050 7f9ff408 0000f808 00000100 69180900  ............i...
 0060 00300a00 00010069 00000000 00000000  .0.....i........
 0070 bc040000 2c050000 0200319f 2c050000  ....,.....1.,...
 0080 60070000 010066e0 07000044 08000001  `.....f....D....
 0090 00664c08 00009008 00000100 66900800  .fL.........f...
 00a0 00980800 0001005a 98080000 f8080000  .......Z........
 00b0 01006618 09000030 0a000001 00660000  ..f....0.....f..
 00c0 00000000 00000c07 00003007 00000100  ..........0.....
 00d0 5ae00700 00f00700 0001005a 4c080000  Z..........ZL...
 00e0 54080000 01005a98 080000bc 08000001  T.....Z.........
 00f0 005a4809 0000300a 00000100 5a000000  .ZH...0.....Z...
 0100 00000000 00f40600 00340700 00020030  .........4.....0
 0110 9f340700 00e00700 00020031 9fe00700  .4.........1....
 0120 00040800 00020030 9f040800 004c0800  .......0.....L..
 0130 00020031 9f4c0800 00700800 00020030  ...1.L...p.....0
 0140 9f700800 00980800 00020031 9f980800  .p.........1....
 0150 00a40800 00020030 9fa40800 00180900  .......0........
 0160 00020031 9f300900 00780900 00020030  ...1.0...x.....0
 0170 9f780900 00980900 00020031 9f980900  .x.........1....
 0180 00ac0900 00020030 9fac0900 00b80900  .......0........
 0190 00020031 9fb80900 00d00900 00020030  ...1...........0
 01a0 9fd00900 00dc0900 00020031 9fdc0900  ...........1....
 01b0 00ec0900 00020030 9fec0900 00300a00  .......0.....0..
 01c0 00020031 9f000000 00000000 000c0600  ...1............
 01d0 00300600 00010069 50060000 c8060000  .0.....iP.......
 01e0 01006900 00000000 000000d8 0f0000dc  ..i.............
 01f0 0f000002 00309fdc 0f00002c 10000001  .....0.....,....
 0200 005c6010 00000411 00000100 5c000000  .\`.........\...
 0210 00000000 00dc0f00 00ec0f00 00020030  ...............0
 0220 9fec0f00 001c1000 0001005a 1c100000  ...........Z....
 0230 20100000 03007a01 9f601000 006c1000   .....z..`...l..
 0240 0001005a 78100000 84100000 0200309f  ...Zx.........0.
 0250 84100000 a4100000 01005ba4 100000ac  ..........[.....
 0260 10000003 007b019f ac100000 d4100000  .....{..........
 0270 01005bd4 100000d8 10000003 007b019f  ..[..........{..
 0280 d8100000 e0100000 01005be0 100000e8  ..........[.....
 0290 10000002 00309f00 00000000 00000048  .....0.........H
 02a0 02000078 02000002 00309f78 02000088  ...x.....0.x....
 02b0 03000001 006f0000 00000000 00007802  .....o........x.
 02c0 00008c02 00000200 309f8c02 00008803  ........0.......
 02d0 00000100 5f000000 00000000 00cc0200  ...._...........
 02e0 00d00200 00030008 ff9f0000 00000000  ................
 02f0 0000cc02 0000d002 00000100 6f000000  ............o...
 0300 00000000 00cc0200 00d00200 0001005f  ..............._
 0310 00000000 00000000 28030000 30030000  ........(...0...
 0320 0200309f 70030000 78030000 0200309f  ..0.p...x.....0.
 0330 00000000 00000000 28030000 30030000  ........(...0...
 0340 01006f70 03000078 03000001 006f0000  ..op...x.....o..
 0350 00000000 00002803 00003003 00000100  ......(...0.....
 0360 5f700300 00780300 0001005f 00000000  _p...x....._....
 0370 00000000 30030000 40030000 0200309f  ....0...@.....0.
 0380 00000000 00000000 30030000 40030000  ........0...@...
 0390 01006f00 00000000 00000030 03000040  ..o........0...@
 03a0 03000001 005f0000 00000000 00005801  ....._........X.
 03b0 00007801 00000200 309f7801 00004802  ..x.....0.x...H.
 03c0 00000100 6d000000 00000000 00780100  ....m........x..
 03d0 008c0100 00020030 9f8c0100 00480200  .......0.....H..
 03e0 0001005f 00000000 00000000 cc010000  ..._............
 03f0 d0010000 030008ff 9f000000 00000000  ................
 0400 00cc0100 00d00100 0001006d 00000000  ...........m....
 0410 00000000 cc010000 d0010000 01005f00  .............._.
 0420 00000000 0000001c 02000024 02000002  ...........$....
 0430 00309f40 02000048 02000002 00309f00  .0.@...H.....0..
 0440 00000000 0000001c 02000024 02000001  ...........$....
 0450 006d4002 00004802 00000100 6d000000  .m@...H.....m...
 0460 00000000 001c0200 00240200 0001005f  .........$....._
 0470 40020000 48020000 01005f00 00000000  @...H....._.....
 0480 00000024 02000034 02000002 00309f00  ...$...4.....0..
 0490 00000000 00000024 02000034 02000001  .......$...4....
 04a0 006d0000 00000000 00002402 00003402  .m........$...4.
 04b0 00000100 5f000000 00000000 00c00300  ...._...........
 04c0 00d00300 00020030 9fd00300 00dc0300  .......0........
 04d0 00010056 34040000 4c040000 0100564c  ...V4...L.....VL
 04e0 04000058 04000002 00319fa4 040000ac  ...X.....1......
 04f0 04000001 00560000 00000000 0000d003  .....V..........
 0500 0000dc03 00000200 309fe803 0000ec03  ........0.......
 0510 00000100 5dec0300 00f00300 0003007d  ....]..........}
 0520 019ff803 00003004 00000100 5d300400  ......0.....]0..
 0530 00340400 0003007d 019f6804 00006c04  .4.....}..h...l.
 0540 00000100 5c6c0400 00700400 0003007c  ....\l...p.....|
 0550 019f7804 00009c04 00000100 5c9c0400  ..x.........\...
 0560 00a00400 0003007c 019fa004 0000ac04  .......|........
 0570 00000300 7d019fac 040000bc 04000003  ....}...........
 0580 007c019f 00000000 00000000 00000000  .|..............
 0590 24000000 06005a93 045b9304 24000000  $.....Z..[..$...
 05a0 90000000 0600f303 f50a259f 00000000  ..........%.....
 05b0 00000000 00000000 64000000 06005c93  ........d.....\.
 05c0 045d9304 64000000 90000000 0600f303  .]..d...........
 05d0 f50c259f 00000000 00000000 14000000  ..%.............
 05e0 24000000 01005a24 00000054 00000001  $.....Z$...T....
 05f0 00610000 00000000 00001400 00002400  .a............$.
 0600 00000100 5c240000 00640000 0001005d  ....\$...d.....]
 0610 00000000 00000000 14000000 24000000  ............$...
 0620 0200309f 24000000 34000000 01006034  ..0.$...4.....`4
 0630 00000044 00000001 005a4400 00009000  ...D.....ZD.....
 0640 00000100 60000000 00000000 00240000  ....`........$..
 0650 00340000 00060081 00800022 9f340000  .4.........".4..
 0660 00440000 0001005a 00000000 00000000  .D.....Z........
 0670 14000000 24000000 0200309f 24000000  ....$.....0.$...
 0680 3c000000 01005f40 00000068 00000001  <....._@...h....
 0690 005f0000 00000000 00001400 00002400  ._............$.
 06a0 00000200 309f2400 00002c00 00000100  ....0.$...,.....
 06b0 5e2c0000 003c0000 0006007f 007e0022  ^,...<.......~."
 06c0 9f3c0000 00400000 0001005f 54000000  .<...@....._T...
 06d0 90000000 01005e00 00000000 00000034  ......^........4
 06e0 00000038 00000011 00800040 4b24227a  ...8.......@K$"z
 06f0 00404b24 222b08ff 1a9f0000 00000000  .@K$"+..........
 0700 0000                                 ..              
Contents of section .debug_ranges:
 0000 58010000 e0010000 e4010000 48020000  X...........H...
 0010 00000000 00000000 58010000 5c010000  ........X...\...
 0020 60010000 74010000 78010000 d8010000  `...t...x.......
 0030 e4010000 48020000 00000000 00000000  ....H...........
 0040 84010000 88010000 cc010000 d0010000  ................
 0050 00000000 00000000 14020000 18020000  ................
 0060 1c020000 24020000 40020000 48020000  ....$...@...H...
 0070 00000000 00000000 48020000 48020000  ........H...H...
 0080 4c020000 50020000 58020000 e0020000  L...P...X.......
 0090 f0020000 88030000 00000000 00000000  ................
 00a0 4c020000 50020000 5c020000 74020000  L...P...\...t...
 00b0 78020000 d8020000 f0020000 88030000  x...............
 00c0 00000000 00000000 6c020000 70020000  ........l...p...
 00d0 7c030000 88030000 00000000 00000000  |...............
 00e0 84020000 88020000 cc020000 d0020000  ................
 00f0 00000000 00000000 1c030000 20030000  ............ ...
 0100 28030000 30030000 70030000 78030000  (...0...p...x...
 0110 00000000 00000000 cc030000 e0030000  ................
 0120 e8030000 4c040000 60040000 a0040000  ....L...`.......
 0130 00000000 00000000 30060000 54060000  ........0...T...
 0140 58060000 5c060000 00000000 00000000  X...\...........
 0150 b80f0000 bc0f0000 d00f0000 2c100000  ............,...
 0160 60100000 e0100000 e8100000 04110000  `...............
 0170 00000000 00000000 b80f0000 bc0f0000  ................
 0180 d80f0000 2c100000 60100000 e0100000  ....,...`.......
 0190 e8100000 04110000 00000000 00000000  ................
 01a0 b80f0000 bc0f0000 ec0f0000 24100000  ............$...
 01b0 60100000 78100000 7c100000 80100000  `...x...|.......
 01c0 84100000 e0100000 e8100000 04110000  ................
 01d0 00000000 00000000 58010000 300a0000  ........X...0...
 01e0 580f0000 04110000 00000000 00000000  X...............
Contents of section .debug_frame:
 0000 0c000000 ffffffff 0100017c 010d0200  ...........|....
 0010 0c000000 00000000 58010000 f0000000  ........X.......
 0020 20000000 00000000 48020000 40010000   .......H...@...
 0030 440e104c 88018902 028c0ac8 44c9440e  D..L........D.D.
 0040 00440b00 0c000000 00000000 88030000  .D..............
 0050 04000000 20000000 00000000 8c030000  .... ...........
 0060 30010000 4c0e1054 88028101 030401c1  0...L..T........
 0070 44c8440e 00000000 50000000 00000000  D.D.....P.......
 0080 bc040000 74050000 440e5048 97090248  ....t...D.PH...H
 0090 89039204 9608990b 9a0c9b0d 81018802  ................
 00a0 93059406 9507980a 0398020a c144c844  .............D.D
 00b0 c944d244 d344d444 d544d644 d744d844  .D.D.D.D.D.D.D.D
 00c0 d944da44 db440e00 440b0000 28000000  .D.D.D..D...(...
 00d0 00000000 580f0000 ac010000 4c0e304c  ....X.......L.0L
 00e0 89039406 95076888 02920493 05960897  ......h.........
 00f0 09980a81 01000000 0c000000 ffffffff  ................
 0100 0100017c 010d0200 18000000 f8000000  ...|............
 0110 a40e0000 90000000 440e1048 81010274  ........D..H...t
 0120 c14c0e00                             .L..            

Disassembly of section .text.init:

00000000 <entry>:
# This code is executed first.

.section .text.init
entry:

    la    sp, __sp-32   # set up the stack pointer, using a constant defined in the linker script.
   0:	auipc	sp,0x10
   4:	addi	sp,sp,-32 # ffe0 <__frame_dummy_init_array_entry+0xd7a0>
  
 #   call _start		# use this if using C runtime, std c library
  
    call  main          # call the main function if barebones assembly/C
   8:	jal	ra,f58 <main>

0000000c <end>:

end:
    j end               # loop when finished if there is no environment to return to.
   c:	j	c <end>

Disassembly of section .text:

00000010 <_start>:
  10:	auipc	gp,0x1
  14:	addi	gp,gp,1864 # 1758 <__global_pointer$>
  18:	auipc	a0,0x3
  1c:	addi	a0,a0,-2016 # 2838 <_edata>
  20:	auipc	a2,0x3
  24:	addi	a2,a2,-2024 # 2838 <_edata>
  28:	sub	a2,a2,a0
  2c:	li	a1,0
  30:	jal	ra,b7c <memset>
  34:	auipc	a0,0x1
  38:	addi	a0,a0,-1468 # a78 <__libc_fini_array>
  3c:	jal	ra,a30 <atexit>
  40:	jal	ra,ad4 <__libc_init_array>
  44:	lw	a0,0(sp)
  48:	addi	a1,sp,4
  4c:	li	a2,0
  50:	jal	ra,f58 <main>
  54:	j	a44 <exit>

00000058 <_fini>:
  58:	ret

0000005c <deregister_tm_clones>:
  5c:	lui	a0,0x3
  60:	lui	a5,0x3
  64:	addi	a4,a0,-1988 # 283c <__TMC_END__>
  68:	addi	a5,a5,-1988 # 283c <__TMC_END__>
  6c:	beq	a5,a4,84 <deregister_tm_clones+0x28>
  70:	lui	t1,0x0
  74:	mv	t1,t1
  78:	beqz	t1,84 <deregister_tm_clones+0x28>
  7c:	addi	a0,a0,-1988
  80:	jr	t1 # 0 <entry>
  84:	ret

00000088 <register_tm_clones>:
  88:	lui	a5,0x3
  8c:	lui	a0,0x3
  90:	addi	a1,a5,-1988 # 283c <__TMC_END__>
  94:	addi	a5,a0,-1988 # 283c <__TMC_END__>
  98:	sub	a1,a1,a5
  9c:	srai	a1,a1,0x2
  a0:	srli	a5,a1,0x1f
  a4:	add	a1,a5,a1
  a8:	srai	a1,a1,0x1
  ac:	beqz	a1,c4 <register_tm_clones+0x3c>
  b0:	lui	t1,0x0
  b4:	mv	t1,t1
  b8:	beqz	t1,c4 <register_tm_clones+0x3c>
  bc:	addi	a0,a0,-1988
  c0:	jr	t1 # 0 <entry>
  c4:	ret

000000c8 <__do_global_dtors_aux>:
  c8:	lui	a5,0x2
  cc:	lbu	a4,968(a5) # 23c8 <completed.5430>
  d0:	bnez	a4,11c <__do_global_dtors_aux+0x54>
  d4:	addi	sp,sp,-16
  d8:	sw	s0,8(sp)
  dc:	sw	ra,12(sp)
  e0:	mv	s0,a5
  e4:	jal	ra,5c <deregister_tm_clones>
  e8:	lui	a5,0x0
  ec:	mv	a5,a5
  f0:	beqz	a5,104 <__do_global_dtors_aux+0x3c>
  f4:	lui	a0,0x3
  f8:	addi	a0,a0,-1992 # 2838 <_edata>
  fc:	auipc	ra,0x0
 100:	jalr	zero # 0 <entry>
 104:	li	a5,1
 108:	sb	a5,968(s0)
 10c:	lw	ra,12(sp)
 110:	lw	s0,8(sp)
 114:	addi	sp,sp,16
 118:	ret
 11c:	ret

00000120 <frame_dummy>:
 120:	lui	a5,0x0
 124:	mv	a5,a5
 128:	beqz	a5,154 <frame_dummy+0x34>
 12c:	lui	a1,0x2
 130:	lui	a0,0x3
 134:	addi	sp,sp,-16
 138:	addi	a1,a1,972 # 23cc <object.5435>
 13c:	addi	a0,a0,-1992 # 2838 <_edata>
 140:	sw	ra,12(sp)
 144:	auipc	ra,0x0
 148:	jalr	zero # 0 <entry>
 14c:	lw	ra,12(sp)
 150:	addi	sp,sp,16
 154:	j	88 <register_tm_clones>

00000158 <draw_maze>:
					if((in(MAZE[x/2+1][y/2+1]))==1) WHITE; else BLACK;
				//}
			}else if(x%2 == 0 && y%2 == 0){
				BLACK;
			}else if(x%2 == 0 && y%2 == 1){
				if((left(MAZE[x/2+1][y/2+1]))==1) BLACK; else WHITE;
 158:	lui	t1,0x1
	for(int y = 0; y <= height - 1; y++){
 15c:	li	t4,0
				if((left(MAZE[x/2+1][y/2+1]))==1) BLACK; else WHITE;
 160:	addi	t1,t1,264 # 1108 <MAZE>

}


static void draw_dot(int X, int Y, int color){
	*VG_ADDR = (Y<<7) | X;
 164:	lui	a6,0x11100
	*VG_COLOR = color;
 168:	lui	a0,0x11140
 16c:	li	t3,255
		for(int x = 0; x <= width - 1; x++){
 170:	li	a3,77
	for(int y = 0; y <= height - 1; y++){
 174:	li	t5,57
				if((up(MAZE[x/2+1][y/2+1]))==1) BLACK; else WHITE;
 178:	srai	a7,t4,0x1
			if(x%2 == 1 && y%2 == 1){
 17c:	andi	a2,t4,1
				if((up(MAZE[x/2+1][y/2+1]))==1) BLACK; else WHITE;
 180:	addi	a7,a7,1
	*VG_ADDR = (Y<<7) | X;
 184:	slli	a1,t4,0x7
		for(int x = 0; x <= width - 1; x++){
 188:	li	a5,0
			if(x%2 == 1 && y%2 == 1){
 18c:	andi	a4,a5,1
 190:	bnez	a4,1e4 <draw_maze+0x8c>
			}else if(x%2 == 0 && y%2 == 0){
 194:	beqz	a2,224 <draw_maze+0xcc>
				if((left(MAZE[x/2+1][y/2+1]))==1) BLACK; else WHITE;
 198:	srai	a4,a5,0x1
 19c:	addi	t6,a4,1
 1a0:	slli	a4,t6,0x4
 1a4:	sub	a4,a4,t6
 1a8:	slli	a4,a4,0x1
 1ac:	add	a4,a4,a7
 1b0:	slli	a4,a4,0x2
 1b4:	add	a4,a4,t1
 1b8:	lw	a4,0(a4)
 1bc:	or	t6,a1,a5
	*VG_ADDR = (Y<<7) | X;
 1c0:	sw	t6,0(a6) # 11100000 <__sp+0x110f0000>
				if((left(MAZE[x/2+1][y/2+1]))==1) BLACK; else WHITE;
 1c4:	andi	a4,a4,4
 1c8:	bnez	a4,21c <draw_maze+0xc4>
	*VG_COLOR = color;
 1cc:	sw	t3,0(a0) # 11140000 <__sp+0x11130000>
		for(int x = 0; x <= width - 1; x++){
 1d0:	addi	a5,a5,1 # 1 <entry+0x1>
 1d4:	bne	a5,a3,18c <draw_maze+0x34>
	for(int y = 0; y <= height - 1; y++){
 1d8:	addi	t4,t4,1
 1dc:	bne	t4,t5,178 <draw_maze+0x20>
}
 1e0:	ret
					if((in(MAZE[x/2+1][y/2+1]))==1) WHITE; else BLACK;
 1e4:	srai	a4,a5,0x1
 1e8:	addi	t6,a4,1
 1ec:	slli	a4,t6,0x4
 1f0:	sub	a4,a4,t6
 1f4:	slli	a4,a4,0x1
 1f8:	add	a4,a4,a7
 1fc:	slli	a4,a4,0x2
 200:	add	a4,a4,t1
 204:	lw	a4,0(a4)
 208:	or	t6,a1,a5
			if(x%2 == 1 && y%2 == 1){
 20c:	bnez	a2,234 <draw_maze+0xdc>
				if((up(MAZE[x/2+1][y/2+1]))==1) BLACK; else WHITE;
 210:	andi	a4,a4,2
	*VG_ADDR = (Y<<7) | X;
 214:	sw	t6,0(a6)
				if((up(MAZE[x/2+1][y/2+1]))==1) BLACK; else WHITE;
 218:	beqz	a4,1cc <draw_maze+0x74>
	*VG_COLOR = color;
 21c:	sw	zero,0(a0)
 220:	j	1d0 <draw_maze+0x78>
	*VG_ADDR = (Y<<7) | X;
 224:	or	a4,a1,a5
 228:	sw	a4,0(a6)
	*VG_COLOR = color;
 22c:	sw	zero,0(a0)
 230:	j	1d0 <draw_maze+0x78>
					if((in(MAZE[x/2+1][y/2+1]))==1) WHITE; else BLACK;
 234:	andi	a4,a4,1
	*VG_ADDR = (Y<<7) | X;
 238:	sw	t6,0(a6)
					if((in(MAZE[x/2+1][y/2+1]))==1) WHITE; else BLACK;
 23c:	bnez	a4,1cc <draw_maze+0x74>
	*VG_COLOR = color;
 240:	sw	zero,0(a0)
 244:	j	1d0 <draw_maze+0x78>

00000248 <draw_maze2>:
{
 248:	addi	sp,sp,-16
				if((left(MAZE[x/2+1][y/2+1]))==1) BLACK; else WHITE;
 24c:	lui	t4,0x1
{
 250:	sw	s0,12(sp)
 254:	sw	s1,8(sp)
	for(int y = 0; y <= height - 1; y++){
 258:	li	t6,0
				if((left(MAZE[x/2+1][y/2+1]))==1) BLACK; else WHITE;
 25c:	addi	t4,t4,264 # 1108 <MAZE>
	*VG_ADDR = (Y<<7) | X;
 260:	lui	t1,0x11100
	*VG_COLOR = color;
 264:	lui	a7,0x11140
 268:	li	t5,255
 26c:	li	t0,224
		for(int x = 0; x <= width - 1; x++){
 270:	li	a3,77
	for(int y = 0; y <= height - 1; y++){
 274:	li	t2,57
				if((up(MAZE[x/2+1][y/2+1]))==1) BLACK; else WHITE;
 278:	srai	t3,t6,0x1
			if(x%2 == 1 && y%2 == 1){
 27c:	andi	a2,t6,1
				if((up(MAZE[x/2+1][y/2+1]))==1) BLACK; else WHITE;
 280:	addi	t3,t3,1
	*VG_ADDR = (Y<<7) | X;
 284:	slli	a6,t6,0x7
		for(int x = 0; x <= width - 1; x++){
 288:	li	a5,0
			if(x%2 == 1 && y%2 == 1){
 28c:	andi	a4,a5,1
 290:	bnez	a4,2f0 <draw_maze2+0xa8>
			}else if(x%2 == 0 && y%2 == 0){
 294:	beqz	a2,330 <draw_maze2+0xe8>
				if((left(MAZE[x/2+1][y/2+1]))==1) BLACK; else WHITE;
 298:	srai	a4,a5,0x1
 29c:	addi	s0,a4,1
 2a0:	slli	a4,s0,0x4
 2a4:	sub	a4,a4,s0
 2a8:	slli	a4,a4,0x1
 2ac:	add	a4,a4,t3
 2b0:	slli	a4,a4,0x2
 2b4:	add	a4,a4,t4
 2b8:	lw	a4,0(a4)
 2bc:	or	s0,a6,a5
	*VG_ADDR = (Y<<7) | X;
 2c0:	sw	s0,0(t1) # 11100000 <__sp+0x110f0000>
				if((left(MAZE[x/2+1][y/2+1]))==1) BLACK; else WHITE;
 2c4:	andi	a4,a4,4
 2c8:	bnez	a4,328 <draw_maze2+0xe0>
	*VG_COLOR = color;
 2cc:	sw	t5,0(a7) # 11140000 <__sp+0x11130000>
		for(int x = 0; x <= width - 1; x++){
 2d0:	addi	a5,a5,1
 2d4:	bne	a5,a3,28c <draw_maze2+0x44>
	for(int y = 0; y <= height - 1; y++){
 2d8:	addi	t6,t6,1
 2dc:	bne	t6,t2,278 <draw_maze2+0x30>
}
 2e0:	lw	s0,12(sp)
 2e4:	lw	s1,8(sp)
 2e8:	addi	sp,sp,16
 2ec:	ret
				if(x/2+1 == xcur && y/2+1 == ycur) RED;
 2f0:	srai	a4,a5,0x1
 2f4:	addi	s0,a4,1
			if(x%2 == 1 && y%2 == 1){
 2f8:	bnez	a2,340 <draw_maze2+0xf8>
				if((up(MAZE[x/2+1][y/2+1]))==1) BLACK; else WHITE;
 2fc:	slli	a4,s0,0x4
 300:	sub	a4,a4,s0
 304:	slli	a4,a4,0x1
 308:	add	a4,a4,t3
 30c:	slli	a4,a4,0x2
 310:	add	a4,a4,t4
 314:	lw	a4,0(a4)
 318:	or	s0,a6,a5
	*VG_ADDR = (Y<<7) | X;
 31c:	sw	s0,0(t1)
				if((up(MAZE[x/2+1][y/2+1]))==1) BLACK; else WHITE;
 320:	andi	a4,a4,2
 324:	beqz	a4,2cc <draw_maze2+0x84>
	*VG_COLOR = color;
 328:	sw	zero,0(a7)
 32c:	j	2d0 <draw_maze2+0x88>
	*VG_ADDR = (Y<<7) | X;
 330:	or	a4,a6,a5
 334:	sw	a4,0(t1)
	*VG_COLOR = color;
 338:	sw	zero,0(a7)
 33c:	j	2d0 <draw_maze2+0x88>
				if(x/2+1 == xcur && y/2+1 == ycur) RED;
 340:	or	s1,a6,a5
 344:	beq	s0,a0,378 <draw_maze2+0x130>
					if((in(MAZE[x/2+1][y/2+1]))==1) WHITE; else BLACK;
 348:	slli	a4,s0,0x4
 34c:	sub	a4,a4,s0
 350:	slli	a4,a4,0x1
 354:	add	a4,a4,t3
 358:	slli	a4,a4,0x2
 35c:	add	a4,a4,t4
 360:	lw	a4,0(a4)
	*VG_ADDR = (Y<<7) | X;
 364:	sw	s1,0(t1)
					if((in(MAZE[x/2+1][y/2+1]))==1) WHITE; else BLACK;
 368:	andi	a4,a4,1
 36c:	bnez	a4,2cc <draw_maze2+0x84>
	*VG_COLOR = color;
 370:	sw	zero,0(a7)
 374:	j	2d0 <draw_maze2+0x88>
				if(x/2+1 == xcur && y/2+1 == ycur) RED;
 378:	bne	t3,a1,348 <draw_maze2+0x100>
	*VG_ADDR = (Y<<7) | X;
 37c:	sw	s1,0(t1)
	*VG_COLOR = color;
 380:	sw	t0,0(a7)
 384:	j	2d0 <draw_maze2+0x88>

00000388 <wait>:
}
 388:	ret

0000038c <initialize>:
	for(int x=0;x<xsize;x++)
 38c:	lui	a5,0x1
 390:	lui	a2,0x1
void initialize(){
 394:	addi	sp,sp,-16
 398:	addi	a2,a2,704 # 12c0 <MAZE+0x1b8>
 39c:	li	a1,0
 3a0:	addi	a0,a5,264 # 1108 <MAZE>
 3a4:	sw	s0,8(sp)
 3a8:	sw	ra,12(sp)
 3ac:	addi	s0,a5,264
 3b0:	jal	ra,b7c <memset>
	numin=1;
 3b4:	lui	a4,0x3
 3b8:	li	a3,1
 3bc:	sw	a3,-2028(a4) # 2814 <numin>
	for(int x=0;x<xsize;x++){
 3c0:	addi	a0,s0,120
 3c4:	li	t1,0
 3c8:	li	t3,39
		for(int y=0;y<ysize;y++){
 3cc:	li	a7,29
 3d0:	addi	a4,a0,-120
 3d4:	beqz	t1,434 <initialize+0xa8>
 3d8:	beq	t1,t3,458 <initialize+0xcc>
 3dc:	addi	a2,a0,-120
	for(int x=0;x<xsize;x++){
 3e0:	li	a3,0
 3e4:	j	3f8 <initialize+0x6c>
			left_w(MAZE[x][y], ((x==0||y==0||y==ysize-1)?0:1));
 3e8:	sw	a5,0(a2)
		for(int y=0;y<ysize;y++){
 3ec:	beq	a3,a7,4a0 <initialize+0x114>
 3f0:	addi	a3,a3,1
 3f4:	addi	a2,a2,4
			in_w(MAZE[x][y],  (x==0||x==xsize-1||y==0||y==ysize-1)?1:0);
 3f8:	lw	a1,0(a2)
 3fc:	addi	a4,a3,-29
 400:	seqz	a5,a4
 404:	andi	a6,a1,-2
 408:	or	a5,a5,a6
			left_w(MAZE[x][y], ((x==0||y==0||y==ysize-1)?0:1));
 40c:	snez	a4,a4
 410:	andi	a5,a5,-7
 414:	slli	a4,a4,0x2
 418:	ori	a5,a5,2
 41c:	or	a5,a5,a4
			in_w(MAZE[x][y],  (x==0||x==xsize-1||y==0||y==ysize-1)?1:0);
 420:	bnez	a3,3e8 <initialize+0x5c>
			left_w(MAZE[x][y], ((x==0||y==0||y==ysize-1)?0:1));
 424:	andi	a1,a1,-8
 428:	ori	a1,a1,1
 42c:	sw	a1,0(a2)
 430:	j	3f0 <initialize+0x64>
 434:	lw	a5,0(a4)
 438:	addi	a4,a4,4
 43c:	andi	a5,a5,-8
 440:	ori	a5,a5,1
 444:	sw	a5,-4(a4)
		for(int y=0;y<ysize;y++){
 448:	bne	a0,a4,434 <initialize+0xa8>
	for(int x=0;x<xsize;x++){
 44c:	li	t1,1
 450:	addi	a0,a0,120
 454:	bne	t1,t3,3dc <initialize+0x50>
 458:	addi	a4,a0,-120
 45c:	li	a2,0
		for(int y=0;y<ysize;y++){
 460:	li	a1,29
 464:	j	478 <initialize+0xec>
			left_w(MAZE[x][y], ((x==0||y==0||y==ysize-1)?0:1));
 468:	sw	a5,0(a4)
		for(int y=0;y<ysize;y++){
 46c:	beq	a2,a1,4ac <initialize+0x120>
 470:	addi	a2,a2,1
 474:	addi	a4,a4,4
			left_w(MAZE[x][y], ((x==0||y==0||y==ysize-1)?0:1));
 478:	lw	a3,0(a4)
 47c:	addi	a5,a2,-29
 480:	snez	a5,a5
 484:	andi	a3,a3,-8
 488:	slli	a5,a5,0x2
 48c:	ori	a3,a3,1
 490:	or	a5,a5,a3
 494:	bnez	a2,468 <initialize+0xdc>
 498:	sw	a3,0(a4)
 49c:	j	470 <initialize+0xe4>
	for(int x=0;x<xsize;x++){
 4a0:	addi	t1,t1,1
 4a4:	addi	a0,a0,120
 4a8:	j	3d0 <initialize+0x44>
}
 4ac:	lw	ra,12(sp)
 4b0:	lw	s0,8(sp)
 4b4:	addi	sp,sp,16
 4b8:	ret

000004bc <generate>:
void generate(){
 4bc:	addi	sp,sp,-80
	in_w(MAZE[xcur][ycur],1);
 4c0:	lui	a6,0x1
void generate(){
 4c4:	sw	s7,44(sp)
	in_w(MAZE[xcur][ycur],1);
 4c8:	addi	s7,a6,264 # 1108 <MAZE>
 4cc:	lw	a5,124(s7)
					prevx_w(MAZE[xcur-1][ycur],xcur);
 4d0:	lui	a4,0xffff0
void generate(){
 4d4:	sw	s1,68(sp)
	in_w(MAZE[xcur][ycur],1);
 4d8:	ori	a5,a5,1
 4dc:	sw	a5,124(s7)
					prevx_w(MAZE[xcur][ycur+1],xcur);
 4e0:	addi	a5,a4,509 # ffff01fd <__sp+0xfffe01fd>
void generate(){
 4e4:	sw	s2,64(sp)
 4e8:	sw	s6,48(sp)
 4ec:	sw	s9,36(sp)
 4f0:	sw	s10,32(sp)
 4f4:	sw	s11,28(sp)
 4f8:	sw	ra,76(sp)
 4fc:	sw	s0,72(sp)
 500:	sw	s3,60(sp)
 504:	sw	s4,56(sp)
 508:	sw	s5,52(sp)
 50c:	sw	s8,40(sp)
	int xcur=1, ycur=1;	//start growing from the corner. It could theoretically start growing from anywhere, doesn't matter.
 510:	li	s6,1
 514:	li	s9,1
 518:	li	s10,16
 51c:	li	s11,1
 520:	li	s2,2
 524:	li	s1,3
					prevx_w(MAZE[xcur][ycur+1],xcur);
 528:	sw	a5,0(sp)
		if( in(MAZE[xcur][ycur-1])&&in(MAZE[xcur][ycur+1])&&
 52c:	sub	a3,s10,s9
 530:	addi	s0,s6,-1
 534:	slli	a3,a3,0x1
 538:	add	a1,a3,s0
 53c:	slli	a1,a1,0x2
 540:	add	a1,s7,a1
 544:	lw	a1,0(a1)
 548:	andi	a1,a1,1
 54c:	beqz	a1,6c8 <generate+0x20c>
 550:	addi	s8,s6,1
 554:	add	s4,a3,s8
 558:	slli	s4,s4,0x2
 55c:	add	s4,s7,s4
 560:	lw	a1,0(s4)
 564:	andi	a1,a1,1
 568:	beqz	a1,6c8 <generate+0x20c>
			   in(MAZE[xcur-1][ycur])&&in(MAZE[xcur+1][ycur]) ){
 56c:	addi	s5,s9,-1
 570:	slli	a1,s5,0x4
 574:	sub	a1,a1,s5
 578:	slli	a1,a1,0x1
 57c:	add	a1,a1,s6
 580:	slli	a1,a1,0x2
 584:	add	a1,s7,a1
 588:	lw	a1,0(a1)
 58c:	andi	a1,a1,1
		if( in(MAZE[xcur][ycur-1])&&in(MAZE[xcur][ycur+1])&&
 590:	beqz	a1,5bc <generate+0x100>
			   in(MAZE[xcur-1][ycur])&&in(MAZE[xcur+1][ycur]) ){
 594:	addi	a0,s9,1
 598:	slli	a1,a0,0x4
 59c:	sub	a1,a1,a0
 5a0:	slli	a5,a1,0x1
 5a4:	add	a5,a5,s6
 5a8:	slli	a0,a5,0x2
 5ac:	add	a0,s7,a0
 5b0:	lw	a0,0(a0)
 5b4:	andi	a0,a0,1
 5b8:	bnez	a0,918 <generate+0x45c>
			  (in(MAZE[xcur-1][ycur])==1)&&(in(MAZE[xcur+1][ycur])==1) ){
 5bc:	slli	a3,s5,0x4
 5c0:	sub	a3,a3,s5
 5c4:	slli	a3,a3,0x1
 5c8:	add	a3,a3,s6
 5cc:	slli	a3,a3,0x2
 5d0:	add	a3,s7,a3
 5d4:	lw	a3,0(a3)
 5d8:	andi	a3,a3,1
		while( (in(MAZE[xcur][ycur-1])==1) &&(in(MAZE[xcur][ycur+1])==1)&&
 5dc:	beqz	a3,6c8 <generate+0x20c>
			  (in(MAZE[xcur-1][ycur])==1)&&(in(MAZE[xcur+1][ycur])==1) ){
 5e0:	addi	a1,s9,1
 5e4:	slli	a3,a1,0x4
 5e8:	sub	a3,a3,a1
 5ec:	slli	a3,a3,0x1
 5f0:	add	a3,a3,s6
 5f4:	slli	a3,a3,0x2
 5f8:	add	a3,s7,a3
 5fc:	lw	a3,0(a3)
 600:	andi	a3,a3,1
 604:	bnez	a3,630 <generate+0x174>
 608:	j	6c8 <generate+0x20c>
		while( (in(MAZE[xcur][ycur-1])==1) &&(in(MAZE[xcur][ycur+1])==1)&&
 60c:	lw	a0,0(a0)
 610:	andi	a0,a0,1
 614:	beqz	a0,6c8 <generate+0x20c>
			  (in(MAZE[xcur-1][ycur])==1)&&(in(MAZE[xcur+1][ycur])==1) ){
 618:	lw	a3,0(a3)
 61c:	andi	a3,a3,1
		while( (in(MAZE[xcur][ycur-1])==1) &&(in(MAZE[xcur][ycur+1])==1)&&
 620:	beqz	a3,6c8 <generate+0x20c>
			  (in(MAZE[xcur-1][ycur])==1)&&(in(MAZE[xcur+1][ycur])==1) ){
 624:	lw	a3,0(a1)
 628:	andi	a3,a3,1
 62c:	beqz	a3,6c8 <generate+0x20c>
				int xcur2=prevx(MAZE[xcur][ycur]);
 630:	sub	a5,s10,s9
 634:	slli	a5,a5,0x1
 638:	add	a4,a5,s6
 63c:	slli	a4,a4,0x2
 640:	add	a4,s7,a4
 644:	lw	a4,0(a4)
 648:	srai	a2,a4,0x9
 64c:	andi	s9,a2,127
				ycur=prevy(MAZE[xcur][ycur]);
 650:	srai	a4,a4,0x3
		while( (in(MAZE[xcur][ycur-1])==1) &&(in(MAZE[xcur][ycur+1])==1)&&
 654:	slli	s10,s9,0x4
				ycur=prevy(MAZE[xcur][ycur]);
 658:	andi	s6,a4,63
			  (in(MAZE[xcur-1][ycur])==1)&&(in(MAZE[xcur+1][ycur])==1) ){
 65c:	addi	t1,s9,1
		while( (in(MAZE[xcur][ycur-1])==1) &&(in(MAZE[xcur][ycur+1])==1)&&
 660:	sub	a0,s10,s9
			  (in(MAZE[xcur-1][ycur])==1)&&(in(MAZE[xcur+1][ycur])==1) ){
 664:	slli	a1,t1,0x4
		while( (in(MAZE[xcur][ycur-1])==1) &&(in(MAZE[xcur][ycur+1])==1)&&
 668:	slli	a0,a0,0x1
 66c:	addi	s0,s6,-1
			  (in(MAZE[xcur-1][ycur])==1)&&(in(MAZE[xcur+1][ycur])==1) ){
 670:	sub	a1,a1,t1
		while( (in(MAZE[xcur][ycur-1])==1) &&(in(MAZE[xcur][ycur+1])==1)&&
 674:	add	t1,a0,s0
			  (in(MAZE[xcur-1][ycur])==1)&&(in(MAZE[xcur+1][ycur])==1) ){
 678:	addi	t3,s9,-1
		while( (in(MAZE[xcur][ycur-1])==1) &&(in(MAZE[xcur][ycur+1])==1)&&
 67c:	slli	t1,t1,0x2
			  (in(MAZE[xcur-1][ycur])==1)&&(in(MAZE[xcur+1][ycur])==1) ){
 680:	slli	a3,t3,0x4
		while( (in(MAZE[xcur][ycur-1])==1) &&(in(MAZE[xcur][ycur+1])==1)&&
 684:	add	t1,s7,t1
			  (in(MAZE[xcur-1][ycur])==1)&&(in(MAZE[xcur+1][ycur])==1) ){
 688:	sub	a3,a3,t3
		while( (in(MAZE[xcur][ycur-1])==1) &&(in(MAZE[xcur][ycur+1])==1)&&
 68c:	lw	t1,0(t1)
 690:	addi	t3,s6,1
			  (in(MAZE[xcur-1][ycur])==1)&&(in(MAZE[xcur+1][ycur])==1) ){
 694:	slli	a3,a3,0x1
 698:	slli	a1,a1,0x1
		while( (in(MAZE[xcur][ycur-1])==1) &&(in(MAZE[xcur][ycur+1])==1)&&
 69c:	add	a0,a0,t3
			  (in(MAZE[xcur-1][ycur])==1)&&(in(MAZE[xcur+1][ycur])==1) ){
 6a0:	add	a3,a3,s6
 6a4:	add	a1,a1,s6
		while( (in(MAZE[xcur][ycur-1])==1) &&(in(MAZE[xcur][ycur+1])==1)&&
 6a8:	slli	a0,a0,0x2
			  (in(MAZE[xcur-1][ycur])==1)&&(in(MAZE[xcur+1][ycur])==1) ){
 6ac:	slli	a3,a3,0x2
 6b0:	slli	a1,a1,0x2
		while( (in(MAZE[xcur][ycur-1])==1) &&(in(MAZE[xcur][ycur+1])==1)&&
 6b4:	andi	t1,t1,1
 6b8:	add	a0,s7,a0
			  (in(MAZE[xcur-1][ycur])==1)&&(in(MAZE[xcur+1][ycur])==1) ){
 6bc:	add	a3,s7,a3
 6c0:	add	a1,s7,a1
		while( (in(MAZE[xcur][ycur-1])==1) &&(in(MAZE[xcur][ycur+1])==1)&&
 6c4:	bnez	t1,60c <generate+0x150>
				if(!in(MAZE[xcur-1][ycur])){
 6c8:	addi	s8,s9,-1
 6cc:	slli	s3,s8,0x4
 6d0:	sub	s3,s3,s8
				if(!in(MAZE[xcur+1][ycur])){
 6d4:	addi	s5,s9,1
				if(!in(MAZE[xcur-1][ycur])){
 6d8:	slli	s3,s3,0x1
 6dc:	add	s3,s3,s6
				if(!in(MAZE[xcur+1][ycur])){
 6e0:	slli	s4,s5,0x4
				if(!in(MAZE[xcur-1][ycur])){
 6e4:	slli	s3,s3,0x2
				if(!in(MAZE[xcur+1][ycur])){
 6e8:	sub	s4,s4,s5
				if(!in(MAZE[xcur-1][ycur])){
 6ec:	add	s3,s7,s3
				if(!in(MAZE[xcur+1][ycur])){
 6f0:	slli	s4,s4,0x1
			whichway=rand()%4;
 6f4:	jal	ra,c6c <rand>
 6f8:	srai	a3,a0,0x1f
 6fc:	srli	a3,a3,0x1e
 700:	add	a0,a0,a3
 704:	andi	a0,a0,3
 708:	sub	a0,a0,a3
			switch(whichway){
 70c:	beq	a0,s11,84c <generate+0x390>
 710:	bge	s11,a0,7e0 <generate+0x324>
 714:	beq	a0,s2,898 <generate+0x3dc>
 718:	bne	a0,s1,6f4 <generate+0x238>
				if(!in(MAZE[xcur+1][ycur])){
 71c:	add	a1,s4,s6
 720:	slli	a1,a1,0x2
 724:	add	a1,s7,a1
 728:	lw	a3,0(a1)
 72c:	andi	a0,a3,1
 730:	bnez	a0,6f4 <generate+0x238>
					prevx_w(MAZE[xcur+1][ycur],xcur);
 734:	lui	a5,0xffff0
 738:	addi	a5,a5,507 # ffff01fb <__sp+0xfffe01fb>
 73c:	slli	a2,s9,0x9
 740:	and	a3,a3,a5
 744:	or	a3,a3,a2
					prevy_w(MAZE[xcur+1][ycur],ycur);
 748:	andi	a3,a3,-505
 74c:	slli	a5,s6,0x3
 750:	or	a3,a3,a5
				if(!in(MAZE[xcur+1][ycur])){
 754:	mv	s9,s5
					prevy_w(MAZE[xcur+1][ycur],ycur);
 758:	sw	a3,0(a1)
					xcur++;
 75c:	slli	s10,s5,0x4
		in_w(MAZE[xcur][ycur],1);
 760:	sub	a1,s10,s9
 764:	slli	a1,a1,0x1
 768:	add	a1,a1,s6
 76c:	slli	a1,a1,0x2
		numin++; //Every iteration of this loop, one maze cell is added to the maze.
 770:	lui	a5,0x3
		in_w(MAZE[xcur][ycur],1);
 774:	ori	a3,a3,1
 778:	add	a1,s7,a1
		numin++; //Every iteration of this loop, one maze cell is added to the maze.
 77c:	lw	a0,-2028(a5) # 2814 <numin>
		in_w(MAZE[xcur][ycur],1);
 780:	sw	a3,0(a1)
		if(((*SWITCHES&2)>>1)==1)
 784:	lui	a3,0x11000
 788:	lw	a3,0(a3) # 11000000 <__sp+0x10ff0000>
		numin++; //Every iteration of this loop, one maze cell is added to the maze.
 78c:	addi	a0,a0,1
 790:	sw	a0,-2028(a5)
		if(((*SWITCHES&2)>>1)==1)
 794:	andi	a3,a3,2
 798:	bnez	a3,8f8 <generate+0x43c>
	}while(numin<(xsize-2)*(ysize-2));
 79c:	li	a3,1063
 7a0:	bge	a3,a0,52c <generate+0x70>
}
 7a4:	lw	ra,76(sp)
 7a8:	lw	s0,72(sp)
 7ac:	lw	s1,68(sp)
 7b0:	lw	s2,64(sp)
 7b4:	lw	s3,60(sp)
 7b8:	lw	s4,56(sp)
 7bc:	lw	s5,52(sp)
 7c0:	lw	s6,48(sp)
 7c4:	lw	s7,44(sp)
 7c8:	lw	s8,40(sp)
 7cc:	lw	s9,36(sp)
 7d0:	lw	s10,32(sp)
 7d4:	lw	s11,28(sp)
 7d8:	addi	sp,sp,80
 7dc:	ret
 7e0:	bnez	a0,6f4 <generate+0x238>
				if(!in(MAZE[xcur][ycur-1])){
 7e4:	sub	a3,s10,s9
 7e8:	slli	a3,a3,0x1
 7ec:	add	a0,a3,s0
 7f0:	slli	a0,a0,0x2
 7f4:	add	a0,s7,a0
 7f8:	lw	a1,0(a0)
 7fc:	andi	a1,a1,1
 800:	bnez	a1,6f4 <generate+0x238>
					up_w(MAZE[xcur][ycur],0);
 804:	add	a1,a3,s6
 808:	slli	a1,a1,0x2
 80c:	add	a1,s7,a1
 810:	lw	t1,0(a1)
					prevx_w(MAZE[xcur][ycur-1],xcur);
 814:	lui	a5,0xffff0
 818:	addi	a5,a5,511 # ffff01ff <__sp+0xfffe01ff>
					up_w(MAZE[xcur][ycur],0);
 81c:	andi	t1,t1,-3
 820:	sw	t1,0(a1)
					prevx_w(MAZE[xcur][ycur-1],xcur);
 824:	lw	a1,0(a0)
 828:	slli	a3,s9,0x9
					prevy_w(MAZE[xcur][ycur-1],ycur);
 82c:	slli	t3,s6,0x3
					prevx_w(MAZE[xcur][ycur-1],xcur);
 830:	and	a1,a1,a5
 834:	or	a3,a1,a3
					prevy_w(MAZE[xcur][ycur-1],ycur);
 838:	andi	a3,a3,-505
 83c:	or	a3,a3,t3
					ycur--;
 840:	mv	s6,s0
					prevy_w(MAZE[xcur][ycur-1],ycur);
 844:	sw	a3,0(a0)
					ycur--;
 848:	j	760 <generate+0x2a4>
				if(!in(MAZE[xcur][ycur+1])){
 84c:	sub	a1,s10,s9
 850:	addi	a0,s6,1
 854:	slli	a1,a1,0x1
 858:	add	a1,a1,a0
 85c:	slli	a1,a1,0x2
 860:	add	a1,s7,a1
 864:	lw	a3,0(a1)
 868:	andi	t1,a3,1
 86c:	bnez	t1,6f4 <generate+0x238>
					prevx_w(MAZE[xcur][ycur+1],xcur);
 870:	lw	a5,0(sp)
 874:	slli	t1,s9,0x9
					prevy_w(MAZE[xcur][ycur+1],ycur);
 878:	slli	a4,s6,0x3
					prevx_w(MAZE[xcur][ycur+1],xcur);
 87c:	and	a3,a3,a5
 880:	or	a3,a3,t1
					prevy_w(MAZE[xcur][ycur+1],ycur);
 884:	andi	a3,a3,-505
 888:	or	a3,a3,a4
 88c:	sw	a3,0(a1)
				if(!in(MAZE[xcur][ycur+1])){
 890:	mv	s6,a0
 894:	j	760 <generate+0x2a4>
				if(!in(MAZE[xcur-1][ycur])){
 898:	lw	a3,0(s3)
 89c:	andi	a3,a3,1
 8a0:	bnez	a3,6f4 <generate+0x238>
					left_w(MAZE[xcur][ycur],0);
 8a4:	sub	a5,s10,s9
 8a8:	slli	a5,a5,0x1
 8ac:	add	a5,a5,s6
 8b0:	slli	a5,a5,0x2
 8b4:	add	a5,s7,a5
 8b8:	lw	a0,0(a5)
					prevx_w(MAZE[xcur-1][ycur],xcur);
 8bc:	slli	t1,s9,0x9
					prevy_w(MAZE[xcur-1][ycur],ycur);
 8c0:	slli	a3,s6,0x3
					left_w(MAZE[xcur][ycur],0);
 8c4:	andi	a2,a0,-5
 8c8:	sw	a2,0(a5)
					prevx_w(MAZE[xcur-1][ycur],xcur);
 8cc:	lw	a1,0(s3)
 8d0:	lui	a5,0xffff0
 8d4:	addi	a5,a5,511 # ffff01ff <__sp+0xfffe01ff>
 8d8:	and	a1,a1,a5
 8dc:	or	a1,a1,t1
					prevy_w(MAZE[xcur-1][ycur],ycur);
 8e0:	andi	a1,a1,-505
 8e4:	or	a3,a1,a3
				if(!in(MAZE[xcur-1][ycur])){
 8e8:	mv	s9,s8
 8ec:	slli	s10,s8,0x4
					prevy_w(MAZE[xcur-1][ycur],ycur);
 8f0:	sw	a3,0(s3)
					xcur--;
 8f4:	j	760 <generate+0x2a4>
		{	draw_maze2(xcur,ycur);
 8f8:	mv	a1,s6
 8fc:	mv	a0,s9
 900:	jal	ra,248 <draw_maze2>
	}while(numin<(xsize-2)*(ysize-2));
 904:	lui	a5,0x3
 908:	lw	a1,-2028(a5) # 2814 <numin>
 90c:	li	a3,1063
 910:	bge	a3,a1,52c <generate+0x70>
 914:	j	7a4 <generate+0x2e8>
					if(left(MAZE[xcur][ycur])&&xcur!=1){
 918:	add	s3,a3,s6
 91c:	slli	s3,s3,0x2
 920:	add	s3,s7,s3
					if(left(MAZE[xcur+1][ycur])&&xcur!=xsize-2){
 924:	sw	a1,12(sp)
 928:	sw	a5,4(sp)
					if(up(MAZE[xcur][ycur+1])&&ycur!=ysize-2){
 92c:	sw	s4,8(sp)
				whichway=rand()%4;
 930:	jal	ra,c6c <rand>
 934:	srai	a3,a0,0x1f
 938:	srli	a3,a3,0x1e
 93c:	add	a0,a0,a3
 940:	andi	a0,a0,3
 944:	sub	a0,a0,a3
				switch(whichway){
 948:	beq	a0,s11,9b8 <generate+0x4fc>
 94c:	bge	s11,a0,998 <generate+0x4dc>
 950:	beq	a0,s2,9dc <generate+0x520>
 954:	bne	a0,s1,930 <generate+0x474>
					if(left(MAZE[xcur+1][ycur])&&xcur!=xsize-2){
 958:	lw	a5,4(sp)
 95c:	slli	a3,a5,0x2
 960:	add	a3,s7,a3
 964:	lw	a3,0(a3)
 968:	andi	a1,a3,4
 96c:	beqz	a1,930 <generate+0x474>
 970:	li	a5,38
 974:	beq	s9,a5,930 <generate+0x474>
						left_w(MAZE[xcur+1][ycur],0);
 978:	lw	a5,12(sp)
 97c:	andi	a3,a3,-5
 980:	slli	a1,a5,0x1
 984:	add	a1,a1,s6
 988:	slli	a1,a1,0x2
 98c:	add	a1,s7,a1
 990:	sw	a3,0(a1)
 994:	j	9f4 <generate+0x538>
 998:	bnez	a0,930 <generate+0x474>
					if(up(MAZE[xcur][ycur])&&ycur!=1){
 99c:	lw	a3,0(s3)
 9a0:	andi	a1,a3,2
 9a4:	beqz	a1,930 <generate+0x474>
 9a8:	beq	s6,s11,930 <generate+0x474>
						up_w(MAZE[xcur][ycur],0);
 9ac:	andi	a3,a3,-3
 9b0:	sw	a3,0(s3)
 9b4:	j	9f4 <generate+0x538>
					if(up(MAZE[xcur][ycur+1])&&ycur!=ysize-2){
 9b8:	lw	a5,8(sp)
 9bc:	lw	a3,0(a5)
 9c0:	andi	a1,a3,2
 9c4:	beqz	a1,930 <generate+0x474>
 9c8:	li	a1,28
 9cc:	beq	s6,a1,930 <generate+0x474>
						up_w(MAZE[xcur][ycur+1],0);
 9d0:	andi	a3,a3,-3
 9d4:	sw	a3,0(s4)
 9d8:	j	9f4 <generate+0x538>
					if(left(MAZE[xcur][ycur])&&xcur!=1){
 9dc:	lw	a3,0(s3)
 9e0:	andi	a1,a3,4
 9e4:	beqz	a1,930 <generate+0x474>
 9e8:	beq	s9,s11,930 <generate+0x474>
						left_w(MAZE[xcur][ycur],0);
 9ec:	andi	a3,a3,-5
 9f0:	sw	a3,0(s3)
		while( (in(MAZE[xcur][ycur-1])==1) &&(in(MAZE[xcur][ycur+1])==1)&&
 9f4:	sub	a3,s10,s9
 9f8:	slli	a3,a3,0x1
 9fc:	add	a1,a3,s0
 a00:	slli	a1,a1,0x2
 a04:	add	a1,s7,a1
 a08:	lw	a1,0(a1)
 a0c:	andi	a1,a1,1
 a10:	beqz	a1,6c8 <generate+0x20c>
 a14:	add	a3,a3,s8
 a18:	slli	a3,a3,0x2
 a1c:	add	a3,s7,a3
 a20:	lw	a3,0(a3)
 a24:	andi	a3,a3,1
 a28:	bnez	a3,5bc <generate+0x100>
 a2c:	j	6c8 <generate+0x20c>

00000a30 <atexit>:
 a30:	mv	a1,a0
 a34:	li	a3,0
 a38:	li	a2,0
 a3c:	li	a0,0
 a40:	j	cc4 <__register_exitproc>

00000a44 <exit>:
 a44:	addi	sp,sp,-16
 a48:	li	a1,0
 a4c:	sw	s0,8(sp)
 a50:	sw	ra,12(sp)
 a54:	mv	s0,a0
 a58:	jal	ra,d44 <__call_exitprocs>
 a5c:	lui	a5,0x3
 a60:	lw	a0,-2004(a5) # 282c <_global_impure_ptr>
 a64:	lw	a5,60(a0)
 a68:	beqz	a5,a70 <exit+0x2c>
 a6c:	jalr	a5
 a70:	mv	a0,s0
 a74:	jal	ra,e54 <_exit>

00000a78 <__libc_fini_array>:
 a78:	addi	sp,sp,-16
 a7c:	lui	a5,0x0
 a80:	sw	s0,8(sp)
 a84:	lui	s0,0x0
 a88:	mv	a4,a5
 a8c:	mv	s0,s0
 a90:	sub	s0,s0,a4
 a94:	sw	s1,4(sp)
 a98:	sw	ra,12(sp)
 a9c:	srai	s0,s0,0x2
 aa0:	mv	s1,a5
 aa4:	bnez	s0,abc <__libc_fini_array+0x44>
 aa8:	lw	s0,8(sp)
 aac:	lw	ra,12(sp)
 ab0:	lw	s1,4(sp)
 ab4:	addi	sp,sp,16
 ab8:	j	58 <_fini>
 abc:	addi	s0,s0,-1
 ac0:	slli	a5,s0,0x2
 ac4:	add	a5,s1,a5
 ac8:	lw	a5,0(a5) # 0 <entry>
 acc:	jalr	a5
 ad0:	j	aa4 <__libc_fini_array+0x2c>

00000ad4 <__libc_init_array>:
 ad4:	addi	sp,sp,-16
 ad8:	lui	a5,0x0
 adc:	sw	s0,8(sp)
 ae0:	lui	s0,0x0
 ae4:	mv	a4,a5
 ae8:	mv	s0,s0
 aec:	sub	s0,s0,a4
 af0:	sw	s1,4(sp)
 af4:	sw	s2,0(sp)
 af8:	sw	ra,12(sp)
 afc:	srai	s0,s0,0x2
 b00:	li	s1,0
 b04:	mv	s2,a5
 b08:	bne	s1,s0,b4c <__libc_init_array+0x78>
 b0c:	jal	ra,58 <_fini>
 b10:	lui	a5,0x0
 b14:	lui	s0,0x0
 b18:	mv	a4,a5
 b1c:	mv	s0,s0
 b20:	sub	s0,s0,a4
 b24:	srai	s0,s0,0x2
 b28:	li	s1,0
 b2c:	mv	s2,a5
 b30:	bne	s1,s0,b64 <__libc_init_array+0x90>
 b34:	lw	ra,12(sp)
 b38:	lw	s0,8(sp)
 b3c:	lw	s1,4(sp)
 b40:	lw	s2,0(sp)
 b44:	addi	sp,sp,16
 b48:	ret
 b4c:	slli	a5,s1,0x2
 b50:	add	a5,s2,a5
 b54:	lw	a5,0(a5) # 0 <entry>
 b58:	addi	s1,s1,1
 b5c:	jalr	a5
 b60:	j	b08 <__libc_init_array+0x34>
 b64:	slli	a5,s1,0x2
 b68:	add	a5,s2,a5
 b6c:	lw	a5,0(a5)
 b70:	addi	s1,s1,1
 b74:	jalr	a5
 b78:	j	b30 <__libc_init_array+0x5c>

00000b7c <memset>:
 b7c:	li	t1,15
 b80:	mv	a4,a0
 b84:	bgeu	t1,a2,bc0 <memset+0x44>
 b88:	andi	a5,a4,15
 b8c:	bnez	a5,c2c <memset+0xb0>
 b90:	bnez	a1,c14 <memset+0x98>
 b94:	andi	a3,a2,-16
 b98:	andi	a2,a2,15
 b9c:	add	a3,a3,a4
 ba0:	sw	a1,0(a4)
 ba4:	sw	a1,4(a4)
 ba8:	sw	a1,8(a4)
 bac:	sw	a1,12(a4)
 bb0:	addi	a4,a4,16
 bb4:	bltu	a4,a3,ba0 <memset+0x24>
 bb8:	bnez	a2,bc0 <memset+0x44>
 bbc:	ret
 bc0:	sub	a3,t1,a2
 bc4:	slli	a3,a3,0x2
 bc8:	auipc	t0,0x0
 bcc:	add	a3,a3,t0
 bd0:	jr	12(a3)
 bd4:	sb	a1,14(a4)
 bd8:	sb	a1,13(a4)
 bdc:	sb	a1,12(a4)
 be0:	sb	a1,11(a4)
 be4:	sb	a1,10(a4)
 be8:	sb	a1,9(a4)
 bec:	sb	a1,8(a4)
 bf0:	sb	a1,7(a4)
 bf4:	sb	a1,6(a4)
 bf8:	sb	a1,5(a4)
 bfc:	sb	a1,4(a4)
 c00:	sb	a1,3(a4)
 c04:	sb	a1,2(a4)
 c08:	sb	a1,1(a4)
 c0c:	sb	a1,0(a4)
 c10:	ret
 c14:	andi	a1,a1,255
 c18:	slli	a3,a1,0x8
 c1c:	or	a1,a1,a3
 c20:	slli	a3,a1,0x10
 c24:	or	a1,a1,a3
 c28:	j	b94 <memset+0x18>
 c2c:	slli	a3,a5,0x2
 c30:	auipc	t0,0x0
 c34:	add	a3,a3,t0
 c38:	mv	t0,ra
 c3c:	jalr	-96(a3)
 c40:	mv	ra,t0
 c44:	addi	a5,a5,-16
 c48:	sub	a4,a4,a5
 c4c:	add	a2,a2,a5
 c50:	bgeu	t1,a2,bc0 <memset+0x44>
 c54:	j	b90 <memset+0x14>

00000c58 <srand>:
 c58:	lui	a5,0x3
 c5c:	lw	a5,-2024(a5) # 2818 <_impure_ptr>
 c60:	sw	a0,168(a5)
 c64:	sw	zero,172(a5)
 c68:	ret

00000c6c <rand>:
 c6c:	addi	sp,sp,-16
 c70:	lui	a5,0x3
 c74:	sw	s0,8(sp)
 c78:	lw	s0,-2024(a5) # 2818 <_impure_ptr>
 c7c:	lui	a5,0x3
 c80:	lw	a2,-2000(a5) # 2830 <_global_impure_ptr+0x4>
 c84:	lw	a0,168(s0) # a8 <register_tm_clones+0x20>
 c88:	lw	a1,172(s0)
 c8c:	lw	a3,-1996(a5)
 c90:	sw	ra,12(sp)
 c94:	jal	ra,ea4 <__muldi3>
 c98:	addi	a5,a0,1
 c9c:	sltu	a0,a5,a0
 ca0:	add	a0,a0,a1
 ca4:	sw	a0,172(s0)
 ca8:	sw	a5,168(s0)
 cac:	lw	ra,12(sp)
 cb0:	lw	s0,8(sp)
 cb4:	slli	a0,a0,0x1
 cb8:	srli	a0,a0,0x1
 cbc:	addi	sp,sp,16
 cc0:	ret

00000cc4 <__register_exitproc>:
 cc4:	lui	a5,0x3
 cc8:	lw	a4,-2004(a5) # 282c <_global_impure_ptr>
 ccc:	mv	t1,a0
 cd0:	lw	a5,328(a4)
 cd4:	bnez	a5,ce0 <__register_exitproc+0x1c>
 cd8:	addi	a5,a4,332
 cdc:	sw	a5,328(a4)
 ce0:	lw	a4,4(a5)
 ce4:	li	a6,31
 ce8:	li	a0,-1
 cec:	blt	a6,a4,d40 <__register_exitproc+0x7c>
 cf0:	slli	a7,a4,0x2
 cf4:	beqz	t1,d2c <__register_exitproc+0x68>
 cf8:	add	a0,a5,a7
 cfc:	sw	a2,136(a0)
 d00:	lw	a6,392(a5)
 d04:	li	a2,1
 d08:	sll	a2,a2,a4
 d0c:	or	a6,a6,a2
 d10:	sw	a6,392(a5)
 d14:	sw	a3,264(a0)
 d18:	li	a3,2
 d1c:	bne	t1,a3,d2c <__register_exitproc+0x68>
 d20:	lw	a3,396(a5)
 d24:	or	a2,a3,a2
 d28:	sw	a2,396(a5)
 d2c:	addi	a4,a4,1
 d30:	sw	a4,4(a5)
 d34:	add	a5,a5,a7
 d38:	sw	a1,8(a5)
 d3c:	li	a0,0
 d40:	ret

00000d44 <__call_exitprocs>:
 d44:	addi	sp,sp,-48
 d48:	lui	a5,0x3
 d4c:	sw	s3,28(sp)
 d50:	lw	s3,-2004(a5) # 282c <_global_impure_ptr>
 d54:	sw	s4,24(sp)
 d58:	sw	s5,20(sp)
 d5c:	sw	s6,16(sp)
 d60:	sw	ra,44(sp)
 d64:	sw	s0,40(sp)
 d68:	sw	s1,36(sp)
 d6c:	sw	s2,32(sp)
 d70:	sw	s7,12(sp)
 d74:	mv	s5,a0
 d78:	mv	s4,a1
 d7c:	li	s6,1
 d80:	lw	s1,328(s3)
 d84:	beqz	s1,d9c <__call_exitprocs+0x58>
 d88:	lw	s0,4(s1)
 d8c:	addi	s2,s0,-1
 d90:	slli	s0,s0,0x2
 d94:	add	s0,s1,s0
 d98:	bgez	s2,dc8 <__call_exitprocs+0x84>
 d9c:	lw	ra,44(sp)
 da0:	lw	s0,40(sp)
 da4:	lw	s1,36(sp)
 da8:	lw	s2,32(sp)
 dac:	lw	s3,28(sp)
 db0:	lw	s4,24(sp)
 db4:	lw	s5,20(sp)
 db8:	lw	s6,16(sp)
 dbc:	lw	s7,12(sp)
 dc0:	addi	sp,sp,48
 dc4:	ret
 dc8:	beqz	s4,de0 <__call_exitprocs+0x9c>
 dcc:	lw	a5,260(s0)
 dd0:	beq	a5,s4,de0 <__call_exitprocs+0x9c>
 dd4:	addi	s2,s2,-1
 dd8:	addi	s0,s0,-4
 ddc:	j	d98 <__call_exitprocs+0x54>
 de0:	lw	a4,4(s1)
 de4:	lw	a5,4(s0)
 de8:	addi	a4,a4,-1
 dec:	bne	a4,s2,e24 <__call_exitprocs+0xe0>
 df0:	sw	s2,4(s1)
 df4:	beqz	a5,dd4 <__call_exitprocs+0x90>
 df8:	lw	a3,392(s1)
 dfc:	sll	a4,s6,s2
 e00:	lw	s7,4(s1)
 e04:	and	a3,a4,a3
 e08:	bnez	a3,e2c <__call_exitprocs+0xe8>
 e0c:	jalr	a5
 e10:	lw	a5,4(s1)
 e14:	bne	a5,s7,d80 <__call_exitprocs+0x3c>
 e18:	lw	a5,328(s3)
 e1c:	beq	a5,s1,dd4 <__call_exitprocs+0x90>
 e20:	j	d80 <__call_exitprocs+0x3c>
 e24:	sw	zero,4(s0)
 e28:	j	df4 <__call_exitprocs+0xb0>
 e2c:	lw	a3,396(s1)
 e30:	lw	a1,132(s0)
 e34:	and	a4,a4,a3
 e38:	bnez	a4,e48 <__call_exitprocs+0x104>
 e3c:	mv	a0,s5
 e40:	jalr	a5
 e44:	j	e10 <__call_exitprocs+0xcc>
 e48:	mv	a0,a1
 e4c:	jalr	a5
 e50:	j	e10 <__call_exitprocs+0xcc>

00000e54 <_exit>:
 e54:	li	a1,0
 e58:	li	a2,0
 e5c:	li	a3,0
 e60:	li	a4,0
 e64:	li	a5,0
 e68:	li	a7,93
 e6c:	ecall
 e70:	bgez	a0,e94 <_exit+0x40>
 e74:	addi	sp,sp,-16
 e78:	sw	s0,8(sp)
 e7c:	mv	s0,a0
 e80:	sw	ra,12(sp)
 e84:	neg	s0,s0
 e88:	jal	ra,e98 <__errno>
 e8c:	sw	s0,0(a0)
 e90:	j	e90 <_exit+0x3c>
 e94:	j	e94 <_exit+0x40>

00000e98 <__errno>:
 e98:	lui	a5,0x3
 e9c:	lw	a0,-2024(a5) # 2818 <_impure_ptr>
 ea0:	ret

00000ea4 <__muldi3>:
# define __multi3 __muldi3
#endif

DWtype
__multi3 (DWtype u, DWtype v)
{
 ea4:	addi	sp,sp,-16
 ea8:	mv	t1,a3
 eac:	sw	ra,12(sp)
 eb0:	mv	t3,a0
  const DWunion uu = {.ll = u};
  const DWunion vv = {.ll = v};
  DWunion w;
  UWtype u_low = uu.s.low;
 eb4:	mv	a7,a0
  UWtype v_low = vv.s.low;
 eb8:	mv	a3,a2
  UWtype u_low_msb;
  UWtype w_low = 0;
  UWtype new_w_low;
  UWtype w_high = 0;
  UWtype w_high_tmp = 0;
 ebc:	li	a4,0
  UWtype w_high = 0;
 ec0:	li	a5,0
  UWtype w_low = 0;
 ec4:	li	a6,0
  do
    {
      new_w_low = w_low + u_low;
      w_high_tmp2x = w_high_tmp << 1;
      w_high_tmp += w_high;
      if (v_low & 1)
 ec8:	andi	a0,a3,1
      w_high_tmp2x = w_high_tmp << 1;
 ecc:	slli	t4,a4,0x1
      if (v_low & 1)
 ed0:	beqz	a0,ee8 <__muldi3+0x44>
      new_w_low = w_low + u_low;
 ed4:	add	a0,a7,a6
	{
	  carry = new_w_low < w_low;
 ed8:	sltu	a6,a0,a6
      w_high_tmp += w_high;
 edc:	add	a5,a5,a4
	  w_low = new_w_low;
	  w_high = carry + w_high_tmp;
 ee0:	add	a5,a6,a5
	  w_low = new_w_low;
 ee4:	mv	a6,a0
	}
      u_low_msb = (u_low >> ((sizeof (UWtype) * 8) - 1));
 ee8:	srli	a4,a7,0x1f
      v_low >>= 1;
 eec:	srli	a3,a3,0x1
      u_low <<= 1;
      w_high_tmp = u_low_msb | w_high_tmp2x;
 ef0:	or	a4,t4,a4
 ef4:	slli	a7,a7,0x1
    }
  while (v_low);
 ef8:	bnez	a3,ec8 <__muldi3+0x24>

  w.s.low = w_low;
  w.s.high = w_high;

  if (uu.s.high)
 efc:	beqz	a1,f0c <__muldi3+0x68>
    w.s.high = w.s.high + __muluw3(vv.s.low, uu.s.high);
 f00:	mv	a0,a2
 f04:	jal	ra,f34 <__mulsi3>
 f08:	add	a5,a5,a0

  if (vv.s.high)
 f0c:	beqz	t1,f20 <__muldi3+0x7c>
    w.s.high += __muluw3(uu.s.low, vv.s.high);
 f10:	mv	a0,t3
 f14:	mv	a1,t1
 f18:	jal	ra,f34 <__mulsi3>
 f1c:	add	a5,a0,a5

  return w.ll;
}
 f20:	lw	ra,12(sp)
 f24:	mv	a0,a6
 f28:	mv	a1,a5
 f2c:	addi	sp,sp,16
 f30:	ret

00000f34 <__mulsi3>:
/* Our RV64 64-bit routine is equivalent to our RV32 32-bit routine.  */
# define __muldi3 __mulsi3
#endif

FUNC_BEGIN (__muldi3)
  mv     a2, a0
 f34:	mv	a2,a0
  li     a0, 0
 f38:	li	a0,0
.L1:
  andi   a3, a1, 1
 f3c:	andi	a3,a1,1
  beqz   a3, .L2
 f40:	beqz	a3,f48 <__mulsi3+0x14>
  add    a0, a0, a2
 f44:	add	a0,a0,a2
.L2:
  srli   a1, a1, 1
 f48:	srli	a1,a1,0x1
  slli   a2, a2, 1
 f4c:	slli	a2,a2,0x1
  bnez   a1, .L1
 f50:	bnez	a1,f3c <__mulsi3+0x8>
  ret
 f54:	ret

Disassembly of section .text.startup:

00000f58 <main>:
	srand(*SWITCHES); //seed random number generator with system time
     f58:	lui	a5,0x11000
     f5c:	lw	a0,0(a5) # 11000000 <__sp+0x10ff0000>
int main(){
     f60:	addi	sp,sp,-48
     f64:	sw	s1,36(sp)
     f68:	sw	s4,24(sp)
     f6c:	sw	s5,20(sp)
     f70:	lui	s1,0x2
     f74:	lui	s5,0x1
     f78:	lui	s4,0x1
     f7c:	sw	s0,40(sp)
     f80:	sw	s2,32(sp)
     f84:	sw	s3,28(sp)
     f88:	sw	s6,16(sp)
     f8c:	sw	s7,12(sp)
     f90:	sw	s8,8(sp)
     f94:	sw	ra,44(sp)
     f98:	lui	s7,0x3
	srand(*SWITCHES); //seed random number generator with system time
     f9c:	jal	ra,c58 <srand>
     fa0:	addi	s6,s5,264 # 1108 <MAZE>
     fa4:	addi	s1,s1,968 # 23c8 <completed.5430>
		*LEDS = 1;
     fa8:	lui	s0,0x11080
     fac:	li	s3,1
     fb0:	addi	s4,s4,704 # 12c0 <MAZE+0x1b8>
     fb4:	li	s2,39
		for(int y=0;y<ysize;y++){
     fb8:	li	s8,29
		*LEDS = 1;
     fbc:	mv	a2,s4
     fc0:	sw	s3,0(s0) # 11080000 <__sp+0x11070000>
		initialize();      //initialize the maze
     fc4:	li	a1,0
     fc8:	addi	a0,s5,264
     fcc:	jal	ra,b7c <memset>
	numin=1;
     fd0:	mv	a5,s6
     fd4:	sw	s3,-2028(s7) # 2814 <numin>
	for(int x=0;x<xsize;x++){
     fd8:	li	a2,0
     fdc:	beqz	a2,10e0 <main+0x188>
     fe0:	beq	a2,s2,1078 <main+0x120>
     fe4:	mv	a6,a5
     fe8:	li	a0,0
			in_w(MAZE[x][y],  (x==0||x==xsize-1||y==0||y==ysize-1)?1:0);
     fec:	addi	a3,a0,-29
     ff0:	seqz	a4,a3
			left_w(MAZE[x][y], ((x==0||y==0||y==ysize-1)?0:1));
     ff4:	snez	a1,a3
			in_w(MAZE[x][y],  (x==0||x==xsize-1||y==0||y==ysize-1)?1:0);
     ff8:	lw	a3,0(a6)
			left_w(MAZE[x][y], ((x==0||y==0||y==ysize-1)?0:1));
     ffc:	slli	a1,a1,0x2
			in_w(MAZE[x][y],  (x==0||x==xsize-1||y==0||y==ysize-1)?1:0);
    1000:	andi	a7,a3,-2
    1004:	or	a4,a4,a7
			left_w(MAZE[x][y], ((x==0||y==0||y==ysize-1)?0:1));
    1008:	andi	a4,a4,-7
    100c:	ori	a4,a4,2
    1010:	or	a4,a4,a1
			in_w(MAZE[x][y],  (x==0||x==xsize-1||y==0||y==ysize-1)?1:0);
    1014:	beqz	a0,1060 <main+0x108>
			left_w(MAZE[x][y], ((x==0||y==0||y==ysize-1)?0:1));
    1018:	sw	a4,0(a6)
		for(int y=0;y<ysize;y++){
    101c:	bne	a0,s8,106c <main+0x114>
    1020:	addi	a5,a5,120
	for(int x=0;x<xsize;x++){
    1024:	addi	a2,a2,1
    1028:	bne	s1,a5,fdc <main+0x84>
		*LEDS=2;
    102c:	li	a5,2
    1030:	sw	a5,0(s0)
		generate();        //generate the maze
    1034:	jal	ra,4bc <generate>
		*LEDS=3;
    1038:	li	a5,3
    103c:	sw	a5,0(s0)
		draw_maze();	   // draws the maze
    1040:	jal	ra,158 <draw_maze>
		*LEDS=4;
    1044:	li	a5,4
    1048:	sw	a5,0(s0)
		while((*SWITCHES&1)==0);
    104c:	lui	a4,0x11000
    1050:	lw	a5,0(a4) # 11000000 <__sp+0x10ff0000>
    1054:	andi	a5,a5,1
    1058:	beqz	a5,1050 <main+0xf8>
    105c:	j	fbc <main+0x64>
			left_w(MAZE[x][y], ((x==0||y==0||y==ysize-1)?0:1));
    1060:	andi	a3,a3,-8
    1064:	ori	a3,a3,1
    1068:	sw	a3,0(a6)
    106c:	addi	a0,a0,1
    1070:	addi	a6,a6,4
    1074:	j	fec <main+0x94>
	for(int x=0;x<xsize;x++){
    1078:	mv	a0,a5
			left_w(MAZE[x][y], ((x==0||y==0||y==ysize-1)?0:1));
    107c:	lw	a3,0(a0)
	for(int x=0;x<xsize;x++){
    1080:	li	a1,0
			left_w(MAZE[x][y], ((x==0||y==0||y==ysize-1)?0:1));
    1084:	addi	a4,a1,-29
    1088:	snez	a4,a4
    108c:	andi	a3,a3,-8
    1090:	slli	a4,a4,0x2
    1094:	ori	a3,a3,1
    1098:	or	a4,a4,a3
    109c:	beqz	a1,10d0 <main+0x178>
    10a0:	sw	a4,0(a0)
		for(int y=0;y<ysize;y++){
    10a4:	beq	a1,s8,1020 <main+0xc8>
    10a8:	addi	a1,a1,1
    10ac:	addi	a0,a0,4
			left_w(MAZE[x][y], ((x==0||y==0||y==ysize-1)?0:1));
    10b0:	lw	a3,0(a0)
    10b4:	addi	a4,a1,-29
    10b8:	snez	a4,a4
    10bc:	andi	a3,a3,-8
    10c0:	slli	a4,a4,0x2
    10c4:	ori	a3,a3,1
    10c8:	or	a4,a4,a3
    10cc:	bnez	a1,10a0 <main+0x148>
    10d0:	sw	a3,0(a0)
    10d4:	addi	a1,a1,1
    10d8:	addi	a0,a0,4
    10dc:	j	10b0 <main+0x158>
int main(){
    10e0:	mv	a4,a5
    10e4:	addi	a5,a5,120
			left_w(MAZE[x][y], ((x==0||y==0||y==ysize-1)?0:1));
    10e8:	lw	a3,0(a4)
    10ec:	addi	a4,a4,4
    10f0:	andi	a3,a3,-8
    10f4:	ori	a3,a3,1
    10f8:	sw	a3,-4(a4)
		for(int y=0;y<ysize;y++){
    10fc:	beq	a4,a5,1024 <main+0xcc>
    1100:	j	10e8 <main+0x190>
