
build/program.elf:     file format elf32-littleriscv

Contents of section .text.init:
 0000 17010100 130101fe ef00c000 ef00401e  ..............@.
 0010 6f000000                             o...            
Contents of section .text:
 0014 97110000 9381c19d 138501f8 138601f8  ................
 0024 3306a640 93050000 ef00800e 17050000  3..@............
 0034 1305453b 63080500 17050000 1305c53b  ..E;c..........;
 0044 ef00003a ef00c01d 03250100 93054100  ...:.....%....A.
 0054 13060000 ef008019 6f008019 130101ff  ........o.......
 0064 23248100 83470052 23261100 63900702  #$...G.R#&..c...
 0074 93070000 63880700 138501f8 97000000  ....c...........
 0084 e7000000 93071000 2300f052 8320c100  ........#..R. ..
 0094 03248100 13010101 67800000 93070000  .$......g.......
 00a4 638a0700 93054052 138501f8 17030000  c.....@R........
 00b4 67000000 67800000 130101ff 23261100  g...g.......#&..
 00c4 634cb500 635cb000 ef004002 8320c100  cL..c\....@.. ..
 00d4 13010101 67800000 e348a0fe 8320c100  ....g....H... ..
 00e4 13050000 13010101 67800000 13060500  ........g.......
 00f4 13050000 93f61500 63840600 3305c500  ........c...3...
 0104 93d51500 13161600 e39605fe 67800000  ............g...
 0114 1303f000 13070500 637ec302 9377f700  ........c~...w..
 0124 6390070a 63920508 937606ff 1376f600  c...c....v...v..
 0134 b386e600 2320b700 2322b700 2324b700  ....# ..#"..#$..
 0144 2326b700 13070701 e366d7fe 63140600  #&.......f..c...
 0154 67800000 b306c340 93962600 97020000  g......@..&.....
 0164 b3865600 6780c600 2307b700 a306b700  ..V.g...#.......
 0174 2306b700 a305b700 2305b700 a304b700  #.......#.......
 0184 2304b700 a303b700 2303b700 a302b700  #.......#.......
 0194 2302b700 a301b700 2301b700 a300b700  #.......#.......
 01a4 2300b700 67800000 93f5f50f 93968500  #...g...........
 01b4 b3e5d500 93960501 b3e5d500 6ff0dff6  ............o...
 01c4 93962700 97020000 b3865600 93820000  ..'.......V.....
 01d4 e78006fa 93800200 938707ff 3307f740  ............3..@
 01e4 3306f600 e378c3f6 6ff0dff3           3....x..o...    
Contents of section .text.startup:
 01f0 67800000                             g...            
Contents of section .text.exit:
 01f4 130101ff 93050000 23248100 23261100  ........#$..#&..
 0204 13040500 ef00c00b 03a5c1f7 8327c503  .............'..
 0214 63840700 e7800700 13050400 ef00402c  c.............@,
Contents of section .text.__libc_init_array:
 0224 130101ff 23248100 23202101 93070000  ....#$..# !.....
 0234 13070000 23261100 23229100 3389e740  ....#&..#"..3..@
 0244 6382e702 13592940 13040000 93040000  c....Y)@........
 0254 83270400 93841400 13044400 e7800700  .'........D.....
 0264 e3e824ff 93070000 13070000 3389e740  ..$.........3..@
 0274 13592940 6380e702 13040000 93040000  .Y)@c...........
 0284 83270400 93841400 13044400 e7800700  .'........D.....
 0294 e3e824ff 8320c100 03248100 83244100  ..$.. ...$...$A.
 02a4 03290100 13010101 67800000           .)......g...    
Contents of section .text.startup.register_fini:
 02b0 93070000 63860700 1305803f 6f008012  ....c......?o...
 02c0 67800000                             g...            
Contents of section .text.__call_exitprocs:
 02c4 130101fd 232c4101 03aac1f7 23202103  ....#,A.....# !.
 02d4 23261102 03298a14 23248102 23229102  #&...)..#$..#"..
 02e4 232e3101 232a5101 23286101 23267101  #.1.#*Q.#(a.#&q.
 02f4 23248101 63000904 130b0500 938b0500  #$..c...........
 0304 930a1000 9309f0ff 83244900 1384f4ff  .........$I.....
 0314 63420402 93942400 b3049900 63840b04  cB....$.....c...
 0324 83a74410 63807705 1304f4ff 9384c4ff  ..D.c.w.........
 0334 e31634ff 8320c102 03248102 83244102  ..4.. ...$...$A.
 0344 03290102 8329c101 032a8101 832a4101  .)...)...*...*A.
 0354 032b0101 832bc100 032c8100 13010103  .+...+...,......
 0364 67800000 83274900 83a64400 9387f7ff  g....'I...D.....
 0374 638e8704 23a20400 e38806fa 83278918  c...#........'..
 0384 33978a00 032c4900 b377f700 63920702  3....,I..w..c...
 0394 e7800600 03274900 83278a14 63148701  .....'I..'..c...
 03a4 e38427f9 e38807f8 13890700 6ff0dff5  ..'.........o...
 03b4 8327c918 83a54408 3377f700 631c0700  .'....D.3w..c...
 03c4 13050b00 e7800600 6ff0dffc 23228900  ........o...#"..
 03d4 6ff09ffa 13850500 e7800600 6ff09ffb  o...........o...
Contents of section .text.atexit:
 03e4 93050500 93060000 13060000 13050000  ................
 03f4 6f008005                             o...            
Contents of section .text.__libc_fini_array:
 03f8 130101ff 23248100 93070000 13040000  ....#$..........
 0408 3304f440 23229100 23261100 93542440  3..@#"..#&...T$@
 0418 63800402 1304c4ff 3304f400 83270400  c.......3....'..
 0428 9384f4ff 1304c4ff e7800700 e39804fe  ................
 0438 8320c100 03248100 83244100 13010101  . ...$...$A.....
 0448 67800000                             g...            
Contents of section .text.__register_exitproc:
 044c 03a7c1f7 83278714 638c0704 03a74700  .....'..c.....G.
 045c 1308f001 634ee806 13182700 63060502  ....cN....'.c...
 046c 33830701 2324c308 83a88718 13061000  3...#$..........
 047c 3316e600 b3e8c800 23a41719 2324d310  3.......#...#$..
 048c 93062000 6304d502 13071700 23a2e700  .. .c.......#...
 049c b3870701 23a4b700 13050000 67800000  ....#.......g...
 04ac 9307c714 2324f714 6ff05ffa 83a6c718  ....#$..o._.....
 04bc 13071700 23a2e700 b3e6c600 23a6d718  ....#.......#...
 04cc b3870701 23a4b700 13050000 67800000  ....#.......g...
 04dc 1305f0ff 67800000                    ....g...        
Contents of section .text._exit:
 04e4 9308d005 73000000 63440500 6f000000  ....s...cD..o...
 04f4 130101ff 23248100 13040500 23261100  ....#$......#&..
 0504 33048040 ef00c000 23208500 6f000000  3..@....# ..o...
Contents of section .text.__errno:
 0514 03a5c1f8 67800000                    ....g...        
Contents of section .data:
 0520 00000000 00000000 00000000 00000000  ................
 0530 00000000 00000000 00000000 00000000  ................
 0540 00000000 2c080000 94080000 fc080000  ....,...........
 0550 00000000 00000000 00000000 00000000  ................
 0560 00000000 00000000 00000000 00000000  ................
 0570 00000000 00000000 00000000 00000000  ................
 0580 00000000 00000000 00000000 00000000  ................
 0590 00000000 00000000 00000000 00000000  ................
 05a0 00000000 00000000 00000000 00000000  ................
 05b0 00000000 00000000 00000000 00000000  ................
 05c0 00000000 00000000 00000000 00000000  ................
 05d0 00000000 00000000 00000000 00000000  ................
 05e0 00000000 00000000 01000000 00000000  ................
 05f0 0e33cdab 34126de6 ecde0500 0b000000  .3..4.m.........
 0600 00000000 00000000 00000000 00000000  ................
 0610 00000000 00000000 00000000 00000000  ................
 0620 00000000 00000000 00000000 00000000  ................
 0630 00000000 00000000 00000000 00000000  ................
 0640 00000000 00000000 00000000 00000000  ................
 0650 00000000 00000000 00000000 00000000  ................
 0660 00000000 00000000 00000000 00000000  ................
 0670 00000000 00000000 00000000 00000000  ................
 0680 00000000 00000000 00000000 00000000  ................
 0690 00000000 00000000 00000000 00000000  ................
 06a0 00000000 00000000 00000000 00000000  ................
 06b0 00000000 00000000 00000000 00000000  ................
 06c0 00000000 00000000 00000000 00000000  ................
 06d0 00000000 00000000 00000000 00000000  ................
 06e0 00000000 00000000 00000000 00000000  ................
 06f0 00000000 00000000 00000000 00000000  ................
 0700 00000000 00000000 00000000 00000000  ................
 0710 00000000 00000000 00000000 00000000  ................
 0720 00000000 00000000 00000000 00000000  ................
 0730 00000000 00000000 00000000 00000000  ................
 0740 00000000 00000000 00000000 00000000  ................
 0750 00000000 00000000 00000000 00000000  ................
 0760 00000000 00000000 00000000 00000000  ................
 0770 00000000 00000000 00000000 00000000  ................
 0780 00000000 00000000 00000000 00000000  ................
 0790 00000000 00000000 00000000 00000000  ................
 07a0 00000000 00000000 00000000 00000000  ................
 07b0 00000000 00000000 00000000 00000000  ................
 07c0 00000000 00000000 00000000 00000000  ................
 07d0 00000000 00000000 00000000 00000000  ................
 07e0 00000000 00000000 00000000 00000000  ................
 07f0 00000000 00000000 00000000 00000000  ................
 0800 00000000 00000000 00000000 00000000  ................
 0810 00000000 00000000 00000000 00000000  ................
 0820 00000000 00000000 00000000 00000000  ................
 0830 00000000 00000000 00000000 00000000  ................
 0840 00000000 00000000 00000000 00000000  ................
 0850 00000000 00000000 00000000 00000000  ................
 0860 00000000 00000000 00000000 00000000  ................
 0870 00000000 00000000 00000000 00000000  ................
 0880 00000000 00000000 00000000 00000000  ................
 0890 00000000 00000000 00000000 00000000  ................
 08a0 00000000 00000000 00000000 00000000  ................
 08b0 00000000 00000000 00000000 00000000  ................
 08c0 00000000 00000000 00000000 00000000  ................
 08d0 00000000 00000000 00000000 00000000  ................
 08e0 00000000 00000000 00000000 00000000  ................
 08f0 00000000 00000000 00000000 00000000  ................
 0900 00000000 00000000 00000000 00000000  ................
 0910 00000000 00000000 00000000 00000000  ................
 0920 00000000 00000000 00000000 00000000  ................
 0930 00000000 00000000 00000000 00000000  ................
 0940 00000000 00000000 00000000 00000000  ................
 0950 00000000 00000000 00000000 00000000  ................
 0960 00000000 00000000 00000000 40050000  ............@...
Contents of section .eh_frame:
 0970 00000000                             ....            
Contents of section .fini_array:
 0974 60000000                             `...            
Contents of section .init_array:
 0978 a0000000                             ....            
Contents of section .sdata._impure_ptr:
 097c 40050000                             @...            
Contents of section .init_array.00000:
 0980 b0020000                             ....            
Contents of section .riscv.attributes:
 0000 411b0000 00726973 63760001 11000000  A....riscv......
 0010 04100572 76333269 32703100           ...rv32i2p1.    
Contents of section .comment:
 0000 4743433a 20282920 31322e32 2e300047  GCC: () 12.2.0.G
 0010 43433a20 28474e55 29203132 2e322e30  CC: (GNU) 12.2.0
 0020 00                                   .               
Contents of section .debug_line:
 0000 56000000 05000400 2e000000 010101fb  V...............
 0010 0e0d0001 01010100 00000100 00010101  ................
 0020 1f020000 00004700 00000201 1f020f02  ......G.........
 0030 4b000000 014b0000 00010005 02000000  K....K..........
 0040 00180302 09080001 03020904 00010303  ................
 0050 09040001 09040000 0101ec00 00000500  ................
 0060 04002e00 00000101 01fb0e0d 00010101  ................
 0070 01000000 01000001 01011f02 00000000  ................
 0080 47000000 02011f02 0f025600 00000156  G.........V....V
 0090 00000001 05180005 02bc0000 00010502  ................
 00a0 03010900 00010301 09000001 05180603  ................
 00b0 7e090000 01050503 02090800 01051206  ~...............
 00c0 03060904 00010504 03010904 00010517  ................
 00d0 037f0900 00010512 03000900 0001050c  ................
 00e0 06030109 00000105 01030409 04000105  ................
 00f0 12060376 090c0001 05010603 0a090400  ...v............
 0100 01050603 74090400 01050206 030b0904  ....t...........
 0110 00010501 06030109 00000109 08000001  ................
 0120 01050100 0502f001 00000310 01050203  ................
 0130 01090000 01030109 00000105 01060301  ................
 0140 09000001 09040000 01017600 00000500  ..........v.....
 0150 04002e00 00000101 01fb0e0d 00010101  ................
 0160 01000000 01000001 01011f02 5d000000  ............]...
 0170 b7000000 02011f02 0f02da00 000001da  ................
 0180 00000001 000502f0 00000003 24010301  ............$...
 0190 09040001 03020904 00010301 09040001  ................
 01a0 03010904 00010302 09040001 03010904  ................
 01b0 00010301 09040001 03010904 00010904  ................
 01c0 00000101                             ....            
Contents of section .debug_line_str:
 0000 2f6d6e74 2f7a2f73 63686f6f 6c66696c  /mnt/z/schoolfil
 0010 65732f73 63686f6f 6c5f6669 6c65732f  es/school_files/
 0020 63706533 33332f4c 6162305f 315f7065  cpe333/Lab0_1_pe
 0030 72666f72 6d616e63 652f7072 6f677261  rformance/progra
 0040 6d732f6d 756c0073 72630069 6e69742e  ms/mul.src.init.
 0050 73007372 632f6d61 696e2e63 002f686f  s.src/main.c./ho
 0060 6d652f64 616e6e79 2f637065 3333332f  me/danny/cpe333/
 0070 72697363 762d676e 752d746f 6f6c6368  riscv-gnu-toolch
 0080 61696e2f 6275696c 642d6763 632d6e65  ain/build-gcc-ne
 0090 776c6962 2d737461 6765322f 72697363  wlib-stage2/risc
 00a0 7633322d 756e6b6e 6f776e2d 656c662f  v32-unknown-elf/
 00b0 6c696267 6363002e 2e2f2e2e 2f2e2e2f  libgcc.../../../
 00c0 2e2f6763 632f6c69 62676363 2f636f6e  ./gcc/libgcc/con
 00d0 6669672f 72697363 76006d75 6c646933  fig/riscv.muldi3
 00e0 2e5300                               .S.             
Contents of section .debug_info:
 0000 20000000 05000104 00000000 01000000   ...............
 0010 00000000 001c0000 00000b00 00005200  ..............R.
 0020 00000180 02010000 05000104 14000000  ................
 0030 067b0000 001d5200 00000000 00000c00  .{....R.........
 0040 00000000 00005a00 00000776 00000001  ......Z....v....
 0050 1006f001 00000400 0000019c 47000000  ............G...
 0060 02660000 00124700 00000008 0405696e  .f....G.......in
 0070 74000961 00000001 01054700 0000019b  t..a......G.....
 0080 00000003 61000e47 00000003 62001547  ....a..G....b..G
 0090 00000002 cc000000 02470000 000a8700  .........G......
 00a0 00000469 00044700 0000000b 04690009  ...i..G......i..
 00b0 47000000 0cd00000 00fc0000 0000000d  G...............
 00c0 4e000000 bc000000 34000000 019cfc00  N.......4.......
 00d0 0000055f 0000000c 00000005 67000000  ..._........g...
 00e0 2c000000 016f0000 00440000 000e8700  ,....o...D......
 00f0 0000c800 00000800 0000e400 00000188  ................
 0100 00000056 00000000 0f790000 00dc0000  ...V.....y......
 0110 00040000 00017e00 00006000 00000000  ......~...`.....
 0120 106d0000 006d0000 00002d00 00000500  .m...m....-.....
 0130 0104f300 0000014a 010000f0 00000024  .......J.......$
 0140 d4000000 00010000 52000000 0180026d  ........R......m
 0150 0000002f f0000000 240300             .../....$..     
Contents of section .debug_abbrev:
 0000 01110010 17110112 0f030e1b 0e250e13  .............%..
 0010 05000000 01340031 13021700 00023400  .....4.1......4.
 0020 030e3a21 013b0b39 21064913 00000305  ..:!.;.9!.I.....
 0030 0003083a 21013b21 01390b49 13000004  ...:!.;!.9.I....
 0040 34000308 3a21013b 0b39210c 49130000  4...:!.;.9!.I...
 0050 05050031 13021700 00061101 250e130b  ...1........%...
 0060 031f1b1f 55171101 10170000 072e013f  ....U..........?
 0070 19030e3a 0b3b0b39 0b110112 0640187a  ...:.;.9.....@.z
 0080 19011300 00082400 0b0b3e0b 03080000  ......$...>.....
 0090 092e013f 19030e3a 0b3b0b39 0b271949  ...?...:.;.9.'.I
 00a0 13200b01 1300000a 0b010113 00000b0b  . ..............
 00b0 0100000c 48007d01 7f130000 0d2e0131  ....H.}........1
 00c0 13110112 0640187a 19011300 000e0b01  .....@.z........
 00d0 31131101 12060113 00000f0b 01311311  1............1..
 00e0 01120600 00102e00 3f193c19 6e0e030e  ........?.<.n...
 00f0 00000001 11011017 1101120f 030e1b0e  ................
 0100 250e1305 0000022e 00030e3f 19491511  %..........?.I..
 0110 01120f00 00033b00 000000             ......;....     
Contents of section .debug_aranges:
 0000 1c000000 02000000 00000400 00000000  ................
 0010 00000000 14000000 00000000 00000000  ................
 0020 24000000 02002400 00000400 00000000  $.....$.........
 0030 bc000000 34000000 f0010000 04000000  ....4...........
 0040 00000000 00000000 1c000000 02002a01  ..............*.
 0050 00000400 00000000 f0000000 24000000  ............$...
 0060 00000000 00000000                    ........        
Contents of section .debug_str:
 0000 7372632f 696e6974 2e73002f 6d6e742f  src/init.s./mnt/
 0010 7a2f7363 686f6f6c 66696c65 732f7363  z/schoolfiles/sc
 0020 686f6f6c 5f66696c 65732f63 70653333  hool_files/cpe33
 0030 332f4c61 62305f31 5f706572 666f726d  3/Lab0_1_perform
 0040 616e6365 2f70726f 6772616d 732f6d75  ance/programs/mu
 0050 6c00474e 55204153 20322e34 302e3930  l.GNU AS 2.40.90
 0060 0066756e 63007265 73756c74 005f5f6d  .func.result.__m
 0070 756c7369 33006d61 696e0047 4e552043  ulsi3.main.GNU C
 0080 31372031 322e322e 30202d6d 6162693d  17 12.2.0 -mabi=
 0090 696c7033 32202d6d 74756e65 3d726f63  ilp32 -mtune=roc
 00a0 6b657420 2d6d6973 612d7370 65633d32  ket -misa-spec=2
 00b0 30313931 32313320 2d6d6172 63683d72  0191213 -march=r
 00c0 76333269 202d6720 2d4f3300 70726f64  v32i -g -O3.prod
 00d0 75637400 2e2e2f2e 2e2f2e2e 2f2e2f67  uct.../../.././g
 00e0 63632f6c 69626763 632f636f 6e666967  cc/libgcc/config
 00f0 2f726973 63762f6d 756c6469 332e5300  /riscv/muldi3.S.
 0100 2f686f6d 652f6461 6e6e792f 63706533  /home/danny/cpe3
 0110 33332f72 69736376 2d676e75 2d746f6f  33/riscv-gnu-too
 0120 6c636861 696e2f62 75696c64 2d676363  lchain/build-gcc
 0130 2d6e6577 6c69622d 73746167 65322f72  -newlib-stage2/r
 0140 69736376 33322d75 6e6b6e6f 776e2d65  iscv32-unknown-e
 0150 6c662f6c 69626763 6300               lf/libgcc.      
Contents of section .debug_loclists:
 0000 66000000 05000400 00000000 06bc0000  f...............
 0010 00040013 015a0413 2004a301 5a9f0420  .....Z.. ...Z.. 
 0020 2c015a04 2c3404a3 015a9f00 06bc0000  ,.Z.,4...Z......
 0030 00040013 015b0413 2004a301 5b9f0420  .....[.. ...[.. 
 0040 34015b00 06bc0000 00040010 02309f04  4.[..........0..
 0050 20340230 9f0008c8 00000004 02309f00   4.0.........0..
 0060 08dc0000 00040230 9f00               .......0..      
Contents of section .debug_rnglists:
 0000 15000000 05000400 00000000 07bc0000  ................
 0010 003407f0 01000004 00                 .4.......       
Contents of section .debug_frame:
 0000 0c000000 ffffffff 0300017c 010d0200  ...........|....
 0010 20000000 00000000 bc000000 34000000   ...........4...
 0020 440e1044 8101500a c1440e00 440b48c1  D..D..P..D..D.H.
 0030 480e0000 0c000000 00000000 f0010000  H...............
 0040 04000000                             ....            

Disassembly of section .text.init:

00000000 <entry>:
# This code is executed first.

.section .text.init
entry:

    la    sp, __sp-32   # set up the stack pointer, using a constant defined in the linker script.
   0:	auipc	sp,0x10
   4:	add	sp,sp,-32 # ffe0 <__global_pointer$+0xf5f0>
  
   call _start		# use this if using C runtime, std c library
   8:	jal	14 <_start>
  
    call  main          # call the main function if barebones assembly/C
   c:	jal	1f0 <main>

00000010 <end>:

end:
    j end               # loop when finished if there is no environment to return to.
  10:	j	10 <end>

Disassembly of section .text:

00000014 <_start>:
  14:	auipc	gp,0x1
  18:	add	gp,gp,-1572 # 9f0 <__global_pointer$>
  1c:	add	a0,gp,-128 # 970 <__EH_FRAME_BEGIN__>
  20:	add	a2,gp,-128 # 970 <__EH_FRAME_BEGIN__>
  24:	sub	a2,a2,a0
  28:	li	a1,0
  2c:	jal	114 <memset>
  30:	auipc	a0,0x0
  34:	add	a0,a0,948 # 3e4 <atexit>
  38:	beqz	a0,48 <_start+0x34>
  3c:	auipc	a0,0x0
  40:	add	a0,a0,956 # 3f8 <__libc_fini_array>
  44:	jal	3e4 <atexit>
  48:	jal	224 <__libc_init_array>
  4c:	lw	a0,0(sp)
  50:	add	a1,sp,4
  54:	li	a2,0
  58:	jal	1f0 <main>
  5c:	j	1f4 <exit>

00000060 <__do_global_dtors_aux>:
  60:	add	sp,sp,-16
  64:	sw	s0,8(sp)
  68:	lbu	a5,1312(zero) # 520 <completed.1>
  6c:	sw	ra,12(sp)
  70:	bnez	a5,90 <__do_global_dtors_aux+0x30>
  74:	li	a5,0
  78:	beqz	a5,88 <__do_global_dtors_aux+0x28>
  7c:	add	a0,gp,-128 # 970 <__EH_FRAME_BEGIN__>
  80:	auipc	ra,0x0
  84:	jalr	zero # 0 <entry>
  88:	li	a5,1
  8c:	sb	a5,1312(zero) # 520 <completed.1>
  90:	lw	ra,12(sp)
  94:	lw	s0,8(sp)
  98:	add	sp,sp,16
  9c:	ret

000000a0 <frame_dummy>:
  a0:	li	a5,0
  a4:	beqz	a5,b8 <frame_dummy+0x18>
  a8:	li	a1,1316
  ac:	add	a0,gp,-128 # 970 <__EH_FRAME_BEGIN__>
  b0:	auipc	t1,0x0
  b4:	jr	zero # 0 <entry>
  b8:	ret

000000bc <func>:
int func(int a, int b) {
  bc:	add	sp,sp,-16
  c0:	sw	ra,12(sp)
	int product = 0;
	if (a < b) {
  c4:	blt	a0,a1,dc <func+0x20>
		for (int i=0; i<a; i++) {
			product += b;
		}
	}
	else {
		for (int i=0; i<b; i++) {
  c8:	blez	a1,e0 <func+0x24>
			product += a;
  cc:	jal	f0 <__mulsi3>
		}
	}
	return product;
}
  d0:	lw	ra,12(sp)
  d4:	add	sp,sp,16
  d8:	ret
		for (int i=0; i<a; i++) {
  dc:	bgtz	a0,cc <func+0x10>
}
  e0:	lw	ra,12(sp)
	int product = 0;
  e4:	li	a0,0
}
  e8:	add	sp,sp,16
  ec:	ret

000000f0 <__mulsi3>:
/* Our RV64 64-bit routine is equivalent to our RV32 32-bit routine.  */
# define __muldi3 __mulsi3
#endif

FUNC_BEGIN (__muldi3)
  mv     a2, a0
  f0:	mv	a2,a0
  li     a0, 0
  f4:	li	a0,0
.L1:
  andi   a3, a1, 1
  f8:	and	a3,a1,1
  beqz   a3, .L2
  fc:	beqz	a3,104 <__mulsi3+0x14>
  add    a0, a0, a2
 100:	add	a0,a0,a2
.L2:
  srli   a1, a1, 1
 104:	srl	a1,a1,0x1
  slli   a2, a2, 1
 108:	sll	a2,a2,0x1
  bnez   a1, .L1
 10c:	bnez	a1,f8 <__mulsi3+0x8>
  ret
 110:	ret

00000114 <memset>:
 114:	li	t1,15
 118:	mv	a4,a0
 11c:	bgeu	t1,a2,158 <memset+0x44>
 120:	and	a5,a4,15
 124:	bnez	a5,1c4 <memset+0xb0>
 128:	bnez	a1,1ac <memset+0x98>
 12c:	and	a3,a2,-16
 130:	and	a2,a2,15
 134:	add	a3,a3,a4
 138:	sw	a1,0(a4)
 13c:	sw	a1,4(a4)
 140:	sw	a1,8(a4)
 144:	sw	a1,12(a4)
 148:	add	a4,a4,16
 14c:	bltu	a4,a3,138 <memset+0x24>
 150:	bnez	a2,158 <memset+0x44>
 154:	ret
 158:	sub	a3,t1,a2
 15c:	sll	a3,a3,0x2
 160:	auipc	t0,0x0
 164:	add	a3,a3,t0
 168:	jr	12(a3)
 16c:	sb	a1,14(a4)
 170:	sb	a1,13(a4)
 174:	sb	a1,12(a4)
 178:	sb	a1,11(a4)
 17c:	sb	a1,10(a4)
 180:	sb	a1,9(a4)
 184:	sb	a1,8(a4)
 188:	sb	a1,7(a4)
 18c:	sb	a1,6(a4)
 190:	sb	a1,5(a4)
 194:	sb	a1,4(a4)
 198:	sb	a1,3(a4)
 19c:	sb	a1,2(a4)
 1a0:	sb	a1,1(a4)
 1a4:	sb	a1,0(a4)
 1a8:	ret
 1ac:	zext.b	a1,a1
 1b0:	sll	a3,a1,0x8
 1b4:	or	a1,a1,a3
 1b8:	sll	a3,a1,0x10
 1bc:	or	a1,a1,a3
 1c0:	j	12c <memset+0x18>
 1c4:	sll	a3,a5,0x2
 1c8:	auipc	t0,0x0
 1cc:	add	a3,a3,t0
 1d0:	mv	t0,ra
 1d4:	jalr	-96(a3)
 1d8:	mv	ra,t0
 1dc:	add	a5,a5,-16
 1e0:	sub	a4,a4,a5
 1e4:	add	a2,a2,a5
 1e8:	bgeu	t1,a2,158 <memset+0x44>
 1ec:	j	128 <memset+0x14>

Disassembly of section .text.startup:

000001f0 <main>:

void main()
{
	int result = func(10, 2);
	return;
 1f0:	ret

Disassembly of section .text.exit:

000001f4 <exit>:
 1f4:	add	sp,sp,-16
 1f8:	li	a1,0
 1fc:	sw	s0,8(sp)
 200:	sw	ra,12(sp)
 204:	mv	s0,a0
 208:	jal	2c4 <__call_exitprocs>
 20c:	lw	a0,-132(gp) # 96c <_global_impure_ptr>
 210:	lw	a5,60(a0)
 214:	beqz	a5,21c <exit+0x28>
 218:	jalr	a5
 21c:	mv	a0,s0
 220:	jal	4e4 <_exit>

Disassembly of section .text.__libc_init_array:

00000224 <__libc_init_array>:
 224:	add	sp,sp,-16
 228:	sw	s0,8(sp)
 22c:	sw	s2,0(sp)
 230:	li	a5,0
 234:	li	a4,0
 238:	sw	ra,12(sp)
 23c:	sw	s1,4(sp)
 240:	sub	s2,a5,a4
 244:	beq	a5,a4,268 <__libc_init_array+0x44>
 248:	sra	s2,s2,0x2
 24c:	li	s0,0
 250:	li	s1,0
 254:	lw	a5,0(s0)
 258:	add	s1,s1,1
 25c:	add	s0,s0,4
 260:	jalr	a5
 264:	bltu	s1,s2,254 <__libc_init_array+0x30>
 268:	li	a5,0
 26c:	li	a4,0
 270:	sub	s2,a5,a4
 274:	sra	s2,s2,0x2
 278:	beq	a5,a4,298 <__libc_init_array+0x74>
 27c:	li	s0,0
 280:	li	s1,0
 284:	lw	a5,0(s0)
 288:	add	s1,s1,1
 28c:	add	s0,s0,4
 290:	jalr	a5
 294:	bltu	s1,s2,284 <__libc_init_array+0x60>
 298:	lw	ra,12(sp)
 29c:	lw	s0,8(sp)
 2a0:	lw	s1,4(sp)
 2a4:	lw	s2,0(sp)
 2a8:	add	sp,sp,16
 2ac:	ret

Disassembly of section .text.startup.register_fini:

000002b0 <register_fini>:
 2b0:	li	a5,0
 2b4:	beqz	a5,2c0 <register_fini+0x10>
 2b8:	li	a0,1016
 2bc:	j	3e4 <atexit>
 2c0:	ret

Disassembly of section .text.__call_exitprocs:

000002c4 <__call_exitprocs>:
 2c4:	add	sp,sp,-48
 2c8:	sw	s4,24(sp)
 2cc:	lw	s4,-132(gp) # 96c <_global_impure_ptr>
 2d0:	sw	s2,32(sp)
 2d4:	sw	ra,44(sp)
 2d8:	lw	s2,328(s4)
 2dc:	sw	s0,40(sp)
 2e0:	sw	s1,36(sp)
 2e4:	sw	s3,28(sp)
 2e8:	sw	s5,20(sp)
 2ec:	sw	s6,16(sp)
 2f0:	sw	s7,12(sp)
 2f4:	sw	s8,8(sp)
 2f8:	beqz	s2,338 <__call_exitprocs+0x74>
 2fc:	mv	s6,a0
 300:	mv	s7,a1
 304:	li	s5,1
 308:	li	s3,-1
 30c:	lw	s1,4(s2)
 310:	add	s0,s1,-1
 314:	bltz	s0,338 <__call_exitprocs+0x74>
 318:	sll	s1,s1,0x2
 31c:	add	s1,s2,s1
 320:	beqz	s7,368 <__call_exitprocs+0xa4>
 324:	lw	a5,260(s1)
 328:	beq	a5,s7,368 <__call_exitprocs+0xa4>
 32c:	add	s0,s0,-1
 330:	add	s1,s1,-4
 334:	bne	s0,s3,320 <__call_exitprocs+0x5c>
 338:	lw	ra,44(sp)
 33c:	lw	s0,40(sp)
 340:	lw	s1,36(sp)
 344:	lw	s2,32(sp)
 348:	lw	s3,28(sp)
 34c:	lw	s4,24(sp)
 350:	lw	s5,20(sp)
 354:	lw	s6,16(sp)
 358:	lw	s7,12(sp)
 35c:	lw	s8,8(sp)
 360:	add	sp,sp,48
 364:	ret
 368:	lw	a5,4(s2)
 36c:	lw	a3,4(s1)
 370:	add	a5,a5,-1
 374:	beq	a5,s0,3d0 <__call_exitprocs+0x10c>
 378:	sw	zero,4(s1)
 37c:	beqz	a3,32c <__call_exitprocs+0x68>
 380:	lw	a5,392(s2)
 384:	sll	a4,s5,s0
 388:	lw	s8,4(s2)
 38c:	and	a5,a4,a5
 390:	bnez	a5,3b4 <__call_exitprocs+0xf0>
 394:	jalr	a3
 398:	lw	a4,4(s2)
 39c:	lw	a5,328(s4)
 3a0:	bne	a4,s8,3a8 <__call_exitprocs+0xe4>
 3a4:	beq	a5,s2,32c <__call_exitprocs+0x68>
 3a8:	beqz	a5,338 <__call_exitprocs+0x74>
 3ac:	mv	s2,a5
 3b0:	j	30c <__call_exitprocs+0x48>
 3b4:	lw	a5,396(s2)
 3b8:	lw	a1,132(s1)
 3bc:	and	a4,a4,a5
 3c0:	bnez	a4,3d8 <__call_exitprocs+0x114>
 3c4:	mv	a0,s6
 3c8:	jalr	a3
 3cc:	j	398 <__call_exitprocs+0xd4>
 3d0:	sw	s0,4(s2)
 3d4:	j	37c <__call_exitprocs+0xb8>
 3d8:	mv	a0,a1
 3dc:	jalr	a3
 3e0:	j	398 <__call_exitprocs+0xd4>

Disassembly of section .text.atexit:

000003e4 <atexit>:
 3e4:	mv	a1,a0
 3e8:	li	a3,0
 3ec:	li	a2,0
 3f0:	li	a0,0
 3f4:	j	44c <__register_exitproc>

Disassembly of section .text.__libc_fini_array:

000003f8 <__libc_fini_array>:
 3f8:	add	sp,sp,-16
 3fc:	sw	s0,8(sp)
 400:	li	a5,0
 404:	li	s0,0
 408:	sub	s0,s0,a5
 40c:	sw	s1,4(sp)
 410:	sw	ra,12(sp)
 414:	sra	s1,s0,0x2
 418:	beqz	s1,438 <__libc_fini_array+0x40>
 41c:	add	s0,s0,-4
 420:	add	s0,s0,a5
 424:	lw	a5,0(s0)
 428:	add	s1,s1,-1
 42c:	add	s0,s0,-4
 430:	jalr	a5
 434:	bnez	s1,424 <__libc_fini_array+0x2c>
 438:	lw	ra,12(sp)
 43c:	lw	s0,8(sp)
 440:	lw	s1,4(sp)
 444:	add	sp,sp,16
 448:	ret

Disassembly of section .text.__register_exitproc:

0000044c <__register_exitproc>:
 44c:	lw	a4,-132(gp) # 96c <_global_impure_ptr>
 450:	lw	a5,328(a4)
 454:	beqz	a5,4ac <__register_exitproc+0x60>
 458:	lw	a4,4(a5)
 45c:	li	a6,31
 460:	blt	a6,a4,4dc <__register_exitproc+0x90>
 464:	sll	a6,a4,0x2
 468:	beqz	a0,494 <__register_exitproc+0x48>
 46c:	add	t1,a5,a6
 470:	sw	a2,136(t1) # 138 <memset+0x24>
 474:	lw	a7,392(a5)
 478:	li	a2,1
 47c:	sll	a2,a2,a4
 480:	or	a7,a7,a2
 484:	sw	a7,392(a5)
 488:	sw	a3,264(t1)
 48c:	li	a3,2
 490:	beq	a0,a3,4b8 <__register_exitproc+0x6c>
 494:	add	a4,a4,1
 498:	sw	a4,4(a5)
 49c:	add	a5,a5,a6
 4a0:	sw	a1,8(a5)
 4a4:	li	a0,0
 4a8:	ret
 4ac:	add	a5,a4,332
 4b0:	sw	a5,328(a4)
 4b4:	j	458 <__register_exitproc+0xc>
 4b8:	lw	a3,396(a5)
 4bc:	add	a4,a4,1
 4c0:	sw	a4,4(a5)
 4c4:	or	a3,a3,a2
 4c8:	sw	a3,396(a5)
 4cc:	add	a5,a5,a6
 4d0:	sw	a1,8(a5)
 4d4:	li	a0,0
 4d8:	ret
 4dc:	li	a0,-1
 4e0:	ret

Disassembly of section .text._exit:

000004e4 <_exit>:
 4e4:	li	a7,93
 4e8:	ecall
 4ec:	bltz	a0,4f4 <_exit+0x10>
 4f0:	j	4f0 <_exit+0xc>
 4f4:	add	sp,sp,-16
 4f8:	sw	s0,8(sp)
 4fc:	mv	s0,a0
 500:	sw	ra,12(sp)
 504:	neg	s0,s0
 508:	jal	514 <__errno>
 50c:	sw	s0,0(a0)
 510:	j	510 <_exit+0x2c>

Disassembly of section .text.__errno:

00000514 <__errno>:
 514:	lw	a0,-116(gp) # 97c <_impure_ptr>
 518:	ret
