
build/program.elf:     file format elf32-littleriscv

Contents of section .text.init:
 0000 17010100 130101fe 97000000 e7800001  ................
 0010 6f000000                             o...            
Contents of section .text:
 0018 37080011 b7050c11 37060811 1307f0ff  7.......7.......
 0028 97000000 e780801c ef0f401f 97000000  ..........@.....
 0038 e780c01b ef0f4044 97000000 e780001b  ......@D........
 0048 ef0fc066 97000000 e780401a ef0f4079  ...f......@...@y
 0058 97000000 e7808019 ef0f100c 97000000  ................
 0068 e780c018 ef0f901e 97000000 e7800018  ................
 0078 ef0f5048 97000000 e7804017 ef0f906e  ..PH......@....n
 0088 97000000 e7808016 ef1f001e 97000000  ................
 0098 e780c015 ef1f8043 97000000 e7800015  .......C........
 00a8 ef1f0069 97000000 e7804014 ef1f500b  ...i......@...P.
 00b8 97000000 e7808013 ef1fd016 97000000  ................
 00c8 e780c012 ef1f1023 97000000 e7800012  .......#........
 00d8 ef1f902f 97000000 e7804011 ef1f904f  .../......@....O
 00e8 97000000 e7808010 ef1fd072 97000000  ...........r....
 00f8 e780c00f ef2f8017 97000000 e780000f  ...../..........
 0108 ef2f4038 97000000 e780400e ef2f0059  ./@8......@../.Y
 0118 97000000 e780800d ef2fc06f 97000000  ........./.o....
 0128 e780c00c ef2f500d 97000000 e780000c  ...../P.........
 0138 ef2f5020 97000000 e780400b ef2fd033  ./P ......@../.3
 0148 97000000 e780800a ef2fd046 97000000  ........./.F....
 0158 e780c009 ef2fd062 97000000 e7800009  ...../.b........
 0168 ef2f1076 97000000 e7804008 ef3f4012  ./.v......@..?@.
 0178 97000000 e7808007 ef3f0018 97000000  .........?......
 0188 e780c006 ef3f8021 97000000 e7800006  .....?.!........
 0198 ef3f0028 97000000 e7804005 ef3fc034  .?.(......@..?.4
 01a8 97000000 e7808004 ef3fc04c 97000000  .........?.L....
 01b8 e780c003 ef3f007c 97000000 e7800003  .....?.|........
 01c8 ef3f4063 97000000 e7804002 ef3f5014  .?@c......@..?P.
 01d8 97000000 e7808001 ef3f1035 97000000  .........?.5....
 01e8 e780c000 6ff09fe3 83260800 93f61600  ....o....&......
 01f8 e39c06fe 13071700 23a0e500 67800000  ........#...g...
 0208 13151500 13051500 2320a600 67800000  ........# ..g...
 0218 9307f0ff 23a0f500 67800f00 13050000  ....#...g.......
 0228 2320a600 93000000 13010000 338f2000  # ..........3. .
 0238 930e0000 93012000 e31cdffd 97000000  ...... .........
 0248 e78040fc 93001000 13011000 338f2000  ..@.........3. .
 0258 930e2000 93013000 e31cdffb 97000000  .. ...0.........
 0268 e78040fa 93003000 13017000 338f2000  ..@...0...p.3. .
 0278 930ea000 93014000 e31cdff9 97000000  ......@.........
 0288 e78040f8 93000000 3781ffff 338f2000  ..@.....7...3. .
 0298 b78effff 93015000 e31cdff7 97000000  ......P.........
 02a8 e78040f6 b7000080 13010000 338f2000  ..@.........3. .
 02b8 b70e0080 93016000 e31cdff5 97000000  ......`.........
 02c8 e78040f4 b7000080 3781ffff 338f2000  ..@.....7...3. .
 02d8 b78eff7f 93017000 e31cdff3 97000000  ......p.........
 02e8 e78040f2 93000000 37810000 1301f1ff  ..@.....7.......
 02f8 338f2000 b78e0000 938efeff 93018000  3. .............
 0308 e318dff1 97000000 e780c0ef b7000080  ................
 0318 9380f0ff 13010000 338f2000 b70e0080  ........3. .....
 0328 938efeff 93019000 e314dfef 97000000  ................
 0338 e78040ed b7000080 9380f0ff 37810000  ..@.........7...
 0348 1301f1ff 338f2000 b78e0080 938eeeff  ....3. .........
 0358 9301a000 e31edfeb 97000000 e78080ea  ................
 0368 b7000080 37810000 1301f1ff 338f2000  ....7.......3. .
 0378 b78e0080 938efeff 9301b000 e31adfe9  ................
 0388 97000000 e78000e8 b7000080 9380f0ff  ................
 0398 3781ffff 338f2000 b78eff7f 938efeff  7...3. .........
 03a8 9301c000 e316dfe7 97000000 e78080e5  ................
 03b8 93000000 1301f0ff 338f2000 930ef0ff  ........3. .....
 03c8 9301d000 e316dfe5 97000000 e78080e3  ................
 03d8 9300f0ff 13011000 338f2000 930e0000  ........3. .....
 03e8 9301e000 e316dfe3 97000000 e78080e1  ................
 03f8 9300f0ff 1301f0ff 338f2000 930ee0ff  ........3. .....
 0408 9301f000 e316dfe1 97000000 e78080df  ................
 0418 93001000 37010080 1301f1ff 338f2000  ....7.......3. .
 0428 b70e0080 93010001 e314dfdf 97000000  ................
 0438 e78040dd 9300d000 1301b000 b3802000  ..@........... .
 0448 930e8001 93011001 e394d0dd 97000000  ................
 0458 e78040db 9300e000 1301b000 33812000  ..@.........3. .
 0468 930e9001 93012001 e314d1db 97000000  ...... .........
 0478 e78040d9 67800f00 13050000 2320a600  ..@.g.......# ..
 0488 93000000 13010000 338f2040 930e0000  ........3. @....
 0498 93012000 e31edfd7 97000000 e78080d6  .. .............
 04a8 93001000 13011000 338f2040 930e0000  ........3. @....
 04b8 93013000 e31edfd5 97000000 e78080d4  ..0.............
 04c8 93003000 13017000 338f2040 930ec0ff  ..0...p.3. @....
 04d8 93014000 e31edfd3 97000000 e78080d2  ..@.............
 04e8 93000000 3781ffff 338f2040 b78e0000  ....7...3. @....
 04f8 93015000 e31edfd1 97000000 e78080d0  ..P.............
 0508 b7000080 13010000 338f2040 b70e0080  ........3. @....
 0518 93016000 e31edfcf 97000000 e78080ce  ..`.............
 0528 b7000080 3781ffff 338f2040 b78e0080  ....7...3. @....
 0538 93017000 e31edfcd 97000000 e78080cc  ..p.............
 0548 93000000 37810000 1301f1ff 338f2040  ....7.......3. @
 0558 b78effff 938e1e00 93018000 e31adfcb  ................
 0568 97000000 e78000ca b7000080 9380f0ff  ................
 0578 13010000 338f2040 b70e0080 938efeff  ....3. @........
 0588 93019000 e316dfc9 97000000 e78080c7  ................
 0598 b7000080 9380f0ff 37810000 1301f1ff  ........7.......
 05a8 338f2040 b78eff7f 9301a000 e312dfc7  3. @............
 05b8 97000000 e78000c5 b7000080 37810000  ............7...
 05c8 1301f1ff 338f2040 b78eff7f 938e1e00  ....3. @........
 05d8 9301b000 e31edfc3 97000000 e78080c2  ................
 05e8 b7000080 9380f0ff 3781ffff 338f2040  ........7...3. @
 05f8 b78e0080 938efeff 9301c000 e31adfc1  ................
 0608 97000000 e78000c0 93000000 1301f0ff  ................
 0618 338f2040 930e1000 9301d000 e31adfbf  3. @............
 0628 97000000 e78000be 9300f0ff 13011000  ................
 0638 338f2040 930ee0ff 9301e000 e31adfbd  3. @............
 0648 97000000 e78000bc 9300f0ff 1301f0ff  ................
 0658 338f2040 930e0000 9301f000 e31adfbb  3. @............
 0668 97000000 e78000ba 9300d000 1301b000  ................
 0678 b3802040 930e2000 93010001 e39ad0b9  .. @.. .........
 0688 97000000 e78000b8 9300e000 1301b000  ................
 0698 33812040 930e3000 93011001 e31ad1b7  3. @..0.........
 06a8 97000000 e78000b6 67800f00 13050000  ........g.......
 06b8 2320a600 b70001ff 938000f0 37110f0f  # ..........7...
 06c8 1301f1f0 33ff2000 b71e000f 938e0ef0  ....3. .........
 06d8 93012000 e31edfb3 97000000 e78080b2  .. .............
 06e8 b710f00f 938000ff 37f1f0f0 1301010f  ........7.......
 06f8 33ff2000 b70ef000 938e0e0f 93013000  3. ...........0.
 0708 e318dfb1 97000000 e780c0af b700ff00  ................
 0718 9380f00f 37110f0f 1301f1f0 33ff2000  ....7.......3. .
 0728 b70e0f00 938efe00 93014000 e312dfaf  ..........@.....
 0738 97000000 e78000ad b7f00ff0 9380f000  ................
 0748 37f1f0f0 1301010f 33ff2000 b7fe00f0  7.......3. .....
 0758 93015000 e31edfab 97000000 e78080aa  ..P.............
 0768 b70001ff 938000f0 37110f0f 1301f1f0  ........7.......
 0778 b3f02000 b71e000f 938e0ef0 93016000  .. ...........`.
 0788 e398d0a9 97000000 e780c0a7 b710f00f  ................
 0798 938000ff 37f1f0f0 1301010f 33f12000  ....7.......3. .
 07a8 b70ef000 938e0e0f 93017000 e312d1a7  ..........p.....
 07b8 97000000 e78000a5 b70001ff 938000f0  ................
 07c8 b3f01000 b70e01ff 938e0ef0 93018000  ................
 07d8 e390d0a5 97000000 e780c0a2 67800f00  ............g...
 07e8 13050000 2320a600 b70001ff 938000f0  ....# ..........
 07f8 37110f0f 1301f1f0 33ef2000 b70e10ff  7.......3. .....
 0808 938efef0 93012000 e314dfa1 97000000  ...... .........
 0818 e780409f b710f00f 938000ff 37f1f0f0  ..@.........7...
 0828 1301010f 33ef2000 b70ef1ff 938e0eff  ....3. .........
 0838 93013000 e31edf9d 97000000 e780809c  ..0.............
 0848 b700ff00 9380f00f 37110f0f 1301f1f0  ........7.......
 0858 33ef2000 b71eff0f 938efeff 93014000  3. ...........@.
 0868 e318df9b 97000000 e780c099 b7f00ff0  ................
 0878 9380f000 37f1f0f0 1301010f 33ef2000  ....7.......3. .
 0888 b7fefff0 938efe0f 93015000 e312df99  ..........P.....
 0898 97000000 e7800097 b70001ff 938000f0  ................
 08a8 37110f0f 1301f1f0 b3e02000 b70e10ff  7......... .....
 08b8 938efef0 93016000 e39cd095 97000000  ......`.........
 08c8 e7804094 b70001ff 938000f0 37110f0f  ..@.........7...
 08d8 1301f1f0 33e12000 b70e10ff 938efef0  ....3. .........
 08e8 93017000 e316d193 97000000 e7808091  ..p.............
 08f8 b70001ff 938000f0 b3e01000 b70e01ff  ................
 0908 938e0ef0 93018000 e394d091 97000000  ................
 0918 e780408f 67800f00 13050000 2320a600  ..@.g.......# ..
 0928 b70001ff 938000f0 37110f0f 1301f1f0  ........7.......
 0938 33cf2000 b7fe0ff0 938efe00 93012000  3. ........... .
 0948 e318df8d 97000000 e780c08b b710f00f  ................
 0958 938000ff 37f1f0f0 1301010f 33cf2000  ....7.......3. .
 0968 b70e01ff 938e0ef0 93013000 e312df8b  ..........0.....
 0978 97000000 e7800089 b700ff00 9380f00f  ................
 0988 37110f0f 1301f1f0 33cf2000 b71ef00f  7.......3. .....
 0998 938e0eff 93014000 e31cdf87 97000000  ......@.........
 09a8 e7804086 b7f00ff0 9380f000 37f1f0f0  ..@.........7...
 09b8 1301010f 33cf2000 b70eff00 938efe0f  ....3. .........
 09c8 93015000 e316df85 97000000 e7808083  ..P.............
 09d8 b70001ff 938000f0 37110f0f 1301f1f0  ........7.......
 09e8 b3c02000 b7fe0ff0 938efe00 93016000  .. ...........`.
 09f8 e390d083 97000000 e780c080 b70001ff  ................
 0a08 938000f0 37110f0f 1301f1f0 33c12000  ....7.......3. .
 0a18 b7fe0ff0 938efe00 93017000 631ad1ff  ..........p.c...
 0a28 97f0ffff e780007e b70001ff 938000f0  .......~........
 0a38 b3c01000 930e0000 93018000 639ad0fd  ............c...
 0a48 97f0ffff e780007c 67800f00 13050000  .......|g.......
 0a58 2320a600 93001000 13010000 339f2000  # ..........3. .
 0a68 930e1000 93012000 6314dffb 97f0ffff  ...... .c.......
 0a78 e7804079 93001000 13011000 339f2000  ..@y........3. .
 0a88 930e2000 93013000 6314dff9 97f0ffff  .. ...0.c.......
 0a98 e7804077 93001000 13017000 339f2000  ..@w......p.3. .
 0aa8 930e0008 93014000 6314dff7 97f0ffff  ......@.c.......
 0ab8 e7804075 93001000 1301e000 339f2000  ..@u........3. .
 0ac8 b74e0000 93015000 6314dff5 97f0ffff  .N....P.c.......
 0ad8 e7804073 93001000 1301f001 339f2000  ..@s........3. .
 0ae8 b70e0080 93016000 6314dff3 97f0ffff  ......`.c.......
 0af8 e7804071 9300f0ff 13010000 339f2000  ..@q........3. .
 0b08 930ef0ff 93017000 6314dff1 97f0ffff  ......p.c.......
 0b18 e780406f 9300f0ff 13011000 339f2000  ..@o........3. .
 0b28 930ee0ff 93018000 6314dfef 97f0ffff  ........c.......
 0b38 e780406d 9300f0ff 13017000 339f2000  ..@m......p.3. .
 0b48 930e00f8 93019000 6314dfed 97f0ffff  ........c.......
 0b58 e780406b 9300f0ff 1301e000 339f2000  ..@k........3. .
 0b68 b7ceffff 9301a000 6314dfeb 97f0ffff  ........c.......
 0b78 e7804069 9300f0ff 1301f001 339f2000  ..@i........3. .
 0b88 b70e0080 9301b000 6314dfe9 97f0ffff  ........c.......
 0b98 e7804067 b7202121 93801012 13010000  ..@g. !!........
 0ba8 339f2000 b72e2121 938e1e12 9301c000  3. ...!!........
 0bb8 6310dfe7 97f0ffff e780c064 b7202121  c..........d. !!
 0bc8 93801012 13011000 339f2000 b74e4242  ........3. ..NBB
 0bd8 938e2e24 9301d000 631cdfe3 97f0ffff  ...$....c.......
 0be8 e7804062 b7202121 93801012 13017000  ..@b. !!......p.
 0bf8 339f2000 b79e9090 938e0e08 9301e000  3. .............
 0c08 6318dfe1 97f0ffff e780c05f b7202121  c.........._. !!
 0c18 93801012 1301e000 339f2000 b74e4848  ........3. ..NHH
 0c28 9301f000 6316dfdf 97f0ffff e780805d  ....c..........]
 0c38 b7202121 93801012 1301f001 339f2000  . !!........3. .
 0c48 b70e0080 93010001 6314dfdd 97f0ffff  ........c.......
 0c58 e780405b b7202121 93801012 130100fc  ..@[. !!........
 0c68 339f2000 b72e2121 938e1e12 93011001  3. ...!!........
 0c78 6310dfdb 97f0ffff e780c058 b7202121  c..........X. !!
 0c88 93801012 130110fc 339f2000 b74e4242  ........3. ..NBB
 0c98 938e2e24 93012001 631cdfd7 97f0ffff  ...$.. .c.......
 0ca8 e7804056 b7202121 93801012 130170fc  ..@V. !!......p.
 0cb8 339f2000 b79e9090 938e0e08 93013001  3. ...........0.
 0cc8 6318dfd5 97f0ffff e780c053 b7202121  c..........S. !!
 0cd8 93801012 1301e0fc 339f2000 b74e4848  ........3. ..NHH
 0ce8 93014001 6316dfd3 97f0ffff e7808051  ..@.c..........Q
 0cf8 67800f00 13050000 2320a600 b7000080  g.......# ......
 0d08 13010000 33df2000 b70e0080 93012000  ....3. ....... .
 0d18 6310dfd1 97f0ffff e780c04e b7000080  c..........N....
 0d28 13011000 33df2000 b70e0040 93013000  ....3. ....@..0.
 0d38 6310dfcf 97f0ffff e780c04c b7000080  c..........L....
 0d48 13017000 33df2000 b70e0001 93014000  ..p.3. .......@.
 0d58 6310dfcd 97f0ffff e780c04a b7000080  c..........J....
 0d68 1301e000 33df2000 b70e0200 93015000  ....3. .......P.
 0d78 6310dfcb 97f0ffff e780c048 b7000080  c..........H....
 0d88 93801000 1301f001 33df2000 930e1000  ........3. .....
 0d98 93016000 631edfc7 97f0ffff e7808046  ..`.c..........F
 0da8 9300f0ff 13010000 33df2000 930ef0ff  ........3. .....
 0db8 93017000 631edfc5 97f0ffff e7808044  ..p.c..........D
 0dc8 9300f0ff 13011000 33df2000 b70e0080  ........3. .....
 0dd8 938efeff 93018000 631cdfc3 97f0ffff  ........c.......
 0de8 e7804042 9300f0ff 13017000 33df2000  ..@B......p.3. .
 0df8 b70e0002 938efeff 93019000 631adfc1  ............c...
 0e08 97f0ffff e7800040 9300f0ff 1301e000  .......@........
 0e18 33df2000 b70e0400 938efeff 9301a000  3. .............
 0e28 6318dfbf 97f0ffff e780c03d 9300f0ff  c..........=....
 0e38 1301f001 33df2000 930e1000 9301b000  ....3. .........
 0e48 6318dfbd 97f0ffff e780c03b b7202121  c..........;. !!
 0e58 93801012 13010000 33df2000 b72e2121  ........3. ...!!
 0e68 938e1e12 9301c000 6314dfbb 97f0ffff  ........c.......
 0e78 e7804039 b7202121 93801012 13011000  ..@9. !!........
 0e88 33df2000 b79e9010 938e0e09 9301d000  3. .............
 0e98 6310dfb9 97f0ffff e780c036 b7202121  c..........6. !!
 0ea8 93801012 13017000 33df2000 b74e4200  ......p.3. ..NB.
 0eb8 938e2e24 9301e000 631cdfb5 97f0ffff  ...$....c.......
 0ec8 e7804034 b7202121 93801012 1301e000  ..@4. !!........
 0ed8 33df2000 b78e0000 938e4e48 9301f000  3. .......NH....
 0ee8 6318dfb3 97f0ffff e780c031 b7202121  c..........1. !!
 0ef8 93801012 1301f001 33df2000 930e0000  ........3. .....
 0f08 93010001 6316dfb1 97f0ffff e780802f  ....c........../
 0f18 b7202121 93801012 130100fc 33df2000  . !!........3. .
 0f28 b72e2121 938e1e12 93011001 6312dfaf  ..!!........c...
 0f38 97f0ffff e780002d b7202121 93801012  .......-. !!....
 0f48 130110fc 33df2000 b79e9010 938e0e09  ....3. .........
 0f58 93012001 631edfab 97f0ffff e780802a  .. .c..........*
 0f68 67800f00 13050000 2320a600 b7000080  g.......# ......
 0f78 13010000 33df2040 b70e0080 93012000  ....3. @...... .
 0f88 6318dfa9 97f0ffff e780c027 b7000080  c..........'....
 0f98 13011000 33df2040 b70e00c0 93013000  ....3. @......0.
 0fa8 6318dfa7 97f0ffff e780c025 b7000080  c..........%....
 0fb8 13017000 33df2040 b70e00ff 93014000  ..p.3. @......@.
 0fc8 6318dfa5 97f0ffff e780c023 b7000080  c..........#....
 0fd8 1301e000 33df2040 b70efeff 93015000  ....3. @......P.
 0fe8 6318dfa3 97f0ffff e780c021 b7000080  c..........!....
 0ff8 93801000 1301f001 33df2040 930ef0ff  ........3. @....
 1008 93016000 6316dfa1 97f0ffff e780801f  ..`.c...........
 1018 b7000080 9380f0ff 13010000 33df2040  ............3. @
 1028 b70e0080 938efeff 93017000 6312df9f  ..........p.c...
 1038 97f0ffff e780001d b7000080 9380f0ff  ................
 1048 13011000 33df2040 b70e0040 938efeff  ....3. @...@....
 1058 93018000 631edf9b 97f0ffff e780801a  ....c...........
 1068 b7000080 9380f0ff 13017000 33df2040  ..........p.3. @
 1078 b70e0001 938efeff 93019000 631adf99  ............c...
 1088 97f0ffff e7800018 b7000080 9380f0ff  ................
 1098 1301e000 33df2040 b70e0200 938efeff  ....3. @........
 10a8 9301a000 6316df97 97f0ffff e7808015  ....c...........
 10b8 b7000080 9380f0ff 1301f001 33df2040  ............3. @
 10c8 930e0000 9301b000 6314df95 97f0ffff  ........c.......
 10d8 e7804013 b7808181 93801018 13010000  ..@.............
 10e8 33df2040 b78e8181 938e1e18 9301c000  3. @............
 10f8 6310df93 97f0ffff e780c010 b7808181  c...............
 1108 93801018 13011000 33df2040 b7cec0c0  ........3. @....
 1118 938e0e0c 9301d000 631cdf8f 97f0ffff  ........c.......
 1128 e780400e b7808181 93801018 13017000  ..@...........p.
 1138 33df2040 b70e03ff 938e3e30 9301e000  3. @......>0....
 1148 6318df8d 97f0ffff e780c00b b7808181  c...............
 1158 93801018 1301e000 33df2040 b70efeff  ........3. @....
 1168 938e6e60 9301f000 6314df8b 97f0ffff  ..n`....c.......
 1178 e7804009 b7808181 93801018 1301f001  ..@.............
 1188 33df2040 930ef0ff 93010001 6312df89  3. @........c...
 1198 97f0ffff e7800007 b7808181 93801018  ................
 11a8 130100fc 33df2040 b78e8181 938e1e18  ....3. @........
 11b8 93011001 631edf85 97f0ffff e7808004  ....c...........
 11c8 b7808181 93801018 130110fc 33df2040  ............3. @
 11d8 b7cec0c0 938e0e0c 93012001 631adf83  .......... .c...
 11e8 97f0ffff e7800002 b7808181 93801018  ................
 11f8 130170fc 33df2040 b70e03ff 938e3e30  ..p.3. @......>0
 1208 93013001 6316df81 97f0ffff e78080ff  ..0.c...........
 1218 b7808181 93801018 1301e0fc 33df2040  ............3. @
 1228 b70efeff 938e6e60 93014001 6304df01  ......n`..@.c...
 1238 6fe01ffe 97f0ffff e780c0fc b7808181  o...............
 1248 93801018 1301f0ff 33df2040 930ef0ff  ........3. @....
 1258 93015001 6304df01 6fe09ffb 97f0ffff  ..P.c...o.......
 1268 e78040fa 67800f00 13050000 2320a600  ..@.g.......# ..
 1278 93000000 13010000 33af2000 930e0000  ........3. .....
 1288 93012000 6304df01 6fe09ff8 97f0ffff  .. .c...o.......
 1298 e78040f7 93001000 13011000 33af2000  ..@.........3. .
 12a8 930e0000 93013000 6304df01 6fe05ff6  ......0.c...o._.
 12b8 97f0ffff e78000f5 93003000 13017000  ..........0...p.
 12c8 33af2000 930e1000 93014000 6304df01  3. .......@.c...
 12d8 6fe01ff4 97f0ffff e780c0f2 93007000  o.............p.
 12e8 13013000 33af2000 930e0000 93015000  ..0.3. .......P.
 12f8 6304df01 6fe0dff1 97f0ffff e78080f0  c...o...........
 1308 93000000 3781ffff 33af2000 930e0000  ....7...3. .....
 1318 93016000 6304df01 6fe09fef 97f0ffff  ..`.c...o.......
 1328 e78040ee b7000080 13010000 33af2000  ..@.........3. .
 1338 930e1000 93017000 6304df01 6fe05fed  ......p.c...o._.
 1348 97f0ffff e78000ec b7000080 3781ffff  ............7...
 1358 33af2000 930e1000 93018000 6304df01  3. .........c...
 1368 6fe01feb 97f0ffff e780c0e9 93000000  o...............
 1378 37810000 1301f1ff 33af2000 930e1000  7.......3. .....
 1388 93019000 6304df01 6fe09fe8 97f0ffff  ....c...o.......
 1398 e78040e7 b7000080 9380f0ff 13010000  ..@.............
 13a8 33af2000 930e0000 9301a000 6304df01  3. .........c...
 13b8 6fe01fe6 97f0ffff e780c0e4 b7000080  o...............
 13c8 9380f0ff 37810000 1301f1ff 33af2000  ....7.......3. .
 13d8 930e0000 9301b000 6304df01 6fe05fe3  ........c...o._.
 13e8 97f0ffff e78000e2 b7000080 37810000  ............7...
 13f8 1301f1ff 33af2000 930e1000 9301c000  ....3. .........
 1408 6304df01 6fe0dfe0 97f0ffff e78080df  c...o...........
 1418 b7000080 9380f0ff 3781ffff 33af2000  ........7...3. .
 1428 930e0000 9301d000 6304df01 6fe05fde  ........c...o._.
 1438 97f0ffff e78000dd 93000000 1301f0ff  ................
 1448 33af2000 930e0000 9301e000 6304df01  3. .........c...
 1458 6fe01fdc 97f0ffff e780c0da 9300f0ff  o...............
 1468 13011000 33af2000 930e1000 9301f000  ....3. .........
 1478 6304df01 6fe0dfd9 97f0ffff e78080d8  c...o...........
 1488 9300f0ff 1301f0ff 33af2000 930e0000  ........3. .....
 1498 93010001 6304df01 6fe09fd7 97f0ffff  ....c...o.......
 14a8 e78040d6 9300e000 1301d000 b3a02000  ..@........... .
 14b8 930e0000 93011001 6384d001 6fe05fd5  ........c...o._.
 14c8 97f0ffff e78000d4 67800f00 13050000  ........g.......
 14d8 2320a600 93000000 13010000 33bf2000  # ..........3. .
 14e8 930e0000 93012000 6304df01 6fe05fd2  ...... .c...o._.
 14f8 97f0ffff e78000d1 93001000 13011000  ................
 1508 33bf2000 930e0000 93013000 6304df01  3. .......0.c...
 1518 6fe01fd0 97f0ffff e780c0ce 93003000  o.............0.
 1528 13017000 33bf2000 930e1000 93014000  ..p.3. .......@.
 1538 6304df01 6fe0dfcd 97f0ffff e78080cc  c...o...........
 1548 93007000 13013000 33bf2000 930e0000  ..p...0.3. .....
 1558 93015000 6304df01 6fe09fcb 97f0ffff  ..P.c...o.......
 1568 e78040ca 93000000 3781ffff 33bf2000  ..@.....7...3. .
 1578 930e1000 93016000 6304df01 6fe05fc9  ......`.c...o._.
 1588 97f0ffff e78000c8 b7000080 13010000  ................
 1598 33bf2000 930e0000 93017000 6304df01  3. .......p.c...
 15a8 6fe01fc7 97f0ffff e780c0c5 b7000080  o...............
 15b8 3781ffff 33bf2000 930e1000 93018000  7...3. .........
 15c8 6304df01 6fe0dfc4 97f0ffff e78080c3  c...o...........
 15d8 93000000 37810000 1301f1ff 33bf2000  ....7.......3. .
 15e8 930e1000 93019000 6304df01 6fe05fc2  ........c...o._.
 15f8 97f0ffff e78000c1 b7000080 9380f0ff  ................
 1608 13010000 33bf2000 930e0000 9301a000  ....3. .........
 1618 6304df01 6fe0dfbf 97f0ffff e78080be  c...o...........
 1628 b7000080 9380f0ff 37810000 1301f1ff  ........7.......
 1638 33bf2000 930e0000 9301b000 6304df01  3. .........c...
 1648 6fe01fbd 97f0ffff e780c0bb b7000080  o...............
 1658 37810000 1301f1ff 33bf2000 930e0000  7.......3. .....
 1668 9301c000 6304df01 6fe09fba 97f0ffff  ....c...o.......
 1678 e78040b9 b7000080 9380f0ff 3781ffff  ..@.........7...
 1688 33bf2000 930e1000 9301d000 6304df01  3. .........c...
 1698 6fe01fb8 97f0ffff e780c0b6 93000000  o...............
 16a8 1301f0ff 33bf2000 930e1000 9301e000  ....3. .........
 16b8 6304df01 6fe0dfb5 97f0ffff e78080b4  c...o...........
 16c8 9300f0ff 13011000 33bf2000 930e0000  ........3. .....
 16d8 9301f000 6304df01 6fe09fb3 97f0ffff  ....c...o.......
 16e8 e78040b2 9300f0ff 1301f0ff 33bf2000  ..@.........3. .
 16f8 930e0000 93010001 6304df01 6fe05fb1  ........c...o._.
 1708 97f0ffff e78000b0 9300e000 1301d000  ................
 1718 b3b02000 930e0000 93011001 6384d001  .. .........c...
 1728 6fe01faf 97f0ffff e780c0ad 67800f00  o...........g...
 1738 13050000 2320a600 93000000 138f0000  ....# ..........
 1748 930e0000 93012000 6304df01 6fe05fac  ...... .c...o._.
 1758 97f0ffff e78000ab 93001000 138f1000  ................
 1768 930e2000 93013000 6304df01 6fe05faa  .. ...0.c...o._.
 1778 97f0ffff e78000a9 93003000 138f7000  ..........0...p.
 1788 930ea000 93014000 6304df01 6fe05fa8  ......@.c...o._.
 1798 97f0ffff e78000a7 93000000 138f0080  ................
 17a8 930e0080 93015000 6304df01 6fe05fa6  ......P.c...o._.
 17b8 97f0ffff e78000a5 b7000080 138f0000  ................
 17c8 b70e0080 93016000 6304df01 6fe05fa4  ......`.c...o._.
 17d8 97f0ffff e78000a3 b7000080 138f0080  ................
 17e8 b70e0080 938e0e80 93017000 6304df01  ..........p.c...
 17f8 6fe01fa2 97f0ffff e780c0a0 93000000  o...............
 1808 138ff07f 930ef07f 93018000 6304df01  ............c...
 1818 6fe01fa0 97f0ffff e780c09e b7000080  o...............
 1828 9380f0ff 138f0000 b70e0080 938efeff  ................
 1838 93019000 6304df01 6fe09f9d 97f0ffff  ....c...o.......
 1848 e780409c b7000080 9380f0ff 138ff07f  ..@.............
 1858 b70e0080 938eee7f 9301a000 6304df01  ............c...
 1868 6fe01f9b 97f0ffff e780c099 b7000080  o...............
 1878 138ff07f b70e0080 938efe7f 9301b000  ................
 1888 6304df01 6fe0df98 97f0ffff e7808097  c...o...........
 1898 b7000080 9380f0ff 138f0080 b7feff7f  ................
 18a8 938efe7f 9301c000 6304df01 6fe05f96  ........c...o._.
 18b8 97f0ffff e7800095 93000000 138ff0ff  ................
 18c8 930ef0ff 9301d000 6304df01 6fe05f94  ........c...o._.
 18d8 97f0ffff e7800093 9300f0ff 138f1000  ................
 18e8 930e0000 9301e000 6304df01 6fe05f92  ........c...o._.
 18f8 97f0ffff e7800091 9300f0ff 138ff0ff  ................
 1908 930ee0ff 9301f000 6304df01 6fe05f90  ........c...o._.
 1918 97f0ffff e780008f b7000080 9380f0ff  ................
 1928 138f1000 b70e0080 93010001 6304df01  ............c...
 1938 6fe01f8e 97f0ffff e780c08c 9300d000  o...............
 1948 9380b000 930e8001 93011001 6384d001  ............c...
 1958 6fe01f8c 97f0ffff e780c08a 67800f00  o...........g...
 1968 13050000 2320a600 b70001ff 938000f0  ....# ..........
 1978 13fff0f0 b70e01ff 938e0ef0 93012000  .............. .
 1988 6304df01 6fe0df88 97f0ffff e7808087  c...o...........
 1998 b710f00f 938000ff 13ff000f 930e000f  ................
 19a8 93013000 6304df01 6fe09f86 97f0ffff  ..0.c...o.......
 19b8 e7804085 b700ff00 9380f00f 13fff070  ..@............p
 19c8 930ef000 93014000 6304df01 6fe05f84  ......@.c...o._.
 19d8 97f0ffff e7800083 b7f00ff0 9380f000  ................
 19e8 13ff000f 930e0000 93015000 6304df01  ..........P.c...
 19f8 6fe01f82 97f0ffff e780c080 b70001ff  o...............
 1a08 938000f0 93f0000f 930e0000 93016000  ..............`.
 1a18 6384d001 6fe0cfff 97e0ffff e780807e  c...o..........~
 1a28 67800f00 13050000 2320a600 b70001ff  g.......# ......
 1a38 938000f0 13eff0f0 930ef0f0 93012000  .............. .
 1a48 6304df01 6fe0cffc 97e0ffff e780807b  c...o..........{
 1a58 b710f00f 938000ff 13ef000f b71ef00f  ................
 1a68 938e0eff 93013000 6304df01 6fe04ffa  ......0.c...o.O.
 1a78 97e0ffff e7800079 b700ff00 9380f00f  .......y........
 1a88 13eff070 b70eff00 938efe7f 93014000  ...p..........@.
 1a98 6304df01 6fe0cff7 97e0ffff e7808076  c...o..........v
 1aa8 b7f00ff0 9380f000 13ef000f b7fe0ff0  ................
 1ab8 938efe0f 93015000 6304df01 6fe04ff5  ......P.c...o.O.
 1ac8 97e0ffff e7800074 b70001ff 938000f0  .......t........
 1ad8 93e0000f b70e01ff 938e0eff 93016000  ..............`.
 1ae8 6384d001 6fe0cff2 97e0ffff e7808071  c...o..........q
 1af8 67800f00 13050000 2320a600 b710ff00  g.......# ......
 1b08 938000f0 13cff0f0 b7fe00ff 938efe00  ................
 1b18 93012000 6304df01 6fe08fef 97e0ffff  .. .c...o.......
 1b28 e780406e b710f00f 938000ff 13cf000f  ..@n............
 1b38 b71ef00f 938e0ef0 93013000 6304df01  ..........0.c...
 1b48 6fe00fed 97e0ffff e780c06b b710ff00  o..........k....
 1b58 9380f08f 13cff070 b71eff00 938e0eff  .......p........
 1b68 93014000 6304df01 6fe08fea 97e0ffff  ..@.c...o.......
 1b78 e7804069 b7f00ff0 9380f000 13cf000f  ..@i............
 1b88 b7fe0ff0 938efe0f 93015000 6304df01  ..........P.c...
 1b98 6fe00fe8 97e0ffff e780c066 b7f000ff  o..........f....
 1ba8 93800070 93c0f070 b7fe00ff 938efe00  ...p...p........
 1bb8 93016000 6384d001 6fe08fe5 97e0ffff  ..`.c...o.......
 1bc8 e7804064 67800f00 13050000 2320a600  ..@dg.......# ..
 1bd8 93001000 139f0000 930e1000 93012000  .............. .
 1be8 6304df01 6fe0cfe2 97e0ffff e7808061  c...o..........a
 1bf8 93001000 139f1000 930e2000 93013000  .......... ...0.
 1c08 6304df01 6fe0cfe0 97e0ffff e780805f  c...o.........._
 1c18 93001000 139f7000 930e0008 93014000  ......p.......@.
 1c28 6304df01 6fe0cfde 97e0ffff e780805d  c...o..........]
 1c38 93001000 139fe000 b74e0000 93015000  .........N....P.
 1c48 6304df01 6fe0cfdc 97e0ffff e780805b  c...o..........[
 1c58 93001000 139ff001 b70e0080 93016000  ..............`.
 1c68 6304df01 6fe0cfda 97e0ffff e7808059  c...o..........Y
 1c78 9300f0ff 139f0000 930ef0ff 93017000  ..............p.
 1c88 6304df01 6fe0cfd8 97e0ffff e7808057  c...o..........W
 1c98 9300f0ff 139f1000 930ee0ff 93018000  ................
 1ca8 6304df01 6fe0cfd6 97e0ffff e7808055  c...o..........U
 1cb8 9300f0ff 139f7000 930e00f8 93019000  ......p.........
 1cc8 6304df01 6fe0cfd4 97e0ffff e7808053  c...o..........S
 1cd8 9300f0ff 139fe000 b7ceffff 9301a000  ................
 1ce8 6304df01 6fe0cfd2 97e0ffff e7808051  c...o..........Q
 1cf8 9300f0ff 139ff001 b70e0080 9301b000  ................
 1d08 6304df01 6fe0cfd0 97e0ffff e780804f  c...o..........O
 1d18 b7202121 93801012 139f0000 b72e2121  . !!..........!!
 1d28 938e1e12 9301c000 6304df01 6fe04fce  ........c...o.O.
 1d38 97e0ffff e780004d b7202121 93801012  .......M. !!....
 1d48 139f1000 b74e4242 938e2e24 9301d000  .....NBB...$....
 1d58 6304df01 6fe0cfcb 97e0ffff e780804a  c...o..........J
 1d68 b7202121 93801012 139f7000 b79e9090  . !!......p.....
 1d78 938e0e08 9301e000 6304df01 6fe04fc9  ........c...o.O.
 1d88 97e0ffff e7800048 b7202121 93801012  .......H. !!....
 1d98 139fe000 b74e4848 9301f000 6304df01  .....NHH....c...
 1da8 6fe00fc7 97e0ffff e780c045 b7202121  o..........E. !!
 1db8 93801012 139ff001 b70e0080 93010001  ................
 1dc8 6304df01 6fe0cfc4 97e0ffff e7808043  c...o..........C
 1dd8 67800f00 13050000 2320a600 b7000080  g.......# ......
 1de8 13df0000 b70e0080 93012000 6304df01  .......... .c...
 1df8 6fe00fc2 97e0ffff e780c040 b7000080  o..........@....
 1e08 13df1000 b70e0040 93013000 6304df01  .......@..0.c...
 1e18 6fe00fc0 97e0ffff e780c03e b7000080  o..........>....
 1e28 13df7000 b70e0001 93014000 6304df01  ..p.......@.c...
 1e38 6fe00fbe 97e0ffff e780c03c b7000080  o..........<....
 1e48 13dfe000 b70e0200 93015000 6304df01  ..........P.c...
 1e58 6fe00fbc 97e0ffff e780c03a b7000080  o..........:....
 1e68 93801000 13dff001 930e1000 93016000  ..............`.
 1e78 6304df01 6fe0cfb9 97e0ffff e7808038  c...o..........8
 1e88 9300f0ff 13df0000 930ef0ff 93017000  ..............p.
 1e98 6304df01 6fe0cfb7 97e0ffff e7808036  c...o..........6
 1ea8 9300f0ff 13df1000 b70e0080 938efeff  ................
 1eb8 93018000 6304df01 6fe08fb5 97e0ffff  ....c...o.......
 1ec8 e7804034 9300f0ff 13df7000 b70e0002  ..@4......p.....
 1ed8 938efeff 93019000 6304df01 6fe04fb3  ........c...o.O.
 1ee8 97e0ffff e7800032 9300f0ff 13dfe000  .......2........
 1ef8 b70e0400 938efeff 9301a000 6304df01  ............c...
 1f08 6fe00fb1 97e0ffff e780c02f 9300f0ff  o........../....
 1f18 13dff001 930e1000 9301b000 6304df01  ............c...
 1f28 6fe00faf 97e0ffff e780c02d b7202121  o..........-. !!
 1f38 93801012 13df0000 b72e2121 938e1e12  ..........!!....
 1f48 9301c000 6304df01 6fe08fac 97e0ffff  ....c...o.......
 1f58 e780402b b7202121 93801012 13df1000  ..@+. !!........
 1f68 b79e9010 938e0e09 9301d000 6304df01  ............c...
 1f78 6fe00faa 97e0ffff e780c028 b7202121  o..........(. !!
 1f88 93801012 13df7000 b74e4200 938e2e24  ......p..NB....$
 1f98 9301e000 6304df01 6fe08fa7 97e0ffff  ....c...o.......
 1fa8 e7804026 b7202121 93801012 13dfe000  ..@&. !!........
 1fb8 b78e0000 938e4e48 9301f000 6304df01  ......NH....c...
 1fc8 6fe00fa5 97e0ffff e780c023 b7202121  o..........#. !!
 1fd8 93801012 13dff001 930e0000 93010001  ................
 1fe8 6304df01 6fe0cfa2 97e0ffff e7808021  c...o..........!
 1ff8 b7000080 93d07000 b70e0001 93011001  ......p.........
 2008 6384d001 6fe0cfa0 97e0ffff e780801f  c...o...........
 2018 67800f00 13050000 2320a600 93000000  g.......# ......
 2028 13df0040 930e0000 93012000 6304df01  ...@...... .c...
 2038 6fe00f9e 97e0ffff e780c01c b7000080  o...............
 2048 13df1040 b70e00c0 93013000 6304df01  ...@......0.c...
 2058 6fe00f9c 97e0ffff e780c01a b7000080  o...............
 2068 13df7040 b70e00ff 93014000 6304df01  ..p@......@.c...
 2078 6fe00f9a 97e0ffff e780c018 b7000080  o...............
 2088 13dfe040 b70efeff 93015000 6304df01  ...@......P.c...
 2098 6fe00f98 97e0ffff e780c016 b7000080  o...............
 20a8 93801000 13dff041 930ef0ff 93016000  .......A......`.
 20b8 6304df01 6fe0cf95 97e0ffff e7808014  c...o...........
 20c8 b7000080 9380f0ff 13df0040 b70e0080  ...........@....
 20d8 938efeff 93017000 6304df01 6fe04f93  ......p.c...o.O.
 20e8 97e0ffff e7800012 b7000080 9380f0ff  ................
 20f8 13df1040 b70e0040 938efeff 93018000  ...@...@........
 2108 6304df01 6fe0cf90 97e0ffff e780800f  c...o...........
 2118 b7000080 9380f0ff 13df7040 b70e0001  ..........p@....
 2128 938efeff 93019000 6304df01 6fe04f8e  ........c...o.O.
 2138 97e0ffff e780000d b7000080 9380f0ff  ................
 2148 13dfe040 b70e0200 938efeff 9301a000  ...@............
 2158 6304df01 6fe0cf8b 97e0ffff e780800a  c...o...........
 2168 b7000080 9380f0ff 13dff041 930e0000  ...........A....
 2178 9301b000 6304df01 6fe08f89 97e0ffff  ....c...o.......
 2188 e7804008 b7808181 93801018 13df0040  ..@............@
 2198 b78e8181 938e1e18 9301c000 6304df01  ............c...
 21a8 6fe00f87 97e0ffff e780c005 b7808181  o...............
 21b8 93801018 13df1040 b7cec0c0 938e0e0c  .......@........
 21c8 9301d000 6304df01 6fe08f84 97e0ffff  ....c...o.......
 21d8 e7804003 b7808181 93801018 13df7040  ..@...........p@
 21e8 b70e03ff 938e3e30 9301e000 6304df01  ......>0....c...
 21f8 6fe00f82 97e0ffff e780c000 b7808181  o...............
 2208 93801018 13dfe040 b70efeff 938e6e60  .......@......n`
 2218 9301f000 6304df01 6fd09fff 97e0ffff  ....c...o.......
 2228 e78040fe b7808181 93801018 13dff041  ..@............A
 2238 930ef0ff 93010001 6304df01 6fd05ffd  ........c...o._.
 2248 97e0ffff e78000fc b7000080 93d07040  ..............p@
 2258 b70e00ff 93011001 6384d001 6fd05ffb  ........c...o._.
 2268 97e0ffff e78000fa 67800f00 13050000  ........g.......
 2278 2320a600 93000000 13bf0000 930e0000  # ..............
 2288 93012000 6304df01 6fd09ff8 97e0ffff  .. .c...o.......
 2298 e78040f7 93001000 13bf1000 930e0000  ..@.............
 22a8 93013000 6304df01 6fd09ff6 97e0ffff  ..0.c...o.......
 22b8 e78040f5 93003000 13bf7000 930e1000  ..@...0...p.....
 22c8 93014000 6304df01 6fd09ff4 97e0ffff  ..@.c...o.......
 22d8 e78040f3 93007000 13bf3000 930e0000  ..@...p...0.....
 22e8 93015000 6304df01 6fd09ff2 97e0ffff  ..P.c...o.......
 22f8 e78040f1 93000000 13bf0080 930e1000  ..@.............
 2308 93016000 6304df01 6fd09ff0 97e0ffff  ..`.c...o.......
 2318 e78040ef b7000080 13bf0000 930e0000  ..@.............
 2328 93017000 6304df01 6fd09fee 97e0ffff  ..p.c...o.......
 2338 e78040ed b7000080 13bf0080 930e1000  ..@.............
 2348 93018000 6304df01 6fd09fec 97e0ffff  ....c...o.......
 2358 e78040eb 93000000 13bff07f 930e1000  ..@.............
 2368 93019000 6304df01 6fd09fea 97e0ffff  ....c...o.......
 2378 e78040e9 b7000080 9380f0ff 13bf0000  ..@.............
 2388 930e0000 9301a000 6304df01 6fd05fe8  ........c...o._.
 2398 97e0ffff e78000e7 b7000080 9380f0ff  ................
 23a8 13bff07f 930e0000 9301b000 6304df01  ............c...
 23b8 6fd01fe6 97e0ffff e780c0e4 b7000080  o...............
 23c8 13bff07f 930e0000 9301c000 6304df01  ............c...
 23d8 6fd01fe4 97e0ffff e780c0e2 b7000080  o...............
 23e8 9380f0ff 13bf0080 930e1000 9301d000  ................
 23f8 6304df01 6fd0dfe1 97e0ffff e78080e0  c...o...........
 2408 93000000 13bff0ff 930e1000 9301e000  ................
 2418 6304df01 6fd0dfdf 97e0ffff e78080de  c...o...........
 2428 9300f0ff 13bf1000 930e0000 9301f000  ................
 2438 6304df01 6fd0dfdd 97e0ffff e78080dc  c...o...........
 2448 9300f0ff 13bff0ff 930e0000 93010001  ................
 2458 6304df01 6fd0dfdb 97e0ffff e78080da  c...o...........
 2468 9300b000 93b0d000 930e1000 93011001  ................
 2478 6384d001 6fd0dfd9 97e0ffff e78080d8  c...o...........
 2488 67800f00 13050000 2320a600 93000000  g.......# ......
 2498 13af0000 930e0000 93012000 6304df01  .......... .c...
 24a8 6fd01fd7 97e0ffff e780c0d5 93001000  o...............
 24b8 13af1000 930e0000 93013000 6304df01  ..........0.c...
 24c8 6fd01fd5 97e0ffff e780c0d3 93003000  o.............0.
 24d8 13af7000 930e1000 93014000 6304df01  ..p.......@.c...
 24e8 6fd01fd3 97e0ffff e780c0d1 93007000  o.............p.
 24f8 13af3000 930e0000 93015000 6304df01  ..0.......P.c...
 2508 6fd01fd1 97e0ffff e780c0cf 93000000  o...............
 2518 13af0080 930e0000 93016000 6304df01  ..........`.c...
 2528 6fd01fcf 97e0ffff e780c0cd b7000080  o...............
 2538 13af0000 930e1000 93017000 6304df01  ..........p.c...
 2548 6fd01fcd 97e0ffff e780c0cb b7000080  o...............
 2558 13af0080 930e1000 93018000 6304df01  ............c...
 2568 6fd01fcb 97e0ffff e780c0c9 93000000  o...............
 2578 13aff07f 930e1000 93019000 6304df01  ............c...
 2588 6fd01fc9 97e0ffff e780c0c7 b7000080  o...............
 2598 9380f0ff 13af0000 930e0000 9301a000  ................
 25a8 6304df01 6fd0dfc6 97e0ffff e78080c5  c...o...........
 25b8 b7000080 9380f0ff 13aff07f 930e0000  ................
 25c8 9301b000 6304df01 6fd09fc4 97e0ffff  ....c...o.......
 25d8 e78040c3 b7000080 13aff07f 930e1000  ..@.............
 25e8 9301c000 6304df01 6fd09fc2 97e0ffff  ....c...o.......
 25f8 e78040c1 b7000080 9380f0ff 13af0080  ..@.............
 2608 930e0000 9301d000 6304df01 6fd05fc0  ........c...o._.
 2618 97e0ffff e78000bf 93000000 13aff0ff  ................
 2628 930e0000 9301e000 6304df01 6fd05fbe  ........c...o._.
 2638 97e0ffff e78000bd 9300f0ff 13af1000  ................
 2648 930e1000 9301f000 6304df01 6fd05fbc  ........c...o._.
 2658 97e0ffff e78000bb 9300f0ff 13aff0ff  ................
 2668 930e0000 93010001 6304df01 6fd05fba  ........c...o._.
 2678 97e0ffff e78000b9 9300b000 93a0d000  ................
 2688 930e1000 93011001 6384d001 6fd05fb8  ........c...o._.
 2698 97e0ffff e78000b7 67800f00 13050000  ........g.......
 26a8 2320a600 97200000 93804087 03af0000  # ... ....@.....
 26b8 b70eff00 938efe0f 93012000 6304df01  .......... .c...
 26c8 6fd01fb5 97e0ffff e780c0b3 97200000  o............ ..
 26d8 9380c084 03af4000 b70e01ff 938e0ef0  ......@.........
 26e8 93013000 6304df01 6fd09fb2 97e0ffff  ..0.c...o.......
 26f8 e78040b1 97200000 93804082 03af8000  ..@.. ....@.....
 2708 b71ef00f 938e0eff 93014000 6304df01  ..........@.c...
 2718 6fd01fb0 97e0ffff e780c0ae 97100000  o...............
 2728 9380c07f 03afc000 b7fe0ff0 938efe00  ................
 2738 93015000 6304df01 6fd09fad 97e0ffff  ..P.c...o.......
 2748 e78040ac 97100000 9380007e 03af40ff  ..@........~..@.
 2758 b70eff00 938efe0f 93016000 6304df01  ..........`.c...
 2768 6fd01fab 97e0ffff e780c0a9 97100000  o...............
 2778 9380807b 03af80ff b70e01ff 938e0ef0  ...{............
 2788 93017000 6304df01 6fd09fa8 97e0ffff  ..p.c...o.......
 2798 e78040a7 97100000 93800079 03afc0ff  ..@........y....
 27a8 b71ef00f 938e0eff 93018000 6304df01  ............c...
 27b8 6fd01fa6 97e0ffff e780c0a4 97100000  o...............
 27c8 93808076 03af0000 b7fe0ff0 938efe00  ...v............
 27d8 93019000 6304df01 6fd09fa3 97e0ffff  ....c...o.......
 27e8 e78040a2 97100000 93804073 938000fe  ..@.......@s....
 27f8 83a20002 b70eff00 938efe0f 9301a000  ................
 2808 6384d201 6fd0dfa0 97e0ffff e780809f  c...o...........
 2818 67800f00 13050000 2320a600 97100000  g.......# ......
 2828 9380c070 3701aa00 1301a10a 23a02000  ...p7.......#. .
 2838 03af0000 b70eaa00 938eae0a 93012000  .............. .
 2848 6304df01 6fd0df9c 97e0ffff e780809b  c...o...........
 2858 97100000 9380806d 37b100aa 130101a0  .......m7.......
 2868 23a22000 03af4000 b7be00aa 938e0ea0  #. ...@.........
 2878 93013000 6304df01 6fd09f99 97e0ffff  ..0.c...o.......
 2888 e7804098 97100000 9380406a 3711a00a  ..@.......@j7...
 2898 130101aa 23a42000 03af8000 b71ea00a  ....#. .........
 28a8 938e0eaa 93014000 6304df01 6fd05f96  ......@.c...o._.
 28b8 97e0ffff e7800095 97100000 93800067  ...............g
 28c8 37a10aa0 1301a100 23a62000 03afc000  7.......#. .....
 28d8 b7ae0aa0 938eae00 93015000 6304df01  ..........P.c...
 28e8 6fd01f93 97e0ffff e780c091 97100000  o...............
 28f8 93808065 3701aa00 1301a10a 23aa20fe  ...e7.......#. .
 2908 03af40ff b70eaa00 938eae0a 93016000  ..@...........`.
 2918 6304df01 6fd0df8f 97e0ffff e780808e  c...o...........
 2928 97100000 93804062 37b100aa 130101a0  ......@b7.......
 2938 23ac20fe 03af80ff b7be00aa 938e0ea0  #. .............
 2948 93017000 6304df01 6fd09f8c 97e0ffff  ..p.c...o.......
 2958 e780408b 97100000 9380005f 3711a00a  ..@........_7...
 2968 130101aa 23ae20fe 03afc0ff b71ea00a  ....#. .........
 2978 938e0eaa 93018000 6304df01 6fd05f89  ........c...o._.
 2988 97e0ffff e7800088 97100000 9380c05b  ...............[
 2998 37a10aa0 1301a100 23a02000 03af0000  7.......#. .....
 29a8 b7ae0aa0 938eae00 93019000 6304df01  ............c...
 29b8 6fd01f86 97e0ffff e780c084 97100000  o...............
 29c8 9380c058 37513412 13018167 138200fe  ...X7Q4....g....
 29d8 23202202 83a20000 b75e3412 938e8e67  # "......^4....g
 29e8 9301a000 6384d201 6fd09f82 97e0ffff  ....c...o.......
 29f8 e7804081 67800f00 13050000 2320a600  ..@.g.......# ..
 2a08 93012000 93000000 13010000 63882000  .. .........c. .
 2a18 63043000 6fd0cfff 63183000 e38e20fe  c.0.o...c.0... .
 2a28 63043000 6fd0cffe 97d0ffff e780807d  c.0.o..........}
 2a38 93013000 93001000 13011000 63882000  ..0.........c. .
 2a48 63043000 6fd0cffc 63183000 e38e20fe  c.0.o...c.0... .
 2a58 63043000 6fd0cffb 97d0ffff e780807a  c.0.o..........z
 2a68 93014000 9300f0ff 1301f0ff 63882000  ..@.........c. .
 2a78 63043000 6fd0cff9 63183000 e38e20fe  c.0.o...c.0... .
 2a88 63043000 6fd0cff8 97d0ffff e7808077  c.0.o..........w
 2a98 93015000 93000000 13011000 63842000  ..P.........c. .
 2aa8 63163000 63043000 6fd08ff6 e38c20fe  c.0.c.0.o..... .
 2ab8 97d0ffff e7800075 93016000 93001000  .......u..`.....
 2ac8 13010000 63842000 63163000 63043000  ....c. .c.0.c.0.
 2ad8 6fd00ff4 e38c20fe 97d0ffff e7808072  o..... ........r
 2ae8 93017000 9300f0ff 13011000 63842000  ..p.........c. .
 2af8 63163000 63043000 6fd08ff1 e38c20fe  c.0.c.0.o..... .
 2b08 97d0ffff e7800070 93018000 93001000  .......p........
 2b18 1301f0ff 63842000 63163000 63043000  ....c. .c.0.c.0.
 2b28 6fd00fef e38c20fe 97d0ffff e780806d  o..... ........m
 2b38 67800f00 13050000 2320a600 93012000  g.......# .... .
 2b48 93000000 13011000 63982000 63043000  ........c. .c.0.
 2b58 6fd00fec 63183000 e39e20fe 63043000  o...c.0... .c.0.
 2b68 6fd00feb 97d0ffff e780c069 93013000  o..........i..0.
 2b78 93001000 13010000 63982000 63043000  ........c. .c.0.
 2b88 6fd00fe9 63183000 e39e20fe 63043000  o...c.0... .c.0.
 2b98 6fd00fe8 97d0ffff e780c066 93014000  o..........f..@.
 2ba8 9300f0ff 13011000 63982000 63043000  ........c. .c.0.
 2bb8 6fd00fe6 63183000 e39e20fe 63043000  o...c.0... .c.0.
 2bc8 6fd00fe5 97d0ffff e780c063 93015000  o..........c..P.
 2bd8 93001000 1301f0ff 63982000 63043000  ........c. .c.0.
 2be8 6fd00fe3 63183000 e39e20fe 63043000  o...c.0... .c.0.
 2bf8 6fd00fe2 97d0ffff e780c060 93016000  o..........`..`.
 2c08 93000000 13010000 63942000 63163000  ........c. .c.0.
 2c18 63043000 6fd0cfdf e39c20fe 97d0ffff  c.0.o..... .....
 2c28 e780405e 93017000 93001000 13011000  ..@^..p.........
 2c38 63942000 63163000 63043000 6fd04fdd  c. .c.0.c.0.o.O.
 2c48 e39c20fe 97d0ffff e780c05b 93018000  .. ........[....
 2c58 9300f0ff 1301f0ff 63942000 63163000  ........c. .c.0.
 2c68 63043000 6fd0cfda e39c20fe 97d0ffff  c.0.o..... .....
 2c78 e7804059 67800f00 13050000 2320a600  ..@Yg.......# ..
 2c88 93012000 93000000 13011000 63c82000  .. .........c. .
 2c98 63043000 6fd0cfd7 63183000 e3ce20fe  c.0.o...c.0... .
 2ca8 63043000 6fd0cfd6 97d0ffff e7808055  c.0.o..........U
 2cb8 93013000 9300f0ff 13011000 63c82000  ..0.........c. .
 2cc8 63043000 6fd0cfd4 63183000 e3ce20fe  c.0.o...c.0... .
 2cd8 63043000 6fd0cfd3 97d0ffff e7808052  c.0.o..........R
 2ce8 93014000 9300e0ff 1301f0ff 63c82000  ..@.........c. .
 2cf8 63043000 6fd0cfd1 63183000 e3ce20fe  c.0.o...c.0... .
 2d08 63043000 6fd0cfd0 97d0ffff e780804f  c.0.o..........O
 2d18 93015000 93001000 13010000 63c42000  ..P.........c. .
 2d28 63163000 63043000 6fd08fce e3cc20fe  c.0.c.0.o..... .
 2d38 97d0ffff e780004d 93016000 93001000  .......M..`.....
 2d48 1301f0ff 63c42000 63163000 63043000  ....c. .c.0.c.0.
 2d58 6fd00fcc e3cc20fe 97d0ffff e780804a  o..... ........J
 2d68 93017000 9300f0ff 1301e0ff 63c42000  ..p.........c. .
 2d78 63163000 63043000 6fd08fc9 e3cc20fe  c.0.c.0.o..... .
 2d88 97d0ffff e7800048 93018000 93001000  .......H........
 2d98 1301e0ff 63c42000 63163000 63043000  ....c. .c.0.c.0.
 2da8 6fd00fc7 e3cc20fe 97d0ffff e7808045  o..... ........E
 2db8 67800f00 13050000 2320a600 93012000  g.......# .... .
 2dc8 93000000 13010000 63d82000 63043000  ........c. .c.0.
 2dd8 6fd00fc4 63183000 e3de20fe 63043000  o...c.0... .c.0.
 2de8 6fd00fc3 97d0ffff e780c041 93013000  o..........A..0.
 2df8 93001000 13011000 63d82000 63043000  ........c. .c.0.
 2e08 6fd00fc1 63183000 e3de20fe 63043000  o...c.0... .c.0.
 2e18 6fd00fc0 97d0ffff e780c03e 93014000  o..........>..@.
 2e28 9300f0ff 1301f0ff 63d82000 63043000  ........c. .c.0.
 2e38 6fd00fbe 63183000 e3de20fe 63043000  o...c.0... .c.0.
 2e48 6fd00fbd 97d0ffff e780c03b 93015000  o..........;..P.
 2e58 93001000 13010000 63d82000 63043000  ........c. .c.0.
 2e68 6fd00fbb 63183000 e3de20fe 63043000  o...c.0... .c.0.
 2e78 6fd00fba 97d0ffff e780c038 93016000  o..........8..`.
 2e88 93001000 1301f0ff 63d82000 63043000  ........c. .c.0.
 2e98 6fd00fb8 63183000 e3de20fe 63043000  o...c.0... .c.0.
 2ea8 6fd00fb7 97d0ffff e780c035 93017000  o..........5..p.
 2eb8 9300f0ff 1301e0ff 63d82000 63043000  ........c. .c.0.
 2ec8 6fd00fb5 63183000 e3de20fe 63043000  o...c.0... .c.0.
 2ed8 6fd00fb4 97d0ffff e780c032 93018000  o..........2....
 2ee8 93000000 13011000 63d42000 63163000  ........c. .c.0.
 2ef8 63043000 6fd0cfb1 e3dc20fe 97d0ffff  c.0.o..... .....
 2f08 e7804030 93019000 9300f0ff 13011000  ..@0............
 2f18 63d42000 63163000 63043000 6fd04faf  c. .c.0.c.0.o.O.
 2f28 e3dc20fe 97d0ffff e780c02d 9301a000  .. ........-....
 2f38 9300e0ff 1301f0ff 63d42000 63163000  ........c. .c.0.
 2f48 63043000 6fd0cfac e3dc20fe 97d0ffff  c.0.o..... .....
 2f58 e780402b 9301b000 9300e0ff 13011000  ..@+............
 2f68 63d42000 63163000 63043000 6fd04faa  c. .c.0.c.0.o.O.
 2f78 e3dc20fe 97d0ffff e780c028 67800f00  .. ........(g...
 2f88 13050000 2320a600 93012000 93000000  ....# .... .....
 2f98 13011000 63e82000 63043000 6fd04fa7  ....c. .c.0.o.O.
 2fa8 63183000 e3ee20fe 63043000 6fd04fa6  c.0... .c.0.o.O.
 2fb8 97d0ffff e7800025 93013000 9300e0ff  .......%..0.....
 2fc8 1301f0ff 63e82000 63043000 6fd04fa4  ....c. .c.0.o.O.
 2fd8 63183000 e3ee20fe 63043000 6fd04fa3  c.0... .c.0.o.O.
 2fe8 97d0ffff e7800022 93014000 93000000  ......."..@.....
 2ff8 1301f0ff 63e82000 63043000 6fd04fa1  ....c. .c.0.o.O.
 3008 63183000 e3ee20fe 63043000 6fd04fa0  c.0... .c.0.o.O.
 3018 97d0ffff e780001f 93015000 93001000  ..........P.....
 3028 13010000 63e42000 63163000 63043000  ....c. .c.0.c.0.
 3038 6fd00f9e e3ec20fe 97d0ffff e780801c  o..... .........
 3048 93016000 9300f0ff 1301e0ff 63e42000  ..`.........c. .
 3058 63163000 63043000 6fd08f9b e3ec20fe  c.0.c.0.o..... .
 3068 97d0ffff e780001a 93017000 9300f0ff  ..........p.....
 3078 13010000 63e42000 63163000 63043000  ....c. .c.0.c.0.
 3088 6fd00f99 e3ec20fe 97d0ffff e7808017  o..... .........
 3098 93018000 b7000080 37010080 1301f1ff  ........7.......
 30a8 63e42000 63163000 63043000 6fd04f96  c. .c.0.c.0.o.O.
 30b8 e3ec20fe 97d0ffff e780c014 67800f00  .. .........g...
 30c8 13050000 2320a600 93012000 93000000  ....# .... .....
 30d8 13010000 63f82000 63043000 6fd04f93  ....c. .c.0.o.O.
 30e8 63183000 e3fe20fe 63043000 6fd04f92  c.0... .c.0.o.O.
 30f8 97d0ffff e7800011 93013000 93001000  ..........0.....
 3108 13011000 63f82000 63043000 6fd04f90  ....c. .c.0.o.O.
 3118 63183000 e3fe20fe 63043000 6fd04f8f  c.0... .c.0.o.O.
 3128 97d0ffff e780000e 93014000 9300f0ff  ..........@.....
 3138 1301f0ff 63f82000 63043000 6fd04f8d  ....c. .c.0.o.O.
 3148 63183000 e3fe20fe 63043000 6fd04f8c  c.0... .c.0.o.O.
 3158 97d0ffff e780000b 93015000 93001000  ..........P.....
 3168 13010000 63f82000 63043000 6fd04f8a  ....c. .c.0.o.O.
 3178 63183000 e3fe20fe 63043000 6fd04f89  c.0... .c.0.o.O.
 3188 97d0ffff e7800008 93016000 9300f0ff  ..........`.....
 3198 1301e0ff 63f82000 63043000 6fd04f87  ....c. .c.0.o.O.
 31a8 63183000 e3fe20fe 63043000 6fd04f86  c.0... .c.0.o.O.
 31b8 97d0ffff e7800005 93017000 9300f0ff  ..........p.....
 31c8 13010000 63f82000 63043000 6fd04f84  ....c. .c.0.o.O.
 31d8 63183000 e3fe20fe 63043000 6fd04f83  c.0... .c.0.o.O.
 31e8 97d0ffff e7800002 93018000 93000000  ................
 31f8 13011000 63f42000 63163000 63043000  ....c. .c.0.c.0.
 3208 6fd00f81 e3fc20fe 97d0ffff e78080ff  o..... .........
 3218 93019000 9300e0ff 1301f0ff 63f42000  ............c. .
 3228 63163000 63043000 6fc09ffe e3fc20fe  c.0.c.0.o..... .
 3238 97d0ffff e78000fd 9301a000 93000000  ................
 3248 1301f0ff 63f42000 63163000 63043000  ....c. .c.0.c.0.
 3258 6fc01ffc e3fc20fe 97d0ffff e78080fa  o..... .........
 3268 9301b000 b7000080 9380f0ff 37010080  ............7...
 3278 63f42000 63163000 63043000 6fc05ff9  c. .c.0.c.0.o._.
 3288 e3fc20fe 97d0ffff e780c0f7 67800f00  .. .........g...
 3298 13050000 2320a600 172e0000 130ece71  ....# .........q
 32a8 ef0d4000 330ebe41 b72e0000 938e0e71  ..@.3..A.......q
 32b8 93012000 6304de01 6fc09ff5 97d0ffff  .. .c...o.......
 32c8 e78040f4 13000000 17eeffff 130ece8f  ..@.............
 32d8 ef0d4000 330ebe41 b7eeffff 938e0e8f  ..@.3..A........
 32e8 93013000 6304de01 6fc09ff2 97d0ffff  ..0.c...o.......
 32f8 e78040f1 67800f00 13050000 2320a600  ..@.g.......# ..
 3308 b7000000 930e0000 93012000 6384d001  .......... .c...
 3318 6fc01ff0 97d0ffff e780c0ee b7f0ffff  o...............
 3328 93d01040 930e0080 93013000 6384d001  ...@......0.c...
 3338 6fc01fee 97d0ffff e780c0ec b7f0ff7f  o...............
 3348 93d04041 930ef07f 93014000 6384d001  ..@A......@.c...
 3358 6fc01fec 97d0ffff e780c0ea b7000080  o...............
 3368 93d04041 930e0080 93015000 6384d001  ..@A......P.c...
 3378 6fc01fea 97d0ffff e780c0e8 37000080  o...........7...
 3388 930e0000 93016000 6304d001 6fc05fe8  ......`.c...o._.
 3398 97d0ffff e78000e7 67800f00 13050000  ........g.......
 33a8 2320a600 93012000 93000000 6f020001  # .... .....o...
 33b8 13000000 13000000 6fc09fe5 17010000  ........o.......
 33c8 130141ff 63044100 6fc09fe4 97d0ffff  ..A.c.A.o.......
 33d8 e78040e3 93001000 6f004001 93801000  ..@.....o.@.....
 33e8 93801000 93801000 93801000 93801000  ................
 33f8 93801000 930e3000 93013000 6384d001  ......0...0.c...
 3408 6fc01fe1 97d0ffff e780c0df 67800f00  o...........g...
 3418 13050000 2320a600 93012000 93020000  ....# .... .....
 3428 17030000 13030301 e7020300 6fc05fde  ............o._.
 3438 17030000 1303c3ff 63846200 6fc05fdd  ........c.b.o._.
 3448 97d0ffff e78000dc 93014000 13020000  ..........@.....
 3458 17030000 13034301 e7090300 63043000  ......C.....c.0.
 3468 6fc01fdb 13021200 93022000 e31252fe  o......... ...R.
 3478 97d0ffff e78000d9 93015000 13020000  ..........P.....
 3488 17030000 13038301 13000000 e7090300  ................
 3498 63043000 6fc0dfd7 13021200 93022000  c.0.o......... .
 34a8 e31052fe 97d0ffff e780c0d5 93016000  ..R...........`.
 34b8 13020000 17030000 1303c301 13000000  ................
 34c8 13000000 e7090300 63043000 6fc05fd4  ........c.0.o._.
 34d8 13021200 93022000 e31e52fc 97d0ffff  ...... ...R.....
 34e8 e78040d2 67800f00 13050000 2320a600  ..@.g.......# ..
 34f8 97100000 9380c0a5 039f0000 930ef00f  ................
 3508 93012000 6304df01 6fc09fd0 97d0ffff  .. .c...o.......
 3518 e78040cf 97100000 938080a3 039f2000  ..@........... .
 3528 930e00f0 93013000 6304df01 6fc05fce  ......0.c...o._.
 3538 97d0ffff e78000cd 97100000 938040a1  ..............@.
 3548 039f4000 b71e0000 938e0eff 93014000  ..@...........@.
 3558 6304df01 6fc0dfcb 97d0ffff e78080ca  c...o...........
 3568 97100000 9380c09e 039f6000 b7feffff  ..........`.....
 3578 938efe00 93015000 6304df01 6fc05fc9  ......P.c...o._.
 3588 97d0ffff e78000c8 97100000 9380a09c  ................
 3598 039fa0ff 930ef00f 93016000 6304df01  ..........`.c...
 35a8 6fc01fc7 97d0ffff e780c0c5 97100000  o...............
 35b8 9380609a 039fc0ff 930e00f0 93017000  ..`...........p.
 35c8 6304df01 6fc0dfc4 97d0ffff e78080c3  c...o...........
 35d8 97100000 93802098 039fe0ff b71e0000  ...... .........
 35e8 938e0eff 93018000 6304df01 6fc05fc2  ........c...o._.
 35f8 97d0ffff e78000c1 97100000 9380a095  ................
 3608 039f0000 b7feffff 938efe00 93019000  ................
 3618 6304df01 6fc0dfbf 97d0ffff e78080be  c...o...........
 3628 97100000 9380c092 938000fe 83920002  ................
 3638 930ef00f 9301a000 6384d201 6fc05fbd  ........c...o._.
 3648 97d0ffff e78000bc 97100000 93804090  ..............@.
 3658 9380b0ff 83927000 930e00f0 9301b000  ......p.........
 3668 6384d201 6fc0dfba 97d0ffff e78080b9  c...o...........
 3678 67800f00 13050000 2320a600 13151500  g.......# ......
 3688 97100000 9380408d 038f0000 930ef0ff  ......@.........
 3698 93012000 6304df01 6fc09fb7 97d0ffff  .. .c...o.......
 36a8 e78040b6 97100000 9380008b 038f1000  ..@.............
 36b8 930e0000 93013000 6304df01 6fc05fb5  ......0.c...o._.
 36c8 97d0ffff e78000b4 97100000 9380c088  ................
 36d8 038f2000 930e00ff 93014000 6304df01  .. .......@.c...
 36e8 6fc01fb3 97d0ffff e780c0b1 97100000  o...............
 36f8 93808086 038f3000 930ef000 93015000  ......0.......P.
 3708 6304df01 6fc0dfb0 97d0ffff e78080af  c...o...........
 3718 97100000 93807084 038fd0ff 930ef0ff  ......p.........
 3728 93016000 6304df01 6fc09fae 97d0ffff  ..`.c...o.......
 3738 e78040ad 97100000 93803082 038fe0ff  ..@.......0.....
 3748 930e0000 93017000 6304df01 6fc05fac  ......p.c...o._.
 3758 97d0ffff e78000ab 97000000 9380f07f  ................
 3768 038ff0ff 930e00ff 93018000 6304df01  ............c...
 3778 6fc01faa 97d0ffff e780c0a8 97000000  o...............
 3788 9380b07d 038f0000 930ef000 93019000  ...}............
 3798 6304df01 6fc0dfa7 97d0ffff e78080a6  c...o...........
 37a8 97000000 9380407b 938000fe 83820002  ......@{........
 37b8 930ef0ff 9301a000 6384d201 6fc05fa5  ........c...o._.
 37c8 97d0ffff e78000a4 97000000 9380c078  ...............x
 37d8 9380a0ff 83827000 930e0000 9301b000  ......p.........
 37e8 6384d201 6fc0dfa2 97d0ffff e78080a1  c...o...........
 37f8 67800f00 13050000 2320a600 13151500  g.......# ......
 3808 97000000 93804075 03cf0000 930ef00f  ......@u........
 3818 93012000 6304df01 6fc09f9f 97d0ffff  .. .c...o.......
 3828 e780409e 97000000 93800073 03cf1000  ..@........s....
 3838 930e0000 93013000 6304df01 6fc05f9d  ......0.c...o._.
 3848 97d0ffff e780009c 97000000 9380c070  ...............p
 3858 03cf2000 930e000f 93014000 6304df01  .. .......@.c...
 3868 6fc01f9b 97d0ffff e780c099 97000000  o...............
 3878 9380806e 03cf3000 930ef000 93015000  ...n..0.......P.
 3888 6304df01 6fc0df98 97d0ffff e7808097  c...o...........
 3898 97000000 9380706c 03cfd0ff 930ef00f  ......pl........
 38a8 93016000 6304df01 6fc09f96 97d0ffff  ..`.c...o.......
 38b8 e7804095 97000000 9380306a 03cfe0ff  ..@.......0j....
 38c8 930e0000 93017000 6304df01 6fc05f94  ......p.c...o._.
 38d8 97d0ffff e7800093 97000000 9380f067  ...............g
 38e8 03cff0ff 930e000f 93018000 6304df01  ............c...
 38f8 6fc01f92 97d0ffff e780c090 97000000  o...............
 3908 9380b065 03cf0000 930ef000 93019000  ...e............
 3918 6304df01 6fc0df8f 97d0ffff e780808e  c...o...........
 3928 97000000 93804063 938000fe 83c20002  ......@c........
 3938 930ef00f 9301a000 6384d201 6fc05f8d  ........c...o._.
 3948 97d0ffff e780008c 97000000 9380c060  ...............`
 3958 9380a0ff 83c27000 930e0000 9301b000  ......p.........
 3968 6384d201 6fc0df8a 97d0ffff e7808089  c...o...........
 3978 67800f00 13050000 2320a600 13151500  g.......# ......
 3988 97000000 9380c05c 03df0000 930ef00f  .......\........
 3998 93012000 6304df01 6fc09f87 97d0ffff  .. .c...o.......
 39a8 e7804086 97000000 9380805a 03df2000  ..@........Z.. .
 39b8 b70e0100 938e0ef0 93013000 6304df01  ..........0.c...
 39c8 6fc01f85 97d0ffff e780c083 97000000  o...............
 39d8 93800058 03df4000 b71e0000 938e0eff  ...X..@.........
 39e8 93014000 6304df01 6fc09f82 97d0ffff  ..@.c...o.......
 39f8 e7804081 97000000 93808055 03df6000  ..@........U..`.
 3a08 b7fe0000 938efe00 93015000 6304df01  ..........P.c...
 3a18 6fc01f80 97c0ffff e780c07e 97000000  o..........~....
 3a28 93806053 03dfa0ff 930ef00f 93016000  ..`S..........`.
 3a38 6304df01 6fc0cffd 97c0ffff e780807c  c...o..........|
 3a48 97000000 93802051 03dfc0ff b70e0100  ...... Q........
 3a58 938e0ef0 93017000 6304df01 6fc04ffb  ......p.c...o.O.
 3a68 97c0ffff e780007a 97000000 9380a04e  .......z.......N
 3a78 03dfe0ff b71e0000 938e0eff 93018000  ................
 3a88 6304df01 6fc0cff8 97c0ffff e7808077  c...o..........w
 3a98 97000000 9380204c 03df0000 b7fe0000  ...... L........
 3aa8 938efe00 93019000 6304df01 6fc04ff6  ........c...o.O.
 3ab8 97c0ffff e7800075 97000000 93804049  .......u......@I
 3ac8 938000fe 83d20002 930ef00f 9301a000  ................
 3ad8 6384d201 6fc0cff3 97c0ffff e7808072  c...o..........r
 3ae8 97000000 9380c046 9380b0ff 83d27000  .......F......p.
 3af8 b70e0100 938e0ef0 9301b000 6384d201  ............c...
 3b08 6fc00ff1 97c0ffff e780c06f 67800f00  o..........og...
 3b18 13050000 2320a600 13151500 97000000  ....# ..........
 3b28 93806044 1301a00a 23902000 039f0000  ..`D....#. .....
 3b38 930ea00a 93012000 6304df01 6fc04fed  ...... .c...o.O.
 3b48 97c0ffff e780006c 97000000 9380a041  .......l.......A
 3b58 37b1ffff 130101a0 23912000 039f2000  7.......#. ... .
 3b68 b7beffff 938e0ea0 93013000 6304df01  ..........0.c...
 3b78 6fc00fea 97c0ffff e780c068 97000000  o..........h....
 3b88 9380603e 3711efbe 130101aa 23922000  ..`>7.......#. .
 3b98 039f4000 b71e0000 938e0eaa 93014000  ..@...........@.
 3ba8 6304df01 6fc0cfe6 97c0ffff e7808065  c...o..........e
 3bb8 97000000 9380203b 37a1ffff 1301a100  ...... ;7.......
 3bc8 23932000 039f6000 b7aeffff 938eae00  #. ...`.........
 3bd8 93015000 6304df01 6fc08fe3 97c0ffff  ..P.c...o.......
 3be8 e7804062 97000000 9380c038 1301a00a  ..@b.......8....
 3bf8 239d20fe 039fa0ff 930ea00a 93016000  #. ...........`.
 3c08 6304df01 6fc0cfe0 97c0ffff e780805f  c...o.........._
 3c18 97000000 93800036 37b1ffff 130101a0  .......67.......
 3c28 239e20fe 039fc0ff b7beffff 938e0ea0  #. .............
 3c38 93017000 6304df01 6fc08fdd 97c0ffff  ..p.c...o.......
 3c48 e780405c 97000000 9380c032 37110000  ..@\.......27...
 3c58 130101aa 239f20fe 039fe0ff b71e0000  ....#. .........
 3c68 938e0eaa 93018000 6304df01 6fc04fda  ........c...o.O.
 3c78 97c0ffff e7800059 97000000 9380802f  .......Y......./
 3c88 37a1ffff 1301a100 23902000 039f0000  7.......#. .....
 3c98 b7aeffff 938eae00 93019000 6304df01  ............c...
 3ca8 6fc00fd7 97c0ffff e780c055 97000000  o..........U....
 3cb8 9380602c 37513412 13018167 138200fe  ..`,7Q4....g....
 3cc8 23102202 83920000 b75e0000 938e8e67  #."......^.....g
 3cd8 9301a000 6384d201 6fc08fd3 97c0ffff  ....c...o.......
 3ce8 e7804052 97000000 9380e028 37310000  ..@R.......(71..
 3cf8 13018109 9380b0ff a3932000 17020000  .......... .....
 3d08 13028227 83120200 b73e0000 938e8e09  ...'.....>......
 3d18 9301b000 6384d201 6fc08fcf 97c0ffff  ....c...o.......
 3d28 e780404e 67800f00 13050000 2320a600  ..@Ng.......# ..
 3d38 13151500 97000000 93804022 1301a0fa  ..........@"....
 3d48 23802000 038f0000 930ea0fa 93012000  #. ........... .
 3d58 6304df01 6fc0cfcb 97c0ffff e780804a  c...o..........J
 3d68 97000000 9380801f 13010000 a3802000  .............. .
 3d78 038f1000 930e0000 93013000 6304df01  ..........0.c...
 3d88 6fc00fc9 97c0ffff e780c047 97000000  o..........G....
 3d98 9380c01c 37f1ffff 130101fa 23812000  ....7.......#. .
 3da8 038f2000 930e00fa 93014000 6304df01  .. .......@.c...
 3db8 6fc00fc6 97c0ffff e780c044 97000000  o..........D....
 3dc8 9380c019 1301a000 a3812000 038f3000  .......... ...0.
 3dd8 930ea000 93015000 6304df01 6fc04fc3  ......P.c...o.O.
 3de8 97c0ffff e7800042 97000000 93807017  .......B......p.
 3df8 1301a0fa a38e20fe 038fd0ff 930ea0fa  ...... .........
 3e08 93016000 6304df01 6fc08fc0 97c0ffff  ..`.c...o.......
 3e18 e780403f 97000000 9380b014 13010000  ..@?............
 3e28 238f20fe 038fe0ff 930e0000 93017000  #. ...........p.
 3e38 6304df01 6fc0cfbd 97c0ffff e780803c  c...o..........<
 3e48 97000000 9380f011 130100fa a38f20fe  .............. .
 3e58 038ff0ff 930e00fa 93018000 6304df01  ............c...
 3e68 6fc00fbb 97c0ffff e780c039 97000000  o..........9....
 3e78 9380300f 1301a000 23802000 038f0000  ..0.....#. .....
 3e88 930ea000 93019000 6304df01 6fc04fb8  ........c...o.O.
 3e98 97c0ffff e7800037 97000000 9380800c  .......7........
 3ea8 37513412 13018167 138200fe 23002202  7Q4....g....#.".
 3eb8 83820000 930e8007 9301a000 6384d201  ............c...
 3ec8 6fc00fb5 97c0ffff e780c033 97000000  o..........3....
 3ed8 93804009 37310000 13018109 9380a0ff  ..@.71..........
 3ee8 a3832000 17020000 1302d207 83020200  .. .............
 3ef8 930e80f9 9301b000 6384d201 6fc04fb1  ........c...o.O.
 3f08 97c0ffff e7800030 67800f00           .......0g...    
Contents of section .data:
 3f20 ff00ff00 00ff00ff f00ff00f 0ff00ff0  ................
 3f30 efbeadde efbeadde efbeadde efbeadde  ................
 3f40 efbeadde efbeadde efbeadde efbeadde  ................
 3f50 efbeadde ff0000ff f00f0ff0 ff00f00f  ................
 3f60 efefefef efefefef efefefbe efbeefbe  ................
 3f70 efbeefbe efbeefbe efbeefbe efbe0000  ................

Disassembly of section .text.init:

00000000 <entry>:
   0:	00010117          	auipc	sp,0x10
   4:	fe010113          	addi	sp,sp,-32 # ffe0 <__global_pointer$+0xb8cc>
   8:	00000097          	auipc	ra,0x0
   c:	010080e7          	jalr	16(ra) # 18 <main>

00000010 <end>:
  10:	0000006f          	j	10 <end>

Disassembly of section .text:

00000018 <main>:
      18:	11000837          	lui	a6,0x11000
      1c:	110c05b7          	lui	a1,0x110c0
      20:	11080637          	lui	a2,0x11080

00000024 <loop>:
      24:	fff00713          	li	a4,-1
      28:	00000097          	auipc	ra,0x0
      2c:	1c8080e7          	jalr	456(ra) # 1f0 <end>
      30:	1f400fef          	jal	t6,224 <add_test>
      34:	00000097          	auipc	ra,0x0
      38:	1bc080e7          	jalr	444(ra) # 1f0 <end>
      3c:	44400fef          	jal	t6,480 <sub_test>
      40:	00000097          	auipc	ra,0x0
      44:	1b0080e7          	jalr	432(ra) # 1f0 <end>
      48:	66c00fef          	jal	t6,6b4 <and_test>
      4c:	00000097          	auipc	ra,0x0
      50:	1a4080e7          	jalr	420(ra) # 1f0 <end>
      54:	79400fef          	jal	t6,7e8 <or_test>
      58:	00000097          	auipc	ra,0x0
      5c:	198080e7          	jalr	408(ra) # 1f0 <end>
      60:	0c100fef          	jal	t6,920 <xor_test>
      64:	00000097          	auipc	ra,0x0
      68:	18c080e7          	jalr	396(ra) # 1f0 <end>
      6c:	1e900fef          	jal	t6,a54 <sll_test>
      70:	00000097          	auipc	ra,0x0
      74:	180080e7          	jalr	384(ra) # 1f0 <end>
      78:	48500fef          	jal	t6,cfc <srl_test>
      7c:	00000097          	auipc	ra,0x0
      80:	174080e7          	jalr	372(ra) # 1f0 <end>
      84:	6e900fef          	jal	t6,f6c <sra_test>
      88:	00000097          	auipc	ra,0x0
      8c:	168080e7          	jalr	360(ra) # 1f0 <end>
      90:	1e001fef          	jal	t6,1270 <slt_test>
      94:	00000097          	auipc	ra,0x0
      98:	15c080e7          	jalr	348(ra) # 1f0 <end>
      9c:	43801fef          	jal	t6,14d4 <sltu_test>
      a0:	00000097          	auipc	ra,0x0
      a4:	150080e7          	jalr	336(ra) # 1f0 <end>
      a8:	69001fef          	jal	t6,1738 <addi_test>
      ac:	00000097          	auipc	ra,0x0
      b0:	144080e7          	jalr	324(ra) # 1f0 <end>
      b4:	0b501fef          	jal	t6,1968 <andi_test>
      b8:	00000097          	auipc	ra,0x0
      bc:	138080e7          	jalr	312(ra) # 1f0 <end>
      c0:	16d01fef          	jal	t6,1a2c <ori_test>
      c4:	00000097          	auipc	ra,0x0
      c8:	12c080e7          	jalr	300(ra) # 1f0 <end>
      cc:	23101fef          	jal	t6,1afc <xori_test>
      d0:	00000097          	auipc	ra,0x0
      d4:	120080e7          	jalr	288(ra) # 1f0 <end>
      d8:	2f901fef          	jal	t6,1bd0 <slli_test>
      dc:	00000097          	auipc	ra,0x0
      e0:	114080e7          	jalr	276(ra) # 1f0 <end>
      e4:	4f901fef          	jal	t6,1ddc <srli_test>
      e8:	00000097          	auipc	ra,0x0
      ec:	108080e7          	jalr	264(ra) # 1f0 <end>
      f0:	72d01fef          	jal	t6,201c <srai_test>
      f4:	00000097          	auipc	ra,0x0
      f8:	0fc080e7          	jalr	252(ra) # 1f0 <end>
      fc:	17802fef          	jal	t6,2274 <sltiu_test>
     100:	00000097          	auipc	ra,0x0
     104:	0f0080e7          	jalr	240(ra) # 1f0 <end>
     108:	38402fef          	jal	t6,248c <slti_test>
     10c:	00000097          	auipc	ra,0x0
     110:	0e4080e7          	jalr	228(ra) # 1f0 <end>
     114:	59002fef          	jal	t6,26a4 <lw_test>
     118:	00000097          	auipc	ra,0x0
     11c:	0d8080e7          	jalr	216(ra) # 1f0 <end>
     120:	6fc02fef          	jal	t6,281c <sw_test>
     124:	00000097          	auipc	ra,0x0
     128:	0cc080e7          	jalr	204(ra) # 1f0 <end>
     12c:	0d502fef          	jal	t6,2a00 <beq_test>
     130:	00000097          	auipc	ra,0x0
     134:	0c0080e7          	jalr	192(ra) # 1f0 <end>
     138:	20502fef          	jal	t6,2b3c <bne_test>
     13c:	00000097          	auipc	ra,0x0
     140:	0b4080e7          	jalr	180(ra) # 1f0 <end>
     144:	33d02fef          	jal	t6,2c80 <blt_test>
     148:	00000097          	auipc	ra,0x0
     14c:	0a8080e7          	jalr	168(ra) # 1f0 <end>
     150:	46d02fef          	jal	t6,2dbc <bge_test>
     154:	00000097          	auipc	ra,0x0
     158:	09c080e7          	jalr	156(ra) # 1f0 <end>
     15c:	62d02fef          	jal	t6,2f88 <bltu_test>
     160:	00000097          	auipc	ra,0x0
     164:	090080e7          	jalr	144(ra) # 1f0 <end>
     168:	76102fef          	jal	t6,30c8 <bgeu_test>
     16c:	00000097          	auipc	ra,0x0
     170:	084080e7          	jalr	132(ra) # 1f0 <end>
     174:	12403fef          	jal	t6,3298 <auipc_test>
     178:	00000097          	auipc	ra,0x0
     17c:	078080e7          	jalr	120(ra) # 1f0 <end>
     180:	18003fef          	jal	t6,3300 <lui_test>
     184:	00000097          	auipc	ra,0x0
     188:	06c080e7          	jalr	108(ra) # 1f0 <end>
     18c:	21803fef          	jal	t6,33a4 <jal_test>
     190:	00000097          	auipc	ra,0x0
     194:	060080e7          	jalr	96(ra) # 1f0 <end>
     198:	28003fef          	jal	t6,3418 <jalr_test>
     19c:	00000097          	auipc	ra,0x0
     1a0:	054080e7          	jalr	84(ra) # 1f0 <end>
     1a4:	34c03fef          	jal	t6,34f0 <lh_test>
     1a8:	00000097          	auipc	ra,0x0
     1ac:	048080e7          	jalr	72(ra) # 1f0 <end>
     1b0:	4cc03fef          	jal	t6,367c <lb_test>
     1b4:	00000097          	auipc	ra,0x0
     1b8:	03c080e7          	jalr	60(ra) # 1f0 <end>
     1bc:	7c003fef          	jal	t6,397c <lhu_test>
     1c0:	00000097          	auipc	ra,0x0
     1c4:	030080e7          	jalr	48(ra) # 1f0 <end>
     1c8:	63403fef          	jal	t6,37fc <lbu_test>
     1cc:	00000097          	auipc	ra,0x0
     1d0:	024080e7          	jalr	36(ra) # 1f0 <end>
     1d4:	14503fef          	jal	t6,3b18 <sh_test>
     1d8:	00000097          	auipc	ra,0x0
     1dc:	018080e7          	jalr	24(ra) # 1f0 <end>
     1e0:	35103fef          	jal	t6,3d30 <sb_test>
     1e4:	00000097          	auipc	ra,0x0
     1e8:	00c080e7          	jalr	12(ra) # 1f0 <end>
     1ec:	e39ff06f          	j	24 <loop>

000001f0 <end>:
     1f0:	00082683          	lw	a3,0(a6) # 11000000 <SWITCHES>
     1f4:	0016f693          	andi	a3,a3,1
     1f8:	fe069ce3          	bnez	a3,1f0 <end>
     1fc:	00170713          	addi	a4,a4,1
     200:	00e5a023          	sw	a4,0(a1) # 110c0000 <SSEG>
     204:	00008067          	ret

00000208 <update_test>:
     208:	00151513          	slli	a0,a0,0x1
     20c:	00150513          	addi	a0,a0,1
     210:	00a62023          	sw	a0,0(a2) # 11080000 <LEDS>
     214:	00008067          	ret

00000218 <fail>:
     218:	fff00793          	li	a5,-1
     21c:	00f5a023          	sw	a5,0(a1)
     220:	000f8067          	jr	t6

00000224 <add_test>:
     224:	00000513          	li	a0,0
     228:	00a62023          	sw	a0,0(a2)
     22c:	00000093          	li	ra,0
     230:	00000113          	li	sp,0
     234:	00208f33          	add	t5,ra,sp
     238:	00000e93          	li	t4,0
     23c:	00200193          	li	gp,2
     240:	fddf1ce3          	bne	t5,t4,218 <fail>
     244:	00000097          	auipc	ra,0x0
     248:	fc4080e7          	jalr	-60(ra) # 208 <update_test>
     24c:	00100093          	li	ra,1
     250:	00100113          	li	sp,1
     254:	00208f33          	add	t5,ra,sp
     258:	00200e93          	li	t4,2
     25c:	00300193          	li	gp,3
     260:	fbdf1ce3          	bne	t5,t4,218 <fail>
     264:	00000097          	auipc	ra,0x0
     268:	fa4080e7          	jalr	-92(ra) # 208 <update_test>
     26c:	00300093          	li	ra,3
     270:	00700113          	li	sp,7
     274:	00208f33          	add	t5,ra,sp
     278:	00a00e93          	li	t4,10
     27c:	00400193          	li	gp,4
     280:	f9df1ce3          	bne	t5,t4,218 <fail>
     284:	00000097          	auipc	ra,0x0
     288:	f84080e7          	jalr	-124(ra) # 208 <update_test>
     28c:	00000093          	li	ra,0
     290:	ffff8137          	lui	sp,0xffff8
     294:	00208f33          	add	t5,ra,sp
     298:	ffff8eb7          	lui	t4,0xffff8
     29c:	00500193          	li	gp,5
     2a0:	f7df1ce3          	bne	t5,t4,218 <fail>
     2a4:	00000097          	auipc	ra,0x0
     2a8:	f64080e7          	jalr	-156(ra) # 208 <update_test>
     2ac:	800000b7          	lui	ra,0x80000
     2b0:	00000113          	li	sp,0
     2b4:	00208f33          	add	t5,ra,sp
     2b8:	80000eb7          	lui	t4,0x80000
     2bc:	00600193          	li	gp,6
     2c0:	f5df1ce3          	bne	t5,t4,218 <fail>
     2c4:	00000097          	auipc	ra,0x0
     2c8:	f44080e7          	jalr	-188(ra) # 208 <update_test>
     2cc:	800000b7          	lui	ra,0x80000
     2d0:	ffff8137          	lui	sp,0xffff8
     2d4:	00208f33          	add	t5,ra,sp
     2d8:	7fff8eb7          	lui	t4,0x7fff8
     2dc:	00700193          	li	gp,7
     2e0:	f3df1ce3          	bne	t5,t4,218 <fail>
     2e4:	00000097          	auipc	ra,0x0
     2e8:	f24080e7          	jalr	-220(ra) # 208 <update_test>
     2ec:	00000093          	li	ra,0
     2f0:	00008137          	lui	sp,0x8
     2f4:	fff10113          	addi	sp,sp,-1 # 7fff <__global_pointer$+0x38eb>
     2f8:	00208f33          	add	t5,ra,sp
     2fc:	00008eb7          	lui	t4,0x8
     300:	fffe8e93          	addi	t4,t4,-1 # 7fff <__global_pointer$+0x38eb>
     304:	00800193          	li	gp,8
     308:	f1df18e3          	bne	t5,t4,218 <fail>
     30c:	00000097          	auipc	ra,0x0
     310:	efc080e7          	jalr	-260(ra) # 208 <update_test>
     314:	800000b7          	lui	ra,0x80000
     318:	fff08093          	addi	ra,ra,-1 # 7fffffff <SSEG+0x6ef3ffff>
     31c:	00000113          	li	sp,0
     320:	00208f33          	add	t5,ra,sp
     324:	80000eb7          	lui	t4,0x80000
     328:	fffe8e93          	addi	t4,t4,-1 # 7fffffff <SSEG+0x6ef3ffff>
     32c:	00900193          	li	gp,9
     330:	efdf14e3          	bne	t5,t4,218 <fail>
     334:	00000097          	auipc	ra,0x0
     338:	ed4080e7          	jalr	-300(ra) # 208 <update_test>
     33c:	800000b7          	lui	ra,0x80000
     340:	fff08093          	addi	ra,ra,-1 # 7fffffff <SSEG+0x6ef3ffff>
     344:	00008137          	lui	sp,0x8
     348:	fff10113          	addi	sp,sp,-1 # 7fff <__global_pointer$+0x38eb>
     34c:	00208f33          	add	t5,ra,sp
     350:	80008eb7          	lui	t4,0x80008
     354:	ffee8e93          	addi	t4,t4,-2 # 80007ffe <SSEG+0x6ef47ffe>
     358:	00a00193          	li	gp,10
     35c:	ebdf1ee3          	bne	t5,t4,218 <fail>
     360:	00000097          	auipc	ra,0x0
     364:	ea8080e7          	jalr	-344(ra) # 208 <update_test>
     368:	800000b7          	lui	ra,0x80000
     36c:	00008137          	lui	sp,0x8
     370:	fff10113          	addi	sp,sp,-1 # 7fff <__global_pointer$+0x38eb>
     374:	00208f33          	add	t5,ra,sp
     378:	80008eb7          	lui	t4,0x80008
     37c:	fffe8e93          	addi	t4,t4,-1 # 80007fff <SSEG+0x6ef47fff>
     380:	00b00193          	li	gp,11
     384:	e9df1ae3          	bne	t5,t4,218 <fail>
     388:	00000097          	auipc	ra,0x0
     38c:	e80080e7          	jalr	-384(ra) # 208 <update_test>
     390:	800000b7          	lui	ra,0x80000
     394:	fff08093          	addi	ra,ra,-1 # 7fffffff <SSEG+0x6ef3ffff>
     398:	ffff8137          	lui	sp,0xffff8
     39c:	00208f33          	add	t5,ra,sp
     3a0:	7fff8eb7          	lui	t4,0x7fff8
     3a4:	fffe8e93          	addi	t4,t4,-1 # 7fff7fff <SSEG+0x6ef37fff>
     3a8:	00c00193          	li	gp,12
     3ac:	e7df16e3          	bne	t5,t4,218 <fail>
     3b0:	00000097          	auipc	ra,0x0
     3b4:	e58080e7          	jalr	-424(ra) # 208 <update_test>
     3b8:	00000093          	li	ra,0
     3bc:	fff00113          	li	sp,-1
     3c0:	00208f33          	add	t5,ra,sp
     3c4:	fff00e93          	li	t4,-1
     3c8:	00d00193          	li	gp,13
     3cc:	e5df16e3          	bne	t5,t4,218 <fail>
     3d0:	00000097          	auipc	ra,0x0
     3d4:	e38080e7          	jalr	-456(ra) # 208 <update_test>
     3d8:	fff00093          	li	ra,-1
     3dc:	00100113          	li	sp,1
     3e0:	00208f33          	add	t5,ra,sp
     3e4:	00000e93          	li	t4,0
     3e8:	00e00193          	li	gp,14
     3ec:	e3df16e3          	bne	t5,t4,218 <fail>
     3f0:	00000097          	auipc	ra,0x0
     3f4:	e18080e7          	jalr	-488(ra) # 208 <update_test>
     3f8:	fff00093          	li	ra,-1
     3fc:	fff00113          	li	sp,-1
     400:	00208f33          	add	t5,ra,sp
     404:	ffe00e93          	li	t4,-2
     408:	00f00193          	li	gp,15
     40c:	e1df16e3          	bne	t5,t4,218 <fail>
     410:	00000097          	auipc	ra,0x0
     414:	df8080e7          	jalr	-520(ra) # 208 <update_test>
     418:	00100093          	li	ra,1
     41c:	80000137          	lui	sp,0x80000
     420:	fff10113          	addi	sp,sp,-1 # 7fffffff <SSEG+0x6ef3ffff>
     424:	00208f33          	add	t5,ra,sp
     428:	80000eb7          	lui	t4,0x80000
     42c:	01000193          	li	gp,16
     430:	dfdf14e3          	bne	t5,t4,218 <fail>
     434:	00000097          	auipc	ra,0x0
     438:	dd4080e7          	jalr	-556(ra) # 208 <update_test>
     43c:	00d00093          	li	ra,13
     440:	00b00113          	li	sp,11
     444:	002080b3          	add	ra,ra,sp
     448:	01800e93          	li	t4,24
     44c:	01100193          	li	gp,17
     450:	ddd094e3          	bne	ra,t4,218 <fail>
     454:	00000097          	auipc	ra,0x0
     458:	db4080e7          	jalr	-588(ra) # 208 <update_test>
     45c:	00e00093          	li	ra,14
     460:	00b00113          	li	sp,11
     464:	00208133          	add	sp,ra,sp
     468:	01900e93          	li	t4,25
     46c:	01200193          	li	gp,18
     470:	dbd114e3          	bne	sp,t4,218 <fail>
     474:	00000097          	auipc	ra,0x0
     478:	d94080e7          	jalr	-620(ra) # 208 <update_test>
     47c:	000f8067          	jr	t6

00000480 <sub_test>:
     480:	00000513          	li	a0,0
     484:	00a62023          	sw	a0,0(a2)
     488:	00000093          	li	ra,0
     48c:	00000113          	li	sp,0
     490:	40208f33          	sub	t5,ra,sp
     494:	00000e93          	li	t4,0
     498:	00200193          	li	gp,2
     49c:	d7df1ee3          	bne	t5,t4,218 <fail>
     4a0:	00000097          	auipc	ra,0x0
     4a4:	d68080e7          	jalr	-664(ra) # 208 <update_test>
     4a8:	00100093          	li	ra,1
     4ac:	00100113          	li	sp,1
     4b0:	40208f33          	sub	t5,ra,sp
     4b4:	00000e93          	li	t4,0
     4b8:	00300193          	li	gp,3
     4bc:	d5df1ee3          	bne	t5,t4,218 <fail>
     4c0:	00000097          	auipc	ra,0x0
     4c4:	d48080e7          	jalr	-696(ra) # 208 <update_test>
     4c8:	00300093          	li	ra,3
     4cc:	00700113          	li	sp,7
     4d0:	40208f33          	sub	t5,ra,sp
     4d4:	ffc00e93          	li	t4,-4
     4d8:	00400193          	li	gp,4
     4dc:	d3df1ee3          	bne	t5,t4,218 <fail>
     4e0:	00000097          	auipc	ra,0x0
     4e4:	d28080e7          	jalr	-728(ra) # 208 <update_test>
     4e8:	00000093          	li	ra,0
     4ec:	ffff8137          	lui	sp,0xffff8
     4f0:	40208f33          	sub	t5,ra,sp
     4f4:	00008eb7          	lui	t4,0x8
     4f8:	00500193          	li	gp,5
     4fc:	d1df1ee3          	bne	t5,t4,218 <fail>
     500:	00000097          	auipc	ra,0x0
     504:	d08080e7          	jalr	-760(ra) # 208 <update_test>
     508:	800000b7          	lui	ra,0x80000
     50c:	00000113          	li	sp,0
     510:	40208f33          	sub	t5,ra,sp
     514:	80000eb7          	lui	t4,0x80000
     518:	00600193          	li	gp,6
     51c:	cfdf1ee3          	bne	t5,t4,218 <fail>
     520:	00000097          	auipc	ra,0x0
     524:	ce8080e7          	jalr	-792(ra) # 208 <update_test>
     528:	800000b7          	lui	ra,0x80000
     52c:	ffff8137          	lui	sp,0xffff8
     530:	40208f33          	sub	t5,ra,sp
     534:	80008eb7          	lui	t4,0x80008
     538:	00700193          	li	gp,7
     53c:	cddf1ee3          	bne	t5,t4,218 <fail>
     540:	00000097          	auipc	ra,0x0
     544:	cc8080e7          	jalr	-824(ra) # 208 <update_test>
     548:	00000093          	li	ra,0
     54c:	00008137          	lui	sp,0x8
     550:	fff10113          	addi	sp,sp,-1 # 7fff <__global_pointer$+0x38eb>
     554:	40208f33          	sub	t5,ra,sp
     558:	ffff8eb7          	lui	t4,0xffff8
     55c:	001e8e93          	addi	t4,t4,1 # ffff8001 <SSEG+0xeef38001>
     560:	00800193          	li	gp,8
     564:	cbdf1ae3          	bne	t5,t4,218 <fail>
     568:	00000097          	auipc	ra,0x0
     56c:	ca0080e7          	jalr	-864(ra) # 208 <update_test>
     570:	800000b7          	lui	ra,0x80000
     574:	fff08093          	addi	ra,ra,-1 # 7fffffff <SSEG+0x6ef3ffff>
     578:	00000113          	li	sp,0
     57c:	40208f33          	sub	t5,ra,sp
     580:	80000eb7          	lui	t4,0x80000
     584:	fffe8e93          	addi	t4,t4,-1 # 7fffffff <SSEG+0x6ef3ffff>
     588:	00900193          	li	gp,9
     58c:	c9df16e3          	bne	t5,t4,218 <fail>
     590:	00000097          	auipc	ra,0x0
     594:	c78080e7          	jalr	-904(ra) # 208 <update_test>
     598:	800000b7          	lui	ra,0x80000
     59c:	fff08093          	addi	ra,ra,-1 # 7fffffff <SSEG+0x6ef3ffff>
     5a0:	00008137          	lui	sp,0x8
     5a4:	fff10113          	addi	sp,sp,-1 # 7fff <__global_pointer$+0x38eb>
     5a8:	40208f33          	sub	t5,ra,sp
     5ac:	7fff8eb7          	lui	t4,0x7fff8
     5b0:	00a00193          	li	gp,10
     5b4:	c7df12e3          	bne	t5,t4,218 <fail>
     5b8:	00000097          	auipc	ra,0x0
     5bc:	c50080e7          	jalr	-944(ra) # 208 <update_test>
     5c0:	800000b7          	lui	ra,0x80000
     5c4:	00008137          	lui	sp,0x8
     5c8:	fff10113          	addi	sp,sp,-1 # 7fff <__global_pointer$+0x38eb>
     5cc:	40208f33          	sub	t5,ra,sp
     5d0:	7fff8eb7          	lui	t4,0x7fff8
     5d4:	001e8e93          	addi	t4,t4,1 # 7fff8001 <SSEG+0x6ef38001>
     5d8:	00b00193          	li	gp,11
     5dc:	c3df1ee3          	bne	t5,t4,218 <fail>
     5e0:	00000097          	auipc	ra,0x0
     5e4:	c28080e7          	jalr	-984(ra) # 208 <update_test>
     5e8:	800000b7          	lui	ra,0x80000
     5ec:	fff08093          	addi	ra,ra,-1 # 7fffffff <SSEG+0x6ef3ffff>
     5f0:	ffff8137          	lui	sp,0xffff8
     5f4:	40208f33          	sub	t5,ra,sp
     5f8:	80008eb7          	lui	t4,0x80008
     5fc:	fffe8e93          	addi	t4,t4,-1 # 80007fff <SSEG+0x6ef47fff>
     600:	00c00193          	li	gp,12
     604:	c1df1ae3          	bne	t5,t4,218 <fail>
     608:	00000097          	auipc	ra,0x0
     60c:	c00080e7          	jalr	-1024(ra) # 208 <update_test>
     610:	00000093          	li	ra,0
     614:	fff00113          	li	sp,-1
     618:	40208f33          	sub	t5,ra,sp
     61c:	00100e93          	li	t4,1
     620:	00d00193          	li	gp,13
     624:	bfdf1ae3          	bne	t5,t4,218 <fail>
     628:	00000097          	auipc	ra,0x0
     62c:	be0080e7          	jalr	-1056(ra) # 208 <update_test>
     630:	fff00093          	li	ra,-1
     634:	00100113          	li	sp,1
     638:	40208f33          	sub	t5,ra,sp
     63c:	ffe00e93          	li	t4,-2
     640:	00e00193          	li	gp,14
     644:	bddf1ae3          	bne	t5,t4,218 <fail>
     648:	00000097          	auipc	ra,0x0
     64c:	bc0080e7          	jalr	-1088(ra) # 208 <update_test>
     650:	fff00093          	li	ra,-1
     654:	fff00113          	li	sp,-1
     658:	40208f33          	sub	t5,ra,sp
     65c:	00000e93          	li	t4,0
     660:	00f00193          	li	gp,15
     664:	bbdf1ae3          	bne	t5,t4,218 <fail>
     668:	00000097          	auipc	ra,0x0
     66c:	ba0080e7          	jalr	-1120(ra) # 208 <update_test>
     670:	00d00093          	li	ra,13
     674:	00b00113          	li	sp,11
     678:	402080b3          	sub	ra,ra,sp
     67c:	00200e93          	li	t4,2
     680:	01000193          	li	gp,16
     684:	b9d09ae3          	bne	ra,t4,218 <fail>
     688:	00000097          	auipc	ra,0x0
     68c:	b80080e7          	jalr	-1152(ra) # 208 <update_test>
     690:	00e00093          	li	ra,14
     694:	00b00113          	li	sp,11
     698:	40208133          	sub	sp,ra,sp
     69c:	00300e93          	li	t4,3
     6a0:	01100193          	li	gp,17
     6a4:	b7d11ae3          	bne	sp,t4,218 <fail>
     6a8:	00000097          	auipc	ra,0x0
     6ac:	b60080e7          	jalr	-1184(ra) # 208 <update_test>
     6b0:	000f8067          	jr	t6

000006b4 <and_test>:
     6b4:	00000513          	li	a0,0
     6b8:	00a62023          	sw	a0,0(a2)
     6bc:	ff0100b7          	lui	ra,0xff010
     6c0:	f0008093          	addi	ra,ra,-256 # ff00ff00 <SSEG+0xedf4ff00>
     6c4:	0f0f1137          	lui	sp,0xf0f1
     6c8:	f0f10113          	addi	sp,sp,-241 # f0f0f0f <__sp+0xf0e0f0f>
     6cc:	0020ff33          	and	t5,ra,sp
     6d0:	0f001eb7          	lui	t4,0xf001
     6d4:	f00e8e93          	addi	t4,t4,-256 # f000f00 <__sp+0xeff0f00>
     6d8:	00200193          	li	gp,2
     6dc:	b3df1ee3          	bne	t5,t4,218 <fail>
     6e0:	00000097          	auipc	ra,0x0
     6e4:	b28080e7          	jalr	-1240(ra) # 208 <update_test>
     6e8:	0ff010b7          	lui	ra,0xff01
     6ec:	ff008093          	addi	ra,ra,-16 # ff00ff0 <__sp+0xfef0ff0>
     6f0:	f0f0f137          	lui	sp,0xf0f0f
     6f4:	0f010113          	addi	sp,sp,240 # f0f0f0f0 <SSEG+0xdfe4f0f0>
     6f8:	0020ff33          	and	t5,ra,sp
     6fc:	00f00eb7          	lui	t4,0xf00
     700:	0f0e8e93          	addi	t4,t4,240 # f000f0 <__sp+0xef00f0>
     704:	00300193          	li	gp,3
     708:	b1df18e3          	bne	t5,t4,218 <fail>
     70c:	00000097          	auipc	ra,0x0
     710:	afc080e7          	jalr	-1284(ra) # 208 <update_test>
     714:	00ff00b7          	lui	ra,0xff0
     718:	0ff08093          	addi	ra,ra,255 # ff00ff <__sp+0xfe00ff>
     71c:	0f0f1137          	lui	sp,0xf0f1
     720:	f0f10113          	addi	sp,sp,-241 # f0f0f0f <__sp+0xf0e0f0f>
     724:	0020ff33          	and	t5,ra,sp
     728:	000f0eb7          	lui	t4,0xf0
     72c:	00fe8e93          	addi	t4,t4,15 # f000f <__sp+0xe000f>
     730:	00400193          	li	gp,4
     734:	afdf12e3          	bne	t5,t4,218 <fail>
     738:	00000097          	auipc	ra,0x0
     73c:	ad0080e7          	jalr	-1328(ra) # 208 <update_test>
     740:	f00ff0b7          	lui	ra,0xf00ff
     744:	00f08093          	addi	ra,ra,15 # f00ff00f <SSEG+0xdf03f00f>
     748:	f0f0f137          	lui	sp,0xf0f0f
     74c:	0f010113          	addi	sp,sp,240 # f0f0f0f0 <SSEG+0xdfe4f0f0>
     750:	0020ff33          	and	t5,ra,sp
     754:	f000feb7          	lui	t4,0xf000f
     758:	00500193          	li	gp,5
     75c:	abdf1ee3          	bne	t5,t4,218 <fail>
     760:	00000097          	auipc	ra,0x0
     764:	aa8080e7          	jalr	-1368(ra) # 208 <update_test>
     768:	ff0100b7          	lui	ra,0xff010
     76c:	f0008093          	addi	ra,ra,-256 # ff00ff00 <SSEG+0xedf4ff00>
     770:	0f0f1137          	lui	sp,0xf0f1
     774:	f0f10113          	addi	sp,sp,-241 # f0f0f0f <__sp+0xf0e0f0f>
     778:	0020f0b3          	and	ra,ra,sp
     77c:	0f001eb7          	lui	t4,0xf001
     780:	f00e8e93          	addi	t4,t4,-256 # f000f00 <__sp+0xeff0f00>
     784:	00600193          	li	gp,6
     788:	a9d098e3          	bne	ra,t4,218 <fail>
     78c:	00000097          	auipc	ra,0x0
     790:	a7c080e7          	jalr	-1412(ra) # 208 <update_test>
     794:	0ff010b7          	lui	ra,0xff01
     798:	ff008093          	addi	ra,ra,-16 # ff00ff0 <__sp+0xfef0ff0>
     79c:	f0f0f137          	lui	sp,0xf0f0f
     7a0:	0f010113          	addi	sp,sp,240 # f0f0f0f0 <SSEG+0xdfe4f0f0>
     7a4:	0020f133          	and	sp,ra,sp
     7a8:	00f00eb7          	lui	t4,0xf00
     7ac:	0f0e8e93          	addi	t4,t4,240 # f000f0 <__sp+0xef00f0>
     7b0:	00700193          	li	gp,7
     7b4:	a7d112e3          	bne	sp,t4,218 <fail>
     7b8:	00000097          	auipc	ra,0x0
     7bc:	a50080e7          	jalr	-1456(ra) # 208 <update_test>
     7c0:	ff0100b7          	lui	ra,0xff010
     7c4:	f0008093          	addi	ra,ra,-256 # ff00ff00 <SSEG+0xedf4ff00>
     7c8:	0010f0b3          	and	ra,ra,ra
     7cc:	ff010eb7          	lui	t4,0xff010
     7d0:	f00e8e93          	addi	t4,t4,-256 # ff00ff00 <SSEG+0xedf4ff00>
     7d4:	00800193          	li	gp,8
     7d8:	a5d090e3          	bne	ra,t4,218 <fail>
     7dc:	00000097          	auipc	ra,0x0
     7e0:	a2c080e7          	jalr	-1492(ra) # 208 <update_test>
     7e4:	000f8067          	jr	t6

000007e8 <or_test>:
     7e8:	00000513          	li	a0,0
     7ec:	00a62023          	sw	a0,0(a2)
     7f0:	ff0100b7          	lui	ra,0xff010
     7f4:	f0008093          	addi	ra,ra,-256 # ff00ff00 <SSEG+0xedf4ff00>
     7f8:	0f0f1137          	lui	sp,0xf0f1
     7fc:	f0f10113          	addi	sp,sp,-241 # f0f0f0f <__sp+0xf0e0f0f>
     800:	0020ef33          	or	t5,ra,sp
     804:	ff100eb7          	lui	t4,0xff100
     808:	f0fe8e93          	addi	t4,t4,-241 # ff0fff0f <SSEG+0xee03ff0f>
     80c:	00200193          	li	gp,2
     810:	a1df14e3          	bne	t5,t4,218 <fail>
     814:	00000097          	auipc	ra,0x0
     818:	9f4080e7          	jalr	-1548(ra) # 208 <update_test>
     81c:	0ff010b7          	lui	ra,0xff01
     820:	ff008093          	addi	ra,ra,-16 # ff00ff0 <__sp+0xfef0ff0>
     824:	f0f0f137          	lui	sp,0xf0f0f
     828:	0f010113          	addi	sp,sp,240 # f0f0f0f0 <SSEG+0xdfe4f0f0>
     82c:	0020ef33          	or	t5,ra,sp
     830:	fff10eb7          	lui	t4,0xfff10
     834:	ff0e8e93          	addi	t4,t4,-16 # fff0fff0 <SSEG+0xeee4fff0>
     838:	00300193          	li	gp,3
     83c:	9ddf1ee3          	bne	t5,t4,218 <fail>
     840:	00000097          	auipc	ra,0x0
     844:	9c8080e7          	jalr	-1592(ra) # 208 <update_test>
     848:	00ff00b7          	lui	ra,0xff0
     84c:	0ff08093          	addi	ra,ra,255 # ff00ff <__sp+0xfe00ff>
     850:	0f0f1137          	lui	sp,0xf0f1
     854:	f0f10113          	addi	sp,sp,-241 # f0f0f0f <__sp+0xf0e0f0f>
     858:	0020ef33          	or	t5,ra,sp
     85c:	0fff1eb7          	lui	t4,0xfff1
     860:	fffe8e93          	addi	t4,t4,-1 # fff0fff <__sp+0xffe0fff>
     864:	00400193          	li	gp,4
     868:	9bdf18e3          	bne	t5,t4,218 <fail>
     86c:	00000097          	auipc	ra,0x0
     870:	99c080e7          	jalr	-1636(ra) # 208 <update_test>
     874:	f00ff0b7          	lui	ra,0xf00ff
     878:	00f08093          	addi	ra,ra,15 # f00ff00f <SSEG+0xdf03f00f>
     87c:	f0f0f137          	lui	sp,0xf0f0f
     880:	0f010113          	addi	sp,sp,240 # f0f0f0f0 <SSEG+0xdfe4f0f0>
     884:	0020ef33          	or	t5,ra,sp
     888:	f0fffeb7          	lui	t4,0xf0fff
     88c:	0ffe8e93          	addi	t4,t4,255 # f0fff0ff <SSEG+0xdff3f0ff>
     890:	00500193          	li	gp,5
     894:	99df12e3          	bne	t5,t4,218 <fail>
     898:	00000097          	auipc	ra,0x0
     89c:	970080e7          	jalr	-1680(ra) # 208 <update_test>
     8a0:	ff0100b7          	lui	ra,0xff010
     8a4:	f0008093          	addi	ra,ra,-256 # ff00ff00 <SSEG+0xedf4ff00>
     8a8:	0f0f1137          	lui	sp,0xf0f1
     8ac:	f0f10113          	addi	sp,sp,-241 # f0f0f0f <__sp+0xf0e0f0f>
     8b0:	0020e0b3          	or	ra,ra,sp
     8b4:	ff100eb7          	lui	t4,0xff100
     8b8:	f0fe8e93          	addi	t4,t4,-241 # ff0fff0f <SSEG+0xee03ff0f>
     8bc:	00600193          	li	gp,6
     8c0:	95d09ce3          	bne	ra,t4,218 <fail>
     8c4:	00000097          	auipc	ra,0x0
     8c8:	944080e7          	jalr	-1724(ra) # 208 <update_test>
     8cc:	ff0100b7          	lui	ra,0xff010
     8d0:	f0008093          	addi	ra,ra,-256 # ff00ff00 <SSEG+0xedf4ff00>
     8d4:	0f0f1137          	lui	sp,0xf0f1
     8d8:	f0f10113          	addi	sp,sp,-241 # f0f0f0f <__sp+0xf0e0f0f>
     8dc:	0020e133          	or	sp,ra,sp
     8e0:	ff100eb7          	lui	t4,0xff100
     8e4:	f0fe8e93          	addi	t4,t4,-241 # ff0fff0f <SSEG+0xee03ff0f>
     8e8:	00700193          	li	gp,7
     8ec:	93d116e3          	bne	sp,t4,218 <fail>
     8f0:	00000097          	auipc	ra,0x0
     8f4:	918080e7          	jalr	-1768(ra) # 208 <update_test>
     8f8:	ff0100b7          	lui	ra,0xff010
     8fc:	f0008093          	addi	ra,ra,-256 # ff00ff00 <SSEG+0xedf4ff00>
     900:	0010e0b3          	or	ra,ra,ra
     904:	ff010eb7          	lui	t4,0xff010
     908:	f00e8e93          	addi	t4,t4,-256 # ff00ff00 <SSEG+0xedf4ff00>
     90c:	00800193          	li	gp,8
     910:	91d094e3          	bne	ra,t4,218 <fail>
     914:	00000097          	auipc	ra,0x0
     918:	8f4080e7          	jalr	-1804(ra) # 208 <update_test>
     91c:	000f8067          	jr	t6

00000920 <xor_test>:
     920:	00000513          	li	a0,0
     924:	00a62023          	sw	a0,0(a2)
     928:	ff0100b7          	lui	ra,0xff010
     92c:	f0008093          	addi	ra,ra,-256 # ff00ff00 <SSEG+0xedf4ff00>
     930:	0f0f1137          	lui	sp,0xf0f1
     934:	f0f10113          	addi	sp,sp,-241 # f0f0f0f <__sp+0xf0e0f0f>
     938:	0020cf33          	xor	t5,ra,sp
     93c:	f00ffeb7          	lui	t4,0xf00ff
     940:	00fe8e93          	addi	t4,t4,15 # f00ff00f <SSEG+0xdf03f00f>
     944:	00200193          	li	gp,2
     948:	8ddf18e3          	bne	t5,t4,218 <fail>
     94c:	00000097          	auipc	ra,0x0
     950:	8bc080e7          	jalr	-1860(ra) # 208 <update_test>
     954:	0ff010b7          	lui	ra,0xff01
     958:	ff008093          	addi	ra,ra,-16 # ff00ff0 <__sp+0xfef0ff0>
     95c:	f0f0f137          	lui	sp,0xf0f0f
     960:	0f010113          	addi	sp,sp,240 # f0f0f0f0 <SSEG+0xdfe4f0f0>
     964:	0020cf33          	xor	t5,ra,sp
     968:	ff010eb7          	lui	t4,0xff010
     96c:	f00e8e93          	addi	t4,t4,-256 # ff00ff00 <SSEG+0xedf4ff00>
     970:	00300193          	li	gp,3
     974:	8bdf12e3          	bne	t5,t4,218 <fail>
     978:	00000097          	auipc	ra,0x0
     97c:	890080e7          	jalr	-1904(ra) # 208 <update_test>
     980:	00ff00b7          	lui	ra,0xff0
     984:	0ff08093          	addi	ra,ra,255 # ff00ff <__sp+0xfe00ff>
     988:	0f0f1137          	lui	sp,0xf0f1
     98c:	f0f10113          	addi	sp,sp,-241 # f0f0f0f <__sp+0xf0e0f0f>
     990:	0020cf33          	xor	t5,ra,sp
     994:	0ff01eb7          	lui	t4,0xff01
     998:	ff0e8e93          	addi	t4,t4,-16 # ff00ff0 <__sp+0xfef0ff0>
     99c:	00400193          	li	gp,4
     9a0:	87df1ce3          	bne	t5,t4,218 <fail>
     9a4:	00000097          	auipc	ra,0x0
     9a8:	864080e7          	jalr	-1948(ra) # 208 <update_test>
     9ac:	f00ff0b7          	lui	ra,0xf00ff
     9b0:	00f08093          	addi	ra,ra,15 # f00ff00f <SSEG+0xdf03f00f>
     9b4:	f0f0f137          	lui	sp,0xf0f0f
     9b8:	0f010113          	addi	sp,sp,240 # f0f0f0f0 <SSEG+0xdfe4f0f0>
     9bc:	0020cf33          	xor	t5,ra,sp
     9c0:	00ff0eb7          	lui	t4,0xff0
     9c4:	0ffe8e93          	addi	t4,t4,255 # ff00ff <__sp+0xfe00ff>
     9c8:	00500193          	li	gp,5
     9cc:	85df16e3          	bne	t5,t4,218 <fail>
     9d0:	00000097          	auipc	ra,0x0
     9d4:	838080e7          	jalr	-1992(ra) # 208 <update_test>
     9d8:	ff0100b7          	lui	ra,0xff010
     9dc:	f0008093          	addi	ra,ra,-256 # ff00ff00 <SSEG+0xedf4ff00>
     9e0:	0f0f1137          	lui	sp,0xf0f1
     9e4:	f0f10113          	addi	sp,sp,-241 # f0f0f0f <__sp+0xf0e0f0f>
     9e8:	0020c0b3          	xor	ra,ra,sp
     9ec:	f00ffeb7          	lui	t4,0xf00ff
     9f0:	00fe8e93          	addi	t4,t4,15 # f00ff00f <SSEG+0xdf03f00f>
     9f4:	00600193          	li	gp,6
     9f8:	83d090e3          	bne	ra,t4,218 <fail>
     9fc:	00000097          	auipc	ra,0x0
     a00:	80c080e7          	jalr	-2036(ra) # 208 <update_test>
     a04:	ff0100b7          	lui	ra,0xff010
     a08:	f0008093          	addi	ra,ra,-256 # ff00ff00 <SSEG+0xedf4ff00>
     a0c:	0f0f1137          	lui	sp,0xf0f1
     a10:	f0f10113          	addi	sp,sp,-241 # f0f0f0f <__sp+0xf0e0f0f>
     a14:	0020c133          	xor	sp,ra,sp
     a18:	f00ffeb7          	lui	t4,0xf00ff
     a1c:	00fe8e93          	addi	t4,t4,15 # f00ff00f <SSEG+0xdf03f00f>
     a20:	00700193          	li	gp,7
     a24:	ffd11a63          	bne	sp,t4,218 <fail>
     a28:	fffff097          	auipc	ra,0xfffff
     a2c:	7e0080e7          	jalr	2016(ra) # 208 <update_test>
     a30:	ff0100b7          	lui	ra,0xff010
     a34:	f0008093          	addi	ra,ra,-256 # ff00ff00 <SSEG+0xedf4ff00>
     a38:	0010c0b3          	xor	ra,ra,ra
     a3c:	00000e93          	li	t4,0
     a40:	00800193          	li	gp,8
     a44:	fdd09a63          	bne	ra,t4,218 <fail>
     a48:	fffff097          	auipc	ra,0xfffff
     a4c:	7c0080e7          	jalr	1984(ra) # 208 <update_test>
     a50:	000f8067          	jr	t6

00000a54 <sll_test>:
     a54:	00000513          	li	a0,0
     a58:	00a62023          	sw	a0,0(a2)
     a5c:	00100093          	li	ra,1
     a60:	00000113          	li	sp,0
     a64:	00209f33          	sll	t5,ra,sp
     a68:	00100e93          	li	t4,1
     a6c:	00200193          	li	gp,2
     a70:	fbdf1463          	bne	t5,t4,218 <fail>
     a74:	fffff097          	auipc	ra,0xfffff
     a78:	794080e7          	jalr	1940(ra) # 208 <update_test>
     a7c:	00100093          	li	ra,1
     a80:	00100113          	li	sp,1
     a84:	00209f33          	sll	t5,ra,sp
     a88:	00200e93          	li	t4,2
     a8c:	00300193          	li	gp,3
     a90:	f9df1463          	bne	t5,t4,218 <fail>
     a94:	fffff097          	auipc	ra,0xfffff
     a98:	774080e7          	jalr	1908(ra) # 208 <update_test>
     a9c:	00100093          	li	ra,1
     aa0:	00700113          	li	sp,7
     aa4:	00209f33          	sll	t5,ra,sp
     aa8:	08000e93          	li	t4,128
     aac:	00400193          	li	gp,4
     ab0:	f7df1463          	bne	t5,t4,218 <fail>
     ab4:	fffff097          	auipc	ra,0xfffff
     ab8:	754080e7          	jalr	1876(ra) # 208 <update_test>
     abc:	00100093          	li	ra,1
     ac0:	00e00113          	li	sp,14
     ac4:	00209f33          	sll	t5,ra,sp
     ac8:	00004eb7          	lui	t4,0x4
     acc:	00500193          	li	gp,5
     ad0:	f5df1463          	bne	t5,t4,218 <fail>
     ad4:	fffff097          	auipc	ra,0xfffff
     ad8:	734080e7          	jalr	1844(ra) # 208 <update_test>
     adc:	00100093          	li	ra,1
     ae0:	01f00113          	li	sp,31
     ae4:	00209f33          	sll	t5,ra,sp
     ae8:	80000eb7          	lui	t4,0x80000
     aec:	00600193          	li	gp,6
     af0:	f3df1463          	bne	t5,t4,218 <fail>
     af4:	fffff097          	auipc	ra,0xfffff
     af8:	714080e7          	jalr	1812(ra) # 208 <update_test>
     afc:	fff00093          	li	ra,-1
     b00:	00000113          	li	sp,0
     b04:	00209f33          	sll	t5,ra,sp
     b08:	fff00e93          	li	t4,-1
     b0c:	00700193          	li	gp,7
     b10:	f1df1463          	bne	t5,t4,218 <fail>
     b14:	fffff097          	auipc	ra,0xfffff
     b18:	6f4080e7          	jalr	1780(ra) # 208 <update_test>
     b1c:	fff00093          	li	ra,-1
     b20:	00100113          	li	sp,1
     b24:	00209f33          	sll	t5,ra,sp
     b28:	ffe00e93          	li	t4,-2
     b2c:	00800193          	li	gp,8
     b30:	efdf1463          	bne	t5,t4,218 <fail>
     b34:	fffff097          	auipc	ra,0xfffff
     b38:	6d4080e7          	jalr	1748(ra) # 208 <update_test>
     b3c:	fff00093          	li	ra,-1
     b40:	00700113          	li	sp,7
     b44:	00209f33          	sll	t5,ra,sp
     b48:	f8000e93          	li	t4,-128
     b4c:	00900193          	li	gp,9
     b50:	eddf1463          	bne	t5,t4,218 <fail>
     b54:	fffff097          	auipc	ra,0xfffff
     b58:	6b4080e7          	jalr	1716(ra) # 208 <update_test>
     b5c:	fff00093          	li	ra,-1
     b60:	00e00113          	li	sp,14
     b64:	00209f33          	sll	t5,ra,sp
     b68:	ffffceb7          	lui	t4,0xffffc
     b6c:	00a00193          	li	gp,10
     b70:	ebdf1463          	bne	t5,t4,218 <fail>
     b74:	fffff097          	auipc	ra,0xfffff
     b78:	694080e7          	jalr	1684(ra) # 208 <update_test>
     b7c:	fff00093          	li	ra,-1
     b80:	01f00113          	li	sp,31
     b84:	00209f33          	sll	t5,ra,sp
     b88:	80000eb7          	lui	t4,0x80000
     b8c:	00b00193          	li	gp,11
     b90:	e9df1463          	bne	t5,t4,218 <fail>
     b94:	fffff097          	auipc	ra,0xfffff
     b98:	674080e7          	jalr	1652(ra) # 208 <update_test>
     b9c:	212120b7          	lui	ra,0x21212
     ba0:	12108093          	addi	ra,ra,289 # 21212121 <SSEG+0x10152121>
     ba4:	00000113          	li	sp,0
     ba8:	00209f33          	sll	t5,ra,sp
     bac:	21212eb7          	lui	t4,0x21212
     bb0:	121e8e93          	addi	t4,t4,289 # 21212121 <SSEG+0x10152121>
     bb4:	00c00193          	li	gp,12
     bb8:	e7df1063          	bne	t5,t4,218 <fail>
     bbc:	fffff097          	auipc	ra,0xfffff
     bc0:	64c080e7          	jalr	1612(ra) # 208 <update_test>
     bc4:	212120b7          	lui	ra,0x21212
     bc8:	12108093          	addi	ra,ra,289 # 21212121 <SSEG+0x10152121>
     bcc:	00100113          	li	sp,1
     bd0:	00209f33          	sll	t5,ra,sp
     bd4:	42424eb7          	lui	t4,0x42424
     bd8:	242e8e93          	addi	t4,t4,578 # 42424242 <SSEG+0x31364242>
     bdc:	00d00193          	li	gp,13
     be0:	e3df1c63          	bne	t5,t4,218 <fail>
     be4:	fffff097          	auipc	ra,0xfffff
     be8:	624080e7          	jalr	1572(ra) # 208 <update_test>
     bec:	212120b7          	lui	ra,0x21212
     bf0:	12108093          	addi	ra,ra,289 # 21212121 <SSEG+0x10152121>
     bf4:	00700113          	li	sp,7
     bf8:	00209f33          	sll	t5,ra,sp
     bfc:	90909eb7          	lui	t4,0x90909
     c00:	080e8e93          	addi	t4,t4,128 # 90909080 <SSEG+0x7f849080>
     c04:	00e00193          	li	gp,14
     c08:	e1df1863          	bne	t5,t4,218 <fail>
     c0c:	fffff097          	auipc	ra,0xfffff
     c10:	5fc080e7          	jalr	1532(ra) # 208 <update_test>
     c14:	212120b7          	lui	ra,0x21212
     c18:	12108093          	addi	ra,ra,289 # 21212121 <SSEG+0x10152121>
     c1c:	00e00113          	li	sp,14
     c20:	00209f33          	sll	t5,ra,sp
     c24:	48484eb7          	lui	t4,0x48484
     c28:	00f00193          	li	gp,15
     c2c:	dfdf1663          	bne	t5,t4,218 <fail>
     c30:	fffff097          	auipc	ra,0xfffff
     c34:	5d8080e7          	jalr	1496(ra) # 208 <update_test>
     c38:	212120b7          	lui	ra,0x21212
     c3c:	12108093          	addi	ra,ra,289 # 21212121 <SSEG+0x10152121>
     c40:	01f00113          	li	sp,31
     c44:	00209f33          	sll	t5,ra,sp
     c48:	80000eb7          	lui	t4,0x80000
     c4c:	01000193          	li	gp,16
     c50:	dddf1463          	bne	t5,t4,218 <fail>
     c54:	fffff097          	auipc	ra,0xfffff
     c58:	5b4080e7          	jalr	1460(ra) # 208 <update_test>
     c5c:	212120b7          	lui	ra,0x21212
     c60:	12108093          	addi	ra,ra,289 # 21212121 <SSEG+0x10152121>
     c64:	fc000113          	li	sp,-64
     c68:	00209f33          	sll	t5,ra,sp
     c6c:	21212eb7          	lui	t4,0x21212
     c70:	121e8e93          	addi	t4,t4,289 # 21212121 <SSEG+0x10152121>
     c74:	01100193          	li	gp,17
     c78:	dbdf1063          	bne	t5,t4,218 <fail>
     c7c:	fffff097          	auipc	ra,0xfffff
     c80:	58c080e7          	jalr	1420(ra) # 208 <update_test>
     c84:	212120b7          	lui	ra,0x21212
     c88:	12108093          	addi	ra,ra,289 # 21212121 <SSEG+0x10152121>
     c8c:	fc100113          	li	sp,-63
     c90:	00209f33          	sll	t5,ra,sp
     c94:	42424eb7          	lui	t4,0x42424
     c98:	242e8e93          	addi	t4,t4,578 # 42424242 <SSEG+0x31364242>
     c9c:	01200193          	li	gp,18
     ca0:	d7df1c63          	bne	t5,t4,218 <fail>
     ca4:	fffff097          	auipc	ra,0xfffff
     ca8:	564080e7          	jalr	1380(ra) # 208 <update_test>
     cac:	212120b7          	lui	ra,0x21212
     cb0:	12108093          	addi	ra,ra,289 # 21212121 <SSEG+0x10152121>
     cb4:	fc700113          	li	sp,-57
     cb8:	00209f33          	sll	t5,ra,sp
     cbc:	90909eb7          	lui	t4,0x90909
     cc0:	080e8e93          	addi	t4,t4,128 # 90909080 <SSEG+0x7f849080>
     cc4:	01300193          	li	gp,19
     cc8:	d5df1863          	bne	t5,t4,218 <fail>
     ccc:	fffff097          	auipc	ra,0xfffff
     cd0:	53c080e7          	jalr	1340(ra) # 208 <update_test>
     cd4:	212120b7          	lui	ra,0x21212
     cd8:	12108093          	addi	ra,ra,289 # 21212121 <SSEG+0x10152121>
     cdc:	fce00113          	li	sp,-50
     ce0:	00209f33          	sll	t5,ra,sp
     ce4:	48484eb7          	lui	t4,0x48484
     ce8:	01400193          	li	gp,20
     cec:	d3df1663          	bne	t5,t4,218 <fail>
     cf0:	fffff097          	auipc	ra,0xfffff
     cf4:	518080e7          	jalr	1304(ra) # 208 <update_test>
     cf8:	000f8067          	jr	t6

00000cfc <srl_test>:
     cfc:	00000513          	li	a0,0
     d00:	00a62023          	sw	a0,0(a2)
     d04:	800000b7          	lui	ra,0x80000
     d08:	00000113          	li	sp,0
     d0c:	0020df33          	srl	t5,ra,sp
     d10:	80000eb7          	lui	t4,0x80000
     d14:	00200193          	li	gp,2
     d18:	d1df1063          	bne	t5,t4,218 <fail>
     d1c:	fffff097          	auipc	ra,0xfffff
     d20:	4ec080e7          	jalr	1260(ra) # 208 <update_test>
     d24:	800000b7          	lui	ra,0x80000
     d28:	00100113          	li	sp,1
     d2c:	0020df33          	srl	t5,ra,sp
     d30:	40000eb7          	lui	t4,0x40000
     d34:	00300193          	li	gp,3
     d38:	cfdf1063          	bne	t5,t4,218 <fail>
     d3c:	fffff097          	auipc	ra,0xfffff
     d40:	4cc080e7          	jalr	1228(ra) # 208 <update_test>
     d44:	800000b7          	lui	ra,0x80000
     d48:	00700113          	li	sp,7
     d4c:	0020df33          	srl	t5,ra,sp
     d50:	01000eb7          	lui	t4,0x1000
     d54:	00400193          	li	gp,4
     d58:	cddf1063          	bne	t5,t4,218 <fail>
     d5c:	fffff097          	auipc	ra,0xfffff
     d60:	4ac080e7          	jalr	1196(ra) # 208 <update_test>
     d64:	800000b7          	lui	ra,0x80000
     d68:	00e00113          	li	sp,14
     d6c:	0020df33          	srl	t5,ra,sp
     d70:	00020eb7          	lui	t4,0x20
     d74:	00500193          	li	gp,5
     d78:	cbdf1063          	bne	t5,t4,218 <fail>
     d7c:	fffff097          	auipc	ra,0xfffff
     d80:	48c080e7          	jalr	1164(ra) # 208 <update_test>
     d84:	800000b7          	lui	ra,0x80000
     d88:	00108093          	addi	ra,ra,1 # 80000001 <SSEG+0x6ef40001>
     d8c:	01f00113          	li	sp,31
     d90:	0020df33          	srl	t5,ra,sp
     d94:	00100e93          	li	t4,1
     d98:	00600193          	li	gp,6
     d9c:	c7df1e63          	bne	t5,t4,218 <fail>
     da0:	fffff097          	auipc	ra,0xfffff
     da4:	468080e7          	jalr	1128(ra) # 208 <update_test>
     da8:	fff00093          	li	ra,-1
     dac:	00000113          	li	sp,0
     db0:	0020df33          	srl	t5,ra,sp
     db4:	fff00e93          	li	t4,-1
     db8:	00700193          	li	gp,7
     dbc:	c5df1e63          	bne	t5,t4,218 <fail>
     dc0:	fffff097          	auipc	ra,0xfffff
     dc4:	448080e7          	jalr	1096(ra) # 208 <update_test>
     dc8:	fff00093          	li	ra,-1
     dcc:	00100113          	li	sp,1
     dd0:	0020df33          	srl	t5,ra,sp
     dd4:	80000eb7          	lui	t4,0x80000
     dd8:	fffe8e93          	addi	t4,t4,-1 # 7fffffff <SSEG+0x6ef3ffff>
     ddc:	00800193          	li	gp,8
     de0:	c3df1c63          	bne	t5,t4,218 <fail>
     de4:	fffff097          	auipc	ra,0xfffff
     de8:	424080e7          	jalr	1060(ra) # 208 <update_test>
     dec:	fff00093          	li	ra,-1
     df0:	00700113          	li	sp,7
     df4:	0020df33          	srl	t5,ra,sp
     df8:	02000eb7          	lui	t4,0x2000
     dfc:	fffe8e93          	addi	t4,t4,-1 # 1ffffff <__sp+0x1feffff>
     e00:	00900193          	li	gp,9
     e04:	c1df1a63          	bne	t5,t4,218 <fail>
     e08:	fffff097          	auipc	ra,0xfffff
     e0c:	400080e7          	jalr	1024(ra) # 208 <update_test>
     e10:	fff00093          	li	ra,-1
     e14:	00e00113          	li	sp,14
     e18:	0020df33          	srl	t5,ra,sp
     e1c:	00040eb7          	lui	t4,0x40
     e20:	fffe8e93          	addi	t4,t4,-1 # 3ffff <__sp+0x2ffff>
     e24:	00a00193          	li	gp,10
     e28:	bfdf1863          	bne	t5,t4,218 <fail>
     e2c:	fffff097          	auipc	ra,0xfffff
     e30:	3dc080e7          	jalr	988(ra) # 208 <update_test>
     e34:	fff00093          	li	ra,-1
     e38:	01f00113          	li	sp,31
     e3c:	0020df33          	srl	t5,ra,sp
     e40:	00100e93          	li	t4,1
     e44:	00b00193          	li	gp,11
     e48:	bddf1863          	bne	t5,t4,218 <fail>
     e4c:	fffff097          	auipc	ra,0xfffff
     e50:	3bc080e7          	jalr	956(ra) # 208 <update_test>
     e54:	212120b7          	lui	ra,0x21212
     e58:	12108093          	addi	ra,ra,289 # 21212121 <SSEG+0x10152121>
     e5c:	00000113          	li	sp,0
     e60:	0020df33          	srl	t5,ra,sp
     e64:	21212eb7          	lui	t4,0x21212
     e68:	121e8e93          	addi	t4,t4,289 # 21212121 <SSEG+0x10152121>
     e6c:	00c00193          	li	gp,12
     e70:	bbdf1463          	bne	t5,t4,218 <fail>
     e74:	fffff097          	auipc	ra,0xfffff
     e78:	394080e7          	jalr	916(ra) # 208 <update_test>
     e7c:	212120b7          	lui	ra,0x21212
     e80:	12108093          	addi	ra,ra,289 # 21212121 <SSEG+0x10152121>
     e84:	00100113          	li	sp,1
     e88:	0020df33          	srl	t5,ra,sp
     e8c:	10909eb7          	lui	t4,0x10909
     e90:	090e8e93          	addi	t4,t4,144 # 10909090 <__sp+0x108f9090>
     e94:	00d00193          	li	gp,13
     e98:	b9df1063          	bne	t5,t4,218 <fail>
     e9c:	fffff097          	auipc	ra,0xfffff
     ea0:	36c080e7          	jalr	876(ra) # 208 <update_test>
     ea4:	212120b7          	lui	ra,0x21212
     ea8:	12108093          	addi	ra,ra,289 # 21212121 <SSEG+0x10152121>
     eac:	00700113          	li	sp,7
     eb0:	0020df33          	srl	t5,ra,sp
     eb4:	00424eb7          	lui	t4,0x424
     eb8:	242e8e93          	addi	t4,t4,578 # 424242 <__sp+0x414242>
     ebc:	00e00193          	li	gp,14
     ec0:	b5df1c63          	bne	t5,t4,218 <fail>
     ec4:	fffff097          	auipc	ra,0xfffff
     ec8:	344080e7          	jalr	836(ra) # 208 <update_test>
     ecc:	212120b7          	lui	ra,0x21212
     ed0:	12108093          	addi	ra,ra,289 # 21212121 <SSEG+0x10152121>
     ed4:	00e00113          	li	sp,14
     ed8:	0020df33          	srl	t5,ra,sp
     edc:	00008eb7          	lui	t4,0x8
     ee0:	484e8e93          	addi	t4,t4,1156 # 8484 <__global_pointer$+0x3d70>
     ee4:	00f00193          	li	gp,15
     ee8:	b3df1863          	bne	t5,t4,218 <fail>
     eec:	fffff097          	auipc	ra,0xfffff
     ef0:	31c080e7          	jalr	796(ra) # 208 <update_test>
     ef4:	212120b7          	lui	ra,0x21212
     ef8:	12108093          	addi	ra,ra,289 # 21212121 <SSEG+0x10152121>
     efc:	01f00113          	li	sp,31
     f00:	0020df33          	srl	t5,ra,sp
     f04:	00000e93          	li	t4,0
     f08:	01000193          	li	gp,16
     f0c:	b1df1663          	bne	t5,t4,218 <fail>
     f10:	fffff097          	auipc	ra,0xfffff
     f14:	2f8080e7          	jalr	760(ra) # 208 <update_test>
     f18:	212120b7          	lui	ra,0x21212
     f1c:	12108093          	addi	ra,ra,289 # 21212121 <SSEG+0x10152121>
     f20:	fc000113          	li	sp,-64
     f24:	0020df33          	srl	t5,ra,sp
     f28:	21212eb7          	lui	t4,0x21212
     f2c:	121e8e93          	addi	t4,t4,289 # 21212121 <SSEG+0x10152121>
     f30:	01100193          	li	gp,17
     f34:	afdf1263          	bne	t5,t4,218 <fail>
     f38:	fffff097          	auipc	ra,0xfffff
     f3c:	2d0080e7          	jalr	720(ra) # 208 <update_test>
     f40:	212120b7          	lui	ra,0x21212
     f44:	12108093          	addi	ra,ra,289 # 21212121 <SSEG+0x10152121>
     f48:	fc100113          	li	sp,-63
     f4c:	0020df33          	srl	t5,ra,sp
     f50:	10909eb7          	lui	t4,0x10909
     f54:	090e8e93          	addi	t4,t4,144 # 10909090 <__sp+0x108f9090>
     f58:	01200193          	li	gp,18
     f5c:	abdf1e63          	bne	t5,t4,218 <fail>
     f60:	fffff097          	auipc	ra,0xfffff
     f64:	2a8080e7          	jalr	680(ra) # 208 <update_test>
     f68:	000f8067          	jr	t6

00000f6c <sra_test>:
     f6c:	00000513          	li	a0,0
     f70:	00a62023          	sw	a0,0(a2)
     f74:	800000b7          	lui	ra,0x80000
     f78:	00000113          	li	sp,0
     f7c:	4020df33          	sra	t5,ra,sp
     f80:	80000eb7          	lui	t4,0x80000
     f84:	00200193          	li	gp,2
     f88:	a9df1863          	bne	t5,t4,218 <fail>
     f8c:	fffff097          	auipc	ra,0xfffff
     f90:	27c080e7          	jalr	636(ra) # 208 <update_test>
     f94:	800000b7          	lui	ra,0x80000
     f98:	00100113          	li	sp,1
     f9c:	4020df33          	sra	t5,ra,sp
     fa0:	c0000eb7          	lui	t4,0xc0000
     fa4:	00300193          	li	gp,3
     fa8:	a7df1863          	bne	t5,t4,218 <fail>
     fac:	fffff097          	auipc	ra,0xfffff
     fb0:	25c080e7          	jalr	604(ra) # 208 <update_test>
     fb4:	800000b7          	lui	ra,0x80000
     fb8:	00700113          	li	sp,7
     fbc:	4020df33          	sra	t5,ra,sp
     fc0:	ff000eb7          	lui	t4,0xff000
     fc4:	00400193          	li	gp,4
     fc8:	a5df1863          	bne	t5,t4,218 <fail>
     fcc:	fffff097          	auipc	ra,0xfffff
     fd0:	23c080e7          	jalr	572(ra) # 208 <update_test>
     fd4:	800000b7          	lui	ra,0x80000
     fd8:	00e00113          	li	sp,14
     fdc:	4020df33          	sra	t5,ra,sp
     fe0:	fffe0eb7          	lui	t4,0xfffe0
     fe4:	00500193          	li	gp,5
     fe8:	a3df1863          	bne	t5,t4,218 <fail>
     fec:	fffff097          	auipc	ra,0xfffff
     ff0:	21c080e7          	jalr	540(ra) # 208 <update_test>
     ff4:	800000b7          	lui	ra,0x80000
     ff8:	00108093          	addi	ra,ra,1 # 80000001 <SSEG+0x6ef40001>
     ffc:	01f00113          	li	sp,31
    1000:	4020df33          	sra	t5,ra,sp
    1004:	fff00e93          	li	t4,-1
    1008:	00600193          	li	gp,6
    100c:	a1df1663          	bne	t5,t4,218 <fail>
    1010:	fffff097          	auipc	ra,0xfffff
    1014:	1f8080e7          	jalr	504(ra) # 208 <update_test>
    1018:	800000b7          	lui	ra,0x80000
    101c:	fff08093          	addi	ra,ra,-1 # 7fffffff <SSEG+0x6ef3ffff>
    1020:	00000113          	li	sp,0
    1024:	4020df33          	sra	t5,ra,sp
    1028:	80000eb7          	lui	t4,0x80000
    102c:	fffe8e93          	addi	t4,t4,-1 # 7fffffff <SSEG+0x6ef3ffff>
    1030:	00700193          	li	gp,7
    1034:	9fdf1263          	bne	t5,t4,218 <fail>
    1038:	fffff097          	auipc	ra,0xfffff
    103c:	1d0080e7          	jalr	464(ra) # 208 <update_test>
    1040:	800000b7          	lui	ra,0x80000
    1044:	fff08093          	addi	ra,ra,-1 # 7fffffff <SSEG+0x6ef3ffff>
    1048:	00100113          	li	sp,1
    104c:	4020df33          	sra	t5,ra,sp
    1050:	40000eb7          	lui	t4,0x40000
    1054:	fffe8e93          	addi	t4,t4,-1 # 3fffffff <SSEG+0x2ef3ffff>
    1058:	00800193          	li	gp,8
    105c:	9bdf1e63          	bne	t5,t4,218 <fail>
    1060:	fffff097          	auipc	ra,0xfffff
    1064:	1a8080e7          	jalr	424(ra) # 208 <update_test>
    1068:	800000b7          	lui	ra,0x80000
    106c:	fff08093          	addi	ra,ra,-1 # 7fffffff <SSEG+0x6ef3ffff>
    1070:	00700113          	li	sp,7
    1074:	4020df33          	sra	t5,ra,sp
    1078:	01000eb7          	lui	t4,0x1000
    107c:	fffe8e93          	addi	t4,t4,-1 # ffffff <__sp+0xfeffff>
    1080:	00900193          	li	gp,9
    1084:	99df1a63          	bne	t5,t4,218 <fail>
    1088:	fffff097          	auipc	ra,0xfffff
    108c:	180080e7          	jalr	384(ra) # 208 <update_test>
    1090:	800000b7          	lui	ra,0x80000
    1094:	fff08093          	addi	ra,ra,-1 # 7fffffff <SSEG+0x6ef3ffff>
    1098:	00e00113          	li	sp,14
    109c:	4020df33          	sra	t5,ra,sp
    10a0:	00020eb7          	lui	t4,0x20
    10a4:	fffe8e93          	addi	t4,t4,-1 # 1ffff <__sp+0xffff>
    10a8:	00a00193          	li	gp,10
    10ac:	97df1663          	bne	t5,t4,218 <fail>
    10b0:	fffff097          	auipc	ra,0xfffff
    10b4:	158080e7          	jalr	344(ra) # 208 <update_test>
    10b8:	800000b7          	lui	ra,0x80000
    10bc:	fff08093          	addi	ra,ra,-1 # 7fffffff <SSEG+0x6ef3ffff>
    10c0:	01f00113          	li	sp,31
    10c4:	4020df33          	sra	t5,ra,sp
    10c8:	00000e93          	li	t4,0
    10cc:	00b00193          	li	gp,11
    10d0:	95df1463          	bne	t5,t4,218 <fail>
    10d4:	fffff097          	auipc	ra,0xfffff
    10d8:	134080e7          	jalr	308(ra) # 208 <update_test>
    10dc:	818180b7          	lui	ra,0x81818
    10e0:	18108093          	addi	ra,ra,385 # 81818181 <SSEG+0x70758181>
    10e4:	00000113          	li	sp,0
    10e8:	4020df33          	sra	t5,ra,sp
    10ec:	81818eb7          	lui	t4,0x81818
    10f0:	181e8e93          	addi	t4,t4,385 # 81818181 <SSEG+0x70758181>
    10f4:	00c00193          	li	gp,12
    10f8:	93df1063          	bne	t5,t4,218 <fail>
    10fc:	fffff097          	auipc	ra,0xfffff
    1100:	10c080e7          	jalr	268(ra) # 208 <update_test>
    1104:	818180b7          	lui	ra,0x81818
    1108:	18108093          	addi	ra,ra,385 # 81818181 <SSEG+0x70758181>
    110c:	00100113          	li	sp,1
    1110:	4020df33          	sra	t5,ra,sp
    1114:	c0c0ceb7          	lui	t4,0xc0c0c
    1118:	0c0e8e93          	addi	t4,t4,192 # c0c0c0c0 <SSEG+0xafb4c0c0>
    111c:	00d00193          	li	gp,13
    1120:	8fdf1c63          	bne	t5,t4,218 <fail>
    1124:	fffff097          	auipc	ra,0xfffff
    1128:	0e4080e7          	jalr	228(ra) # 208 <update_test>
    112c:	818180b7          	lui	ra,0x81818
    1130:	18108093          	addi	ra,ra,385 # 81818181 <SSEG+0x70758181>
    1134:	00700113          	li	sp,7
    1138:	4020df33          	sra	t5,ra,sp
    113c:	ff030eb7          	lui	t4,0xff030
    1140:	303e8e93          	addi	t4,t4,771 # ff030303 <SSEG+0xedf70303>
    1144:	00e00193          	li	gp,14
    1148:	8ddf1863          	bne	t5,t4,218 <fail>
    114c:	fffff097          	auipc	ra,0xfffff
    1150:	0bc080e7          	jalr	188(ra) # 208 <update_test>
    1154:	818180b7          	lui	ra,0x81818
    1158:	18108093          	addi	ra,ra,385 # 81818181 <SSEG+0x70758181>
    115c:	00e00113          	li	sp,14
    1160:	4020df33          	sra	t5,ra,sp
    1164:	fffe0eb7          	lui	t4,0xfffe0
    1168:	606e8e93          	addi	t4,t4,1542 # fffe0606 <SSEG+0xeef20606>
    116c:	00f00193          	li	gp,15
    1170:	8bdf1463          	bne	t5,t4,218 <fail>
    1174:	fffff097          	auipc	ra,0xfffff
    1178:	094080e7          	jalr	148(ra) # 208 <update_test>
    117c:	818180b7          	lui	ra,0x81818
    1180:	18108093          	addi	ra,ra,385 # 81818181 <SSEG+0x70758181>
    1184:	01f00113          	li	sp,31
    1188:	4020df33          	sra	t5,ra,sp
    118c:	fff00e93          	li	t4,-1
    1190:	01000193          	li	gp,16
    1194:	89df1263          	bne	t5,t4,218 <fail>
    1198:	fffff097          	auipc	ra,0xfffff
    119c:	070080e7          	jalr	112(ra) # 208 <update_test>
    11a0:	818180b7          	lui	ra,0x81818
    11a4:	18108093          	addi	ra,ra,385 # 81818181 <SSEG+0x70758181>
    11a8:	fc000113          	li	sp,-64
    11ac:	4020df33          	sra	t5,ra,sp
    11b0:	81818eb7          	lui	t4,0x81818
    11b4:	181e8e93          	addi	t4,t4,385 # 81818181 <SSEG+0x70758181>
    11b8:	01100193          	li	gp,17
    11bc:	85df1e63          	bne	t5,t4,218 <fail>
    11c0:	fffff097          	auipc	ra,0xfffff
    11c4:	048080e7          	jalr	72(ra) # 208 <update_test>
    11c8:	818180b7          	lui	ra,0x81818
    11cc:	18108093          	addi	ra,ra,385 # 81818181 <SSEG+0x70758181>
    11d0:	fc100113          	li	sp,-63
    11d4:	4020df33          	sra	t5,ra,sp
    11d8:	c0c0ceb7          	lui	t4,0xc0c0c
    11dc:	0c0e8e93          	addi	t4,t4,192 # c0c0c0c0 <SSEG+0xafb4c0c0>
    11e0:	01200193          	li	gp,18
    11e4:	83df1a63          	bne	t5,t4,218 <fail>
    11e8:	fffff097          	auipc	ra,0xfffff
    11ec:	020080e7          	jalr	32(ra) # 208 <update_test>
    11f0:	818180b7          	lui	ra,0x81818
    11f4:	18108093          	addi	ra,ra,385 # 81818181 <SSEG+0x70758181>
    11f8:	fc700113          	li	sp,-57
    11fc:	4020df33          	sra	t5,ra,sp
    1200:	ff030eb7          	lui	t4,0xff030
    1204:	303e8e93          	addi	t4,t4,771 # ff030303 <SSEG+0xedf70303>
    1208:	01300193          	li	gp,19
    120c:	81df1663          	bne	t5,t4,218 <fail>
    1210:	fffff097          	auipc	ra,0xfffff
    1214:	ff8080e7          	jalr	-8(ra) # 208 <update_test>
    1218:	818180b7          	lui	ra,0x81818
    121c:	18108093          	addi	ra,ra,385 # 81818181 <SSEG+0x70758181>
    1220:	fce00113          	li	sp,-50
    1224:	4020df33          	sra	t5,ra,sp
    1228:	fffe0eb7          	lui	t4,0xfffe0
    122c:	606e8e93          	addi	t4,t4,1542 # fffe0606 <SSEG+0xeef20606>
    1230:	01400193          	li	gp,20
    1234:	01df0463          	beq	t5,t4,123c <sra_test+0x2d0>
    1238:	fe1fe06f          	j	218 <fail>
    123c:	fffff097          	auipc	ra,0xfffff
    1240:	fcc080e7          	jalr	-52(ra) # 208 <update_test>
    1244:	818180b7          	lui	ra,0x81818
    1248:	18108093          	addi	ra,ra,385 # 81818181 <SSEG+0x70758181>
    124c:	fff00113          	li	sp,-1
    1250:	4020df33          	sra	t5,ra,sp
    1254:	fff00e93          	li	t4,-1
    1258:	01500193          	li	gp,21
    125c:	01df0463          	beq	t5,t4,1264 <sra_test+0x2f8>
    1260:	fb9fe06f          	j	218 <fail>
    1264:	fffff097          	auipc	ra,0xfffff
    1268:	fa4080e7          	jalr	-92(ra) # 208 <update_test>
    126c:	000f8067          	jr	t6

00001270 <slt_test>:
    1270:	00000513          	li	a0,0
    1274:	00a62023          	sw	a0,0(a2)
    1278:	00000093          	li	ra,0
    127c:	00000113          	li	sp,0
    1280:	0020af33          	slt	t5,ra,sp
    1284:	00000e93          	li	t4,0
    1288:	00200193          	li	gp,2
    128c:	01df0463          	beq	t5,t4,1294 <slt_test+0x24>
    1290:	f89fe06f          	j	218 <fail>
    1294:	fffff097          	auipc	ra,0xfffff
    1298:	f74080e7          	jalr	-140(ra) # 208 <update_test>
    129c:	00100093          	li	ra,1
    12a0:	00100113          	li	sp,1
    12a4:	0020af33          	slt	t5,ra,sp
    12a8:	00000e93          	li	t4,0
    12ac:	00300193          	li	gp,3
    12b0:	01df0463          	beq	t5,t4,12b8 <slt_test+0x48>
    12b4:	f65fe06f          	j	218 <fail>
    12b8:	fffff097          	auipc	ra,0xfffff
    12bc:	f50080e7          	jalr	-176(ra) # 208 <update_test>
    12c0:	00300093          	li	ra,3
    12c4:	00700113          	li	sp,7
    12c8:	0020af33          	slt	t5,ra,sp
    12cc:	00100e93          	li	t4,1
    12d0:	00400193          	li	gp,4
    12d4:	01df0463          	beq	t5,t4,12dc <slt_test+0x6c>
    12d8:	f41fe06f          	j	218 <fail>
    12dc:	fffff097          	auipc	ra,0xfffff
    12e0:	f2c080e7          	jalr	-212(ra) # 208 <update_test>
    12e4:	00700093          	li	ra,7
    12e8:	00300113          	li	sp,3
    12ec:	0020af33          	slt	t5,ra,sp
    12f0:	00000e93          	li	t4,0
    12f4:	00500193          	li	gp,5
    12f8:	01df0463          	beq	t5,t4,1300 <slt_test+0x90>
    12fc:	f1dfe06f          	j	218 <fail>
    1300:	fffff097          	auipc	ra,0xfffff
    1304:	f08080e7          	jalr	-248(ra) # 208 <update_test>
    1308:	00000093          	li	ra,0
    130c:	ffff8137          	lui	sp,0xffff8
    1310:	0020af33          	slt	t5,ra,sp
    1314:	00000e93          	li	t4,0
    1318:	00600193          	li	gp,6
    131c:	01df0463          	beq	t5,t4,1324 <slt_test+0xb4>
    1320:	ef9fe06f          	j	218 <fail>
    1324:	fffff097          	auipc	ra,0xfffff
    1328:	ee4080e7          	jalr	-284(ra) # 208 <update_test>
    132c:	800000b7          	lui	ra,0x80000
    1330:	00000113          	li	sp,0
    1334:	0020af33          	slt	t5,ra,sp
    1338:	00100e93          	li	t4,1
    133c:	00700193          	li	gp,7
    1340:	01df0463          	beq	t5,t4,1348 <slt_test+0xd8>
    1344:	ed5fe06f          	j	218 <fail>
    1348:	fffff097          	auipc	ra,0xfffff
    134c:	ec0080e7          	jalr	-320(ra) # 208 <update_test>
    1350:	800000b7          	lui	ra,0x80000
    1354:	ffff8137          	lui	sp,0xffff8
    1358:	0020af33          	slt	t5,ra,sp
    135c:	00100e93          	li	t4,1
    1360:	00800193          	li	gp,8
    1364:	01df0463          	beq	t5,t4,136c <slt_test+0xfc>
    1368:	eb1fe06f          	j	218 <fail>
    136c:	fffff097          	auipc	ra,0xfffff
    1370:	e9c080e7          	jalr	-356(ra) # 208 <update_test>
    1374:	00000093          	li	ra,0
    1378:	00008137          	lui	sp,0x8
    137c:	fff10113          	addi	sp,sp,-1 # 7fff <__global_pointer$+0x38eb>
    1380:	0020af33          	slt	t5,ra,sp
    1384:	00100e93          	li	t4,1
    1388:	00900193          	li	gp,9
    138c:	01df0463          	beq	t5,t4,1394 <slt_test+0x124>
    1390:	e89fe06f          	j	218 <fail>
    1394:	fffff097          	auipc	ra,0xfffff
    1398:	e74080e7          	jalr	-396(ra) # 208 <update_test>
    139c:	800000b7          	lui	ra,0x80000
    13a0:	fff08093          	addi	ra,ra,-1 # 7fffffff <SSEG+0x6ef3ffff>
    13a4:	00000113          	li	sp,0
    13a8:	0020af33          	slt	t5,ra,sp
    13ac:	00000e93          	li	t4,0
    13b0:	00a00193          	li	gp,10
    13b4:	01df0463          	beq	t5,t4,13bc <slt_test+0x14c>
    13b8:	e61fe06f          	j	218 <fail>
    13bc:	fffff097          	auipc	ra,0xfffff
    13c0:	e4c080e7          	jalr	-436(ra) # 208 <update_test>
    13c4:	800000b7          	lui	ra,0x80000
    13c8:	fff08093          	addi	ra,ra,-1 # 7fffffff <SSEG+0x6ef3ffff>
    13cc:	00008137          	lui	sp,0x8
    13d0:	fff10113          	addi	sp,sp,-1 # 7fff <__global_pointer$+0x38eb>
    13d4:	0020af33          	slt	t5,ra,sp
    13d8:	00000e93          	li	t4,0
    13dc:	00b00193          	li	gp,11
    13e0:	01df0463          	beq	t5,t4,13e8 <slt_test+0x178>
    13e4:	e35fe06f          	j	218 <fail>
    13e8:	fffff097          	auipc	ra,0xfffff
    13ec:	e20080e7          	jalr	-480(ra) # 208 <update_test>
    13f0:	800000b7          	lui	ra,0x80000
    13f4:	00008137          	lui	sp,0x8
    13f8:	fff10113          	addi	sp,sp,-1 # 7fff <__global_pointer$+0x38eb>
    13fc:	0020af33          	slt	t5,ra,sp
    1400:	00100e93          	li	t4,1
    1404:	00c00193          	li	gp,12
    1408:	01df0463          	beq	t5,t4,1410 <slt_test+0x1a0>
    140c:	e0dfe06f          	j	218 <fail>
    1410:	fffff097          	auipc	ra,0xfffff
    1414:	df8080e7          	jalr	-520(ra) # 208 <update_test>
    1418:	800000b7          	lui	ra,0x80000
    141c:	fff08093          	addi	ra,ra,-1 # 7fffffff <SSEG+0x6ef3ffff>
    1420:	ffff8137          	lui	sp,0xffff8
    1424:	0020af33          	slt	t5,ra,sp
    1428:	00000e93          	li	t4,0
    142c:	00d00193          	li	gp,13
    1430:	01df0463          	beq	t5,t4,1438 <slt_test+0x1c8>
    1434:	de5fe06f          	j	218 <fail>
    1438:	fffff097          	auipc	ra,0xfffff
    143c:	dd0080e7          	jalr	-560(ra) # 208 <update_test>
    1440:	00000093          	li	ra,0
    1444:	fff00113          	li	sp,-1
    1448:	0020af33          	slt	t5,ra,sp
    144c:	00000e93          	li	t4,0
    1450:	00e00193          	li	gp,14
    1454:	01df0463          	beq	t5,t4,145c <slt_test+0x1ec>
    1458:	dc1fe06f          	j	218 <fail>
    145c:	fffff097          	auipc	ra,0xfffff
    1460:	dac080e7          	jalr	-596(ra) # 208 <update_test>
    1464:	fff00093          	li	ra,-1
    1468:	00100113          	li	sp,1
    146c:	0020af33          	slt	t5,ra,sp
    1470:	00100e93          	li	t4,1
    1474:	00f00193          	li	gp,15
    1478:	01df0463          	beq	t5,t4,1480 <slt_test+0x210>
    147c:	d9dfe06f          	j	218 <fail>
    1480:	fffff097          	auipc	ra,0xfffff
    1484:	d88080e7          	jalr	-632(ra) # 208 <update_test>
    1488:	fff00093          	li	ra,-1
    148c:	fff00113          	li	sp,-1
    1490:	0020af33          	slt	t5,ra,sp
    1494:	00000e93          	li	t4,0
    1498:	01000193          	li	gp,16
    149c:	01df0463          	beq	t5,t4,14a4 <slt_test+0x234>
    14a0:	d79fe06f          	j	218 <fail>
    14a4:	fffff097          	auipc	ra,0xfffff
    14a8:	d64080e7          	jalr	-668(ra) # 208 <update_test>
    14ac:	00e00093          	li	ra,14
    14b0:	00d00113          	li	sp,13
    14b4:	0020a0b3          	slt	ra,ra,sp
    14b8:	00000e93          	li	t4,0
    14bc:	01100193          	li	gp,17
    14c0:	01d08463          	beq	ra,t4,14c8 <slt_test+0x258>
    14c4:	d55fe06f          	j	218 <fail>
    14c8:	fffff097          	auipc	ra,0xfffff
    14cc:	d40080e7          	jalr	-704(ra) # 208 <update_test>
    14d0:	000f8067          	jr	t6

000014d4 <sltu_test>:
    14d4:	00000513          	li	a0,0
    14d8:	00a62023          	sw	a0,0(a2)
    14dc:	00000093          	li	ra,0
    14e0:	00000113          	li	sp,0
    14e4:	0020bf33          	sltu	t5,ra,sp
    14e8:	00000e93          	li	t4,0
    14ec:	00200193          	li	gp,2
    14f0:	01df0463          	beq	t5,t4,14f8 <sltu_test+0x24>
    14f4:	d25fe06f          	j	218 <fail>
    14f8:	fffff097          	auipc	ra,0xfffff
    14fc:	d10080e7          	jalr	-752(ra) # 208 <update_test>
    1500:	00100093          	li	ra,1
    1504:	00100113          	li	sp,1
    1508:	0020bf33          	sltu	t5,ra,sp
    150c:	00000e93          	li	t4,0
    1510:	00300193          	li	gp,3
    1514:	01df0463          	beq	t5,t4,151c <sltu_test+0x48>
    1518:	d01fe06f          	j	218 <fail>
    151c:	fffff097          	auipc	ra,0xfffff
    1520:	cec080e7          	jalr	-788(ra) # 208 <update_test>
    1524:	00300093          	li	ra,3
    1528:	00700113          	li	sp,7
    152c:	0020bf33          	sltu	t5,ra,sp
    1530:	00100e93          	li	t4,1
    1534:	00400193          	li	gp,4
    1538:	01df0463          	beq	t5,t4,1540 <sltu_test+0x6c>
    153c:	cddfe06f          	j	218 <fail>
    1540:	fffff097          	auipc	ra,0xfffff
    1544:	cc8080e7          	jalr	-824(ra) # 208 <update_test>
    1548:	00700093          	li	ra,7
    154c:	00300113          	li	sp,3
    1550:	0020bf33          	sltu	t5,ra,sp
    1554:	00000e93          	li	t4,0
    1558:	00500193          	li	gp,5
    155c:	01df0463          	beq	t5,t4,1564 <sltu_test+0x90>
    1560:	cb9fe06f          	j	218 <fail>
    1564:	fffff097          	auipc	ra,0xfffff
    1568:	ca4080e7          	jalr	-860(ra) # 208 <update_test>
    156c:	00000093          	li	ra,0
    1570:	ffff8137          	lui	sp,0xffff8
    1574:	0020bf33          	sltu	t5,ra,sp
    1578:	00100e93          	li	t4,1
    157c:	00600193          	li	gp,6
    1580:	01df0463          	beq	t5,t4,1588 <sltu_test+0xb4>
    1584:	c95fe06f          	j	218 <fail>
    1588:	fffff097          	auipc	ra,0xfffff
    158c:	c80080e7          	jalr	-896(ra) # 208 <update_test>
    1590:	800000b7          	lui	ra,0x80000
    1594:	00000113          	li	sp,0
    1598:	0020bf33          	sltu	t5,ra,sp
    159c:	00000e93          	li	t4,0
    15a0:	00700193          	li	gp,7
    15a4:	01df0463          	beq	t5,t4,15ac <sltu_test+0xd8>
    15a8:	c71fe06f          	j	218 <fail>
    15ac:	fffff097          	auipc	ra,0xfffff
    15b0:	c5c080e7          	jalr	-932(ra) # 208 <update_test>
    15b4:	800000b7          	lui	ra,0x80000
    15b8:	ffff8137          	lui	sp,0xffff8
    15bc:	0020bf33          	sltu	t5,ra,sp
    15c0:	00100e93          	li	t4,1
    15c4:	00800193          	li	gp,8
    15c8:	01df0463          	beq	t5,t4,15d0 <sltu_test+0xfc>
    15cc:	c4dfe06f          	j	218 <fail>
    15d0:	fffff097          	auipc	ra,0xfffff
    15d4:	c38080e7          	jalr	-968(ra) # 208 <update_test>
    15d8:	00000093          	li	ra,0
    15dc:	00008137          	lui	sp,0x8
    15e0:	fff10113          	addi	sp,sp,-1 # 7fff <__global_pointer$+0x38eb>
    15e4:	0020bf33          	sltu	t5,ra,sp
    15e8:	00100e93          	li	t4,1
    15ec:	00900193          	li	gp,9
    15f0:	01df0463          	beq	t5,t4,15f8 <sltu_test+0x124>
    15f4:	c25fe06f          	j	218 <fail>
    15f8:	fffff097          	auipc	ra,0xfffff
    15fc:	c10080e7          	jalr	-1008(ra) # 208 <update_test>
    1600:	800000b7          	lui	ra,0x80000
    1604:	fff08093          	addi	ra,ra,-1 # 7fffffff <SSEG+0x6ef3ffff>
    1608:	00000113          	li	sp,0
    160c:	0020bf33          	sltu	t5,ra,sp
    1610:	00000e93          	li	t4,0
    1614:	00a00193          	li	gp,10
    1618:	01df0463          	beq	t5,t4,1620 <sltu_test+0x14c>
    161c:	bfdfe06f          	j	218 <fail>
    1620:	fffff097          	auipc	ra,0xfffff
    1624:	be8080e7          	jalr	-1048(ra) # 208 <update_test>
    1628:	800000b7          	lui	ra,0x80000
    162c:	fff08093          	addi	ra,ra,-1 # 7fffffff <SSEG+0x6ef3ffff>
    1630:	00008137          	lui	sp,0x8
    1634:	fff10113          	addi	sp,sp,-1 # 7fff <__global_pointer$+0x38eb>
    1638:	0020bf33          	sltu	t5,ra,sp
    163c:	00000e93          	li	t4,0
    1640:	00b00193          	li	gp,11
    1644:	01df0463          	beq	t5,t4,164c <sltu_test+0x178>
    1648:	bd1fe06f          	j	218 <fail>
    164c:	fffff097          	auipc	ra,0xfffff
    1650:	bbc080e7          	jalr	-1092(ra) # 208 <update_test>
    1654:	800000b7          	lui	ra,0x80000
    1658:	00008137          	lui	sp,0x8
    165c:	fff10113          	addi	sp,sp,-1 # 7fff <__global_pointer$+0x38eb>
    1660:	0020bf33          	sltu	t5,ra,sp
    1664:	00000e93          	li	t4,0
    1668:	00c00193          	li	gp,12
    166c:	01df0463          	beq	t5,t4,1674 <sltu_test+0x1a0>
    1670:	ba9fe06f          	j	218 <fail>
    1674:	fffff097          	auipc	ra,0xfffff
    1678:	b94080e7          	jalr	-1132(ra) # 208 <update_test>
    167c:	800000b7          	lui	ra,0x80000
    1680:	fff08093          	addi	ra,ra,-1 # 7fffffff <SSEG+0x6ef3ffff>
    1684:	ffff8137          	lui	sp,0xffff8
    1688:	0020bf33          	sltu	t5,ra,sp
    168c:	00100e93          	li	t4,1
    1690:	00d00193          	li	gp,13
    1694:	01df0463          	beq	t5,t4,169c <sltu_test+0x1c8>
    1698:	b81fe06f          	j	218 <fail>
    169c:	fffff097          	auipc	ra,0xfffff
    16a0:	b6c080e7          	jalr	-1172(ra) # 208 <update_test>
    16a4:	00000093          	li	ra,0
    16a8:	fff00113          	li	sp,-1
    16ac:	0020bf33          	sltu	t5,ra,sp
    16b0:	00100e93          	li	t4,1
    16b4:	00e00193          	li	gp,14
    16b8:	01df0463          	beq	t5,t4,16c0 <sltu_test+0x1ec>
    16bc:	b5dfe06f          	j	218 <fail>
    16c0:	fffff097          	auipc	ra,0xfffff
    16c4:	b48080e7          	jalr	-1208(ra) # 208 <update_test>
    16c8:	fff00093          	li	ra,-1
    16cc:	00100113          	li	sp,1
    16d0:	0020bf33          	sltu	t5,ra,sp
    16d4:	00000e93          	li	t4,0
    16d8:	00f00193          	li	gp,15
    16dc:	01df0463          	beq	t5,t4,16e4 <sltu_test+0x210>
    16e0:	b39fe06f          	j	218 <fail>
    16e4:	fffff097          	auipc	ra,0xfffff
    16e8:	b24080e7          	jalr	-1244(ra) # 208 <update_test>
    16ec:	fff00093          	li	ra,-1
    16f0:	fff00113          	li	sp,-1
    16f4:	0020bf33          	sltu	t5,ra,sp
    16f8:	00000e93          	li	t4,0
    16fc:	01000193          	li	gp,16
    1700:	01df0463          	beq	t5,t4,1708 <sltu_test+0x234>
    1704:	b15fe06f          	j	218 <fail>
    1708:	fffff097          	auipc	ra,0xfffff
    170c:	b00080e7          	jalr	-1280(ra) # 208 <update_test>
    1710:	00e00093          	li	ra,14
    1714:	00d00113          	li	sp,13
    1718:	0020b0b3          	sltu	ra,ra,sp
    171c:	00000e93          	li	t4,0
    1720:	01100193          	li	gp,17
    1724:	01d08463          	beq	ra,t4,172c <sltu_test+0x258>
    1728:	af1fe06f          	j	218 <fail>
    172c:	fffff097          	auipc	ra,0xfffff
    1730:	adc080e7          	jalr	-1316(ra) # 208 <update_test>
    1734:	000f8067          	jr	t6

00001738 <addi_test>:
    1738:	00000513          	li	a0,0
    173c:	00a62023          	sw	a0,0(a2)
    1740:	00000093          	li	ra,0
    1744:	00008f13          	mv	t5,ra
    1748:	00000e93          	li	t4,0
    174c:	00200193          	li	gp,2
    1750:	01df0463          	beq	t5,t4,1758 <addi_test+0x20>
    1754:	ac5fe06f          	j	218 <fail>
    1758:	fffff097          	auipc	ra,0xfffff
    175c:	ab0080e7          	jalr	-1360(ra) # 208 <update_test>
    1760:	00100093          	li	ra,1
    1764:	00108f13          	addi	t5,ra,1
    1768:	00200e93          	li	t4,2
    176c:	00300193          	li	gp,3
    1770:	01df0463          	beq	t5,t4,1778 <addi_test+0x40>
    1774:	aa5fe06f          	j	218 <fail>
    1778:	fffff097          	auipc	ra,0xfffff
    177c:	a90080e7          	jalr	-1392(ra) # 208 <update_test>
    1780:	00300093          	li	ra,3
    1784:	00708f13          	addi	t5,ra,7
    1788:	00a00e93          	li	t4,10
    178c:	00400193          	li	gp,4
    1790:	01df0463          	beq	t5,t4,1798 <addi_test+0x60>
    1794:	a85fe06f          	j	218 <fail>
    1798:	fffff097          	auipc	ra,0xfffff
    179c:	a70080e7          	jalr	-1424(ra) # 208 <update_test>
    17a0:	00000093          	li	ra,0
    17a4:	80008f13          	addi	t5,ra,-2048
    17a8:	80000e93          	li	t4,-2048
    17ac:	00500193          	li	gp,5
    17b0:	01df0463          	beq	t5,t4,17b8 <addi_test+0x80>
    17b4:	a65fe06f          	j	218 <fail>
    17b8:	fffff097          	auipc	ra,0xfffff
    17bc:	a50080e7          	jalr	-1456(ra) # 208 <update_test>
    17c0:	800000b7          	lui	ra,0x80000
    17c4:	00008f13          	mv	t5,ra
    17c8:	80000eb7          	lui	t4,0x80000
    17cc:	00600193          	li	gp,6
    17d0:	01df0463          	beq	t5,t4,17d8 <addi_test+0xa0>
    17d4:	a45fe06f          	j	218 <fail>
    17d8:	fffff097          	auipc	ra,0xfffff
    17dc:	a30080e7          	jalr	-1488(ra) # 208 <update_test>
    17e0:	800000b7          	lui	ra,0x80000
    17e4:	80008f13          	addi	t5,ra,-2048 # 7ffff800 <SSEG+0x6ef3f800>
    17e8:	80000eb7          	lui	t4,0x80000
    17ec:	800e8e93          	addi	t4,t4,-2048 # 7ffff800 <SSEG+0x6ef3f800>
    17f0:	00700193          	li	gp,7
    17f4:	01df0463          	beq	t5,t4,17fc <addi_test+0xc4>
    17f8:	a21fe06f          	j	218 <fail>
    17fc:	fffff097          	auipc	ra,0xfffff
    1800:	a0c080e7          	jalr	-1524(ra) # 208 <update_test>
    1804:	00000093          	li	ra,0
    1808:	7ff08f13          	addi	t5,ra,2047
    180c:	7ff00e93          	li	t4,2047
    1810:	00800193          	li	gp,8
    1814:	01df0463          	beq	t5,t4,181c <addi_test+0xe4>
    1818:	a01fe06f          	j	218 <fail>
    181c:	fffff097          	auipc	ra,0xfffff
    1820:	9ec080e7          	jalr	-1556(ra) # 208 <update_test>
    1824:	800000b7          	lui	ra,0x80000
    1828:	fff08093          	addi	ra,ra,-1 # 7fffffff <SSEG+0x6ef3ffff>
    182c:	00008f13          	mv	t5,ra
    1830:	80000eb7          	lui	t4,0x80000
    1834:	fffe8e93          	addi	t4,t4,-1 # 7fffffff <SSEG+0x6ef3ffff>
    1838:	00900193          	li	gp,9
    183c:	01df0463          	beq	t5,t4,1844 <addi_test+0x10c>
    1840:	9d9fe06f          	j	218 <fail>
    1844:	fffff097          	auipc	ra,0xfffff
    1848:	9c4080e7          	jalr	-1596(ra) # 208 <update_test>
    184c:	800000b7          	lui	ra,0x80000
    1850:	fff08093          	addi	ra,ra,-1 # 7fffffff <SSEG+0x6ef3ffff>
    1854:	7ff08f13          	addi	t5,ra,2047
    1858:	80000eb7          	lui	t4,0x80000
    185c:	7fee8e93          	addi	t4,t4,2046 # 800007fe <SSEG+0x6ef407fe>
    1860:	00a00193          	li	gp,10
    1864:	01df0463          	beq	t5,t4,186c <addi_test+0x134>
    1868:	9b1fe06f          	j	218 <fail>
    186c:	fffff097          	auipc	ra,0xfffff
    1870:	99c080e7          	jalr	-1636(ra) # 208 <update_test>
    1874:	800000b7          	lui	ra,0x80000
    1878:	7ff08f13          	addi	t5,ra,2047 # 800007ff <SSEG+0x6ef407ff>
    187c:	80000eb7          	lui	t4,0x80000
    1880:	7ffe8e93          	addi	t4,t4,2047 # 800007ff <SSEG+0x6ef407ff>
    1884:	00b00193          	li	gp,11
    1888:	01df0463          	beq	t5,t4,1890 <addi_test+0x158>
    188c:	98dfe06f          	j	218 <fail>
    1890:	fffff097          	auipc	ra,0xfffff
    1894:	978080e7          	jalr	-1672(ra) # 208 <update_test>
    1898:	800000b7          	lui	ra,0x80000
    189c:	fff08093          	addi	ra,ra,-1 # 7fffffff <SSEG+0x6ef3ffff>
    18a0:	80008f13          	addi	t5,ra,-2048
    18a4:	7ffffeb7          	lui	t4,0x7ffff
    18a8:	7ffe8e93          	addi	t4,t4,2047 # 7ffff7ff <SSEG+0x6ef3f7ff>
    18ac:	00c00193          	li	gp,12
    18b0:	01df0463          	beq	t5,t4,18b8 <addi_test+0x180>
    18b4:	965fe06f          	j	218 <fail>
    18b8:	fffff097          	auipc	ra,0xfffff
    18bc:	950080e7          	jalr	-1712(ra) # 208 <update_test>
    18c0:	00000093          	li	ra,0
    18c4:	fff08f13          	addi	t5,ra,-1
    18c8:	fff00e93          	li	t4,-1
    18cc:	00d00193          	li	gp,13
    18d0:	01df0463          	beq	t5,t4,18d8 <addi_test+0x1a0>
    18d4:	945fe06f          	j	218 <fail>
    18d8:	fffff097          	auipc	ra,0xfffff
    18dc:	930080e7          	jalr	-1744(ra) # 208 <update_test>
    18e0:	fff00093          	li	ra,-1
    18e4:	00108f13          	addi	t5,ra,1
    18e8:	00000e93          	li	t4,0
    18ec:	00e00193          	li	gp,14
    18f0:	01df0463          	beq	t5,t4,18f8 <addi_test+0x1c0>
    18f4:	925fe06f          	j	218 <fail>
    18f8:	fffff097          	auipc	ra,0xfffff
    18fc:	910080e7          	jalr	-1776(ra) # 208 <update_test>
    1900:	fff00093          	li	ra,-1
    1904:	fff08f13          	addi	t5,ra,-1
    1908:	ffe00e93          	li	t4,-2
    190c:	00f00193          	li	gp,15
    1910:	01df0463          	beq	t5,t4,1918 <addi_test+0x1e0>
    1914:	905fe06f          	j	218 <fail>
    1918:	fffff097          	auipc	ra,0xfffff
    191c:	8f0080e7          	jalr	-1808(ra) # 208 <update_test>
    1920:	800000b7          	lui	ra,0x80000
    1924:	fff08093          	addi	ra,ra,-1 # 7fffffff <SSEG+0x6ef3ffff>
    1928:	00108f13          	addi	t5,ra,1
    192c:	80000eb7          	lui	t4,0x80000
    1930:	01000193          	li	gp,16
    1934:	01df0463          	beq	t5,t4,193c <addi_test+0x204>
    1938:	8e1fe06f          	j	218 <fail>
    193c:	fffff097          	auipc	ra,0xfffff
    1940:	8cc080e7          	jalr	-1844(ra) # 208 <update_test>
    1944:	00d00093          	li	ra,13
    1948:	00b08093          	addi	ra,ra,11
    194c:	01800e93          	li	t4,24
    1950:	01100193          	li	gp,17
    1954:	01d08463          	beq	ra,t4,195c <addi_test+0x224>
    1958:	8c1fe06f          	j	218 <fail>
    195c:	fffff097          	auipc	ra,0xfffff
    1960:	8ac080e7          	jalr	-1876(ra) # 208 <update_test>
    1964:	000f8067          	jr	t6

00001968 <andi_test>:
    1968:	00000513          	li	a0,0
    196c:	00a62023          	sw	a0,0(a2)
    1970:	ff0100b7          	lui	ra,0xff010
    1974:	f0008093          	addi	ra,ra,-256 # ff00ff00 <SSEG+0xedf4ff00>
    1978:	f0f0ff13          	andi	t5,ra,-241
    197c:	ff010eb7          	lui	t4,0xff010
    1980:	f00e8e93          	addi	t4,t4,-256 # ff00ff00 <SSEG+0xedf4ff00>
    1984:	00200193          	li	gp,2
    1988:	01df0463          	beq	t5,t4,1990 <andi_test+0x28>
    198c:	88dfe06f          	j	218 <fail>
    1990:	fffff097          	auipc	ra,0xfffff
    1994:	878080e7          	jalr	-1928(ra) # 208 <update_test>
    1998:	0ff010b7          	lui	ra,0xff01
    199c:	ff008093          	addi	ra,ra,-16 # ff00ff0 <__sp+0xfef0ff0>
    19a0:	0f00ff13          	andi	t5,ra,240
    19a4:	0f000e93          	li	t4,240
    19a8:	00300193          	li	gp,3
    19ac:	01df0463          	beq	t5,t4,19b4 <andi_test+0x4c>
    19b0:	869fe06f          	j	218 <fail>
    19b4:	fffff097          	auipc	ra,0xfffff
    19b8:	854080e7          	jalr	-1964(ra) # 208 <update_test>
    19bc:	00ff00b7          	lui	ra,0xff0
    19c0:	0ff08093          	addi	ra,ra,255 # ff00ff <__sp+0xfe00ff>
    19c4:	70f0ff13          	andi	t5,ra,1807
    19c8:	00f00e93          	li	t4,15
    19cc:	00400193          	li	gp,4
    19d0:	01df0463          	beq	t5,t4,19d8 <andi_test+0x70>
    19d4:	845fe06f          	j	218 <fail>
    19d8:	fffff097          	auipc	ra,0xfffff
    19dc:	830080e7          	jalr	-2000(ra) # 208 <update_test>
    19e0:	f00ff0b7          	lui	ra,0xf00ff
    19e4:	00f08093          	addi	ra,ra,15 # f00ff00f <SSEG+0xdf03f00f>
    19e8:	0f00ff13          	andi	t5,ra,240
    19ec:	00000e93          	li	t4,0
    19f0:	00500193          	li	gp,5
    19f4:	01df0463          	beq	t5,t4,19fc <andi_test+0x94>
    19f8:	821fe06f          	j	218 <fail>
    19fc:	fffff097          	auipc	ra,0xfffff
    1a00:	80c080e7          	jalr	-2036(ra) # 208 <update_test>
    1a04:	ff0100b7          	lui	ra,0xff010
    1a08:	f0008093          	addi	ra,ra,-256 # ff00ff00 <SSEG+0xedf4ff00>
    1a0c:	0f00f093          	andi	ra,ra,240
    1a10:	00000e93          	li	t4,0
    1a14:	00600193          	li	gp,6
    1a18:	01d08463          	beq	ra,t4,1a20 <andi_test+0xb8>
    1a1c:	ffcfe06f          	j	218 <fail>
    1a20:	ffffe097          	auipc	ra,0xffffe
    1a24:	7e8080e7          	jalr	2024(ra) # 208 <update_test>
    1a28:	000f8067          	jr	t6

00001a2c <ori_test>:
    1a2c:	00000513          	li	a0,0
    1a30:	00a62023          	sw	a0,0(a2)
    1a34:	ff0100b7          	lui	ra,0xff010
    1a38:	f0008093          	addi	ra,ra,-256 # ff00ff00 <SSEG+0xedf4ff00>
    1a3c:	f0f0ef13          	ori	t5,ra,-241
    1a40:	f0f00e93          	li	t4,-241
    1a44:	00200193          	li	gp,2
    1a48:	01df0463          	beq	t5,t4,1a50 <ori_test+0x24>
    1a4c:	fccfe06f          	j	218 <fail>
    1a50:	ffffe097          	auipc	ra,0xffffe
    1a54:	7b8080e7          	jalr	1976(ra) # 208 <update_test>
    1a58:	0ff010b7          	lui	ra,0xff01
    1a5c:	ff008093          	addi	ra,ra,-16 # ff00ff0 <__sp+0xfef0ff0>
    1a60:	0f00ef13          	ori	t5,ra,240
    1a64:	0ff01eb7          	lui	t4,0xff01
    1a68:	ff0e8e93          	addi	t4,t4,-16 # ff00ff0 <__sp+0xfef0ff0>
    1a6c:	00300193          	li	gp,3
    1a70:	01df0463          	beq	t5,t4,1a78 <ori_test+0x4c>
    1a74:	fa4fe06f          	j	218 <fail>
    1a78:	ffffe097          	auipc	ra,0xffffe
    1a7c:	790080e7          	jalr	1936(ra) # 208 <update_test>
    1a80:	00ff00b7          	lui	ra,0xff0
    1a84:	0ff08093          	addi	ra,ra,255 # ff00ff <__sp+0xfe00ff>
    1a88:	70f0ef13          	ori	t5,ra,1807
    1a8c:	00ff0eb7          	lui	t4,0xff0
    1a90:	7ffe8e93          	addi	t4,t4,2047 # ff07ff <__sp+0xfe07ff>
    1a94:	00400193          	li	gp,4
    1a98:	01df0463          	beq	t5,t4,1aa0 <ori_test+0x74>
    1a9c:	f7cfe06f          	j	218 <fail>
    1aa0:	ffffe097          	auipc	ra,0xffffe
    1aa4:	768080e7          	jalr	1896(ra) # 208 <update_test>
    1aa8:	f00ff0b7          	lui	ra,0xf00ff
    1aac:	00f08093          	addi	ra,ra,15 # f00ff00f <SSEG+0xdf03f00f>
    1ab0:	0f00ef13          	ori	t5,ra,240
    1ab4:	f00ffeb7          	lui	t4,0xf00ff
    1ab8:	0ffe8e93          	addi	t4,t4,255 # f00ff0ff <SSEG+0xdf03f0ff>
    1abc:	00500193          	li	gp,5
    1ac0:	01df0463          	beq	t5,t4,1ac8 <ori_test+0x9c>
    1ac4:	f54fe06f          	j	218 <fail>
    1ac8:	ffffe097          	auipc	ra,0xffffe
    1acc:	740080e7          	jalr	1856(ra) # 208 <update_test>
    1ad0:	ff0100b7          	lui	ra,0xff010
    1ad4:	f0008093          	addi	ra,ra,-256 # ff00ff00 <SSEG+0xedf4ff00>
    1ad8:	0f00e093          	ori	ra,ra,240
    1adc:	ff010eb7          	lui	t4,0xff010
    1ae0:	ff0e8e93          	addi	t4,t4,-16 # ff00fff0 <SSEG+0xedf4fff0>
    1ae4:	00600193          	li	gp,6
    1ae8:	01d08463          	beq	ra,t4,1af0 <ori_test+0xc4>
    1aec:	f2cfe06f          	j	218 <fail>
    1af0:	ffffe097          	auipc	ra,0xffffe
    1af4:	718080e7          	jalr	1816(ra) # 208 <update_test>
    1af8:	000f8067          	jr	t6

00001afc <xori_test>:
    1afc:	00000513          	li	a0,0
    1b00:	00a62023          	sw	a0,0(a2)
    1b04:	00ff10b7          	lui	ra,0xff1
    1b08:	f0008093          	addi	ra,ra,-256 # ff0f00 <__sp+0xfe0f00>
    1b0c:	f0f0cf13          	xori	t5,ra,-241
    1b10:	ff00feb7          	lui	t4,0xff00f
    1b14:	00fe8e93          	addi	t4,t4,15 # ff00f00f <SSEG+0xedf4f00f>
    1b18:	00200193          	li	gp,2
    1b1c:	01df0463          	beq	t5,t4,1b24 <xori_test+0x28>
    1b20:	ef8fe06f          	j	218 <fail>
    1b24:	ffffe097          	auipc	ra,0xffffe
    1b28:	6e4080e7          	jalr	1764(ra) # 208 <update_test>
    1b2c:	0ff010b7          	lui	ra,0xff01
    1b30:	ff008093          	addi	ra,ra,-16 # ff00ff0 <__sp+0xfef0ff0>
    1b34:	0f00cf13          	xori	t5,ra,240
    1b38:	0ff01eb7          	lui	t4,0xff01
    1b3c:	f00e8e93          	addi	t4,t4,-256 # ff00f00 <__sp+0xfef0f00>
    1b40:	00300193          	li	gp,3
    1b44:	01df0463          	beq	t5,t4,1b4c <xori_test+0x50>
    1b48:	ed0fe06f          	j	218 <fail>
    1b4c:	ffffe097          	auipc	ra,0xffffe
    1b50:	6bc080e7          	jalr	1724(ra) # 208 <update_test>
    1b54:	00ff10b7          	lui	ra,0xff1
    1b58:	8ff08093          	addi	ra,ra,-1793 # ff08ff <__sp+0xfe08ff>
    1b5c:	70f0cf13          	xori	t5,ra,1807
    1b60:	00ff1eb7          	lui	t4,0xff1
    1b64:	ff0e8e93          	addi	t4,t4,-16 # ff0ff0 <__sp+0xfe0ff0>
    1b68:	00400193          	li	gp,4
    1b6c:	01df0463          	beq	t5,t4,1b74 <xori_test+0x78>
    1b70:	ea8fe06f          	j	218 <fail>
    1b74:	ffffe097          	auipc	ra,0xffffe
    1b78:	694080e7          	jalr	1684(ra) # 208 <update_test>
    1b7c:	f00ff0b7          	lui	ra,0xf00ff
    1b80:	00f08093          	addi	ra,ra,15 # f00ff00f <SSEG+0xdf03f00f>
    1b84:	0f00cf13          	xori	t5,ra,240
    1b88:	f00ffeb7          	lui	t4,0xf00ff
    1b8c:	0ffe8e93          	addi	t4,t4,255 # f00ff0ff <SSEG+0xdf03f0ff>
    1b90:	00500193          	li	gp,5
    1b94:	01df0463          	beq	t5,t4,1b9c <xori_test+0xa0>
    1b98:	e80fe06f          	j	218 <fail>
    1b9c:	ffffe097          	auipc	ra,0xffffe
    1ba0:	66c080e7          	jalr	1644(ra) # 208 <update_test>
    1ba4:	ff00f0b7          	lui	ra,0xff00f
    1ba8:	70008093          	addi	ra,ra,1792 # ff00f700 <SSEG+0xedf4f700>
    1bac:	70f0c093          	xori	ra,ra,1807
    1bb0:	ff00feb7          	lui	t4,0xff00f
    1bb4:	00fe8e93          	addi	t4,t4,15 # ff00f00f <SSEG+0xedf4f00f>
    1bb8:	00600193          	li	gp,6
    1bbc:	01d08463          	beq	ra,t4,1bc4 <xori_test+0xc8>
    1bc0:	e58fe06f          	j	218 <fail>
    1bc4:	ffffe097          	auipc	ra,0xffffe
    1bc8:	644080e7          	jalr	1604(ra) # 208 <update_test>
    1bcc:	000f8067          	jr	t6

00001bd0 <slli_test>:
    1bd0:	00000513          	li	a0,0
    1bd4:	00a62023          	sw	a0,0(a2)
    1bd8:	00100093          	li	ra,1
    1bdc:	00009f13          	slli	t5,ra,0x0
    1be0:	00100e93          	li	t4,1
    1be4:	00200193          	li	gp,2
    1be8:	01df0463          	beq	t5,t4,1bf0 <slli_test+0x20>
    1bec:	e2cfe06f          	j	218 <fail>
    1bf0:	ffffe097          	auipc	ra,0xffffe
    1bf4:	618080e7          	jalr	1560(ra) # 208 <update_test>
    1bf8:	00100093          	li	ra,1
    1bfc:	00109f13          	slli	t5,ra,0x1
    1c00:	00200e93          	li	t4,2
    1c04:	00300193          	li	gp,3
    1c08:	01df0463          	beq	t5,t4,1c10 <slli_test+0x40>
    1c0c:	e0cfe06f          	j	218 <fail>
    1c10:	ffffe097          	auipc	ra,0xffffe
    1c14:	5f8080e7          	jalr	1528(ra) # 208 <update_test>
    1c18:	00100093          	li	ra,1
    1c1c:	00709f13          	slli	t5,ra,0x7
    1c20:	08000e93          	li	t4,128
    1c24:	00400193          	li	gp,4
    1c28:	01df0463          	beq	t5,t4,1c30 <slli_test+0x60>
    1c2c:	decfe06f          	j	218 <fail>
    1c30:	ffffe097          	auipc	ra,0xffffe
    1c34:	5d8080e7          	jalr	1496(ra) # 208 <update_test>
    1c38:	00100093          	li	ra,1
    1c3c:	00e09f13          	slli	t5,ra,0xe
    1c40:	00004eb7          	lui	t4,0x4
    1c44:	00500193          	li	gp,5
    1c48:	01df0463          	beq	t5,t4,1c50 <slli_test+0x80>
    1c4c:	dccfe06f          	j	218 <fail>
    1c50:	ffffe097          	auipc	ra,0xffffe
    1c54:	5b8080e7          	jalr	1464(ra) # 208 <update_test>
    1c58:	00100093          	li	ra,1
    1c5c:	01f09f13          	slli	t5,ra,0x1f
    1c60:	80000eb7          	lui	t4,0x80000
    1c64:	00600193          	li	gp,6
    1c68:	01df0463          	beq	t5,t4,1c70 <slli_test+0xa0>
    1c6c:	dacfe06f          	j	218 <fail>
    1c70:	ffffe097          	auipc	ra,0xffffe
    1c74:	598080e7          	jalr	1432(ra) # 208 <update_test>
    1c78:	fff00093          	li	ra,-1
    1c7c:	00009f13          	slli	t5,ra,0x0
    1c80:	fff00e93          	li	t4,-1
    1c84:	00700193          	li	gp,7
    1c88:	01df0463          	beq	t5,t4,1c90 <slli_test+0xc0>
    1c8c:	d8cfe06f          	j	218 <fail>
    1c90:	ffffe097          	auipc	ra,0xffffe
    1c94:	578080e7          	jalr	1400(ra) # 208 <update_test>
    1c98:	fff00093          	li	ra,-1
    1c9c:	00109f13          	slli	t5,ra,0x1
    1ca0:	ffe00e93          	li	t4,-2
    1ca4:	00800193          	li	gp,8
    1ca8:	01df0463          	beq	t5,t4,1cb0 <slli_test+0xe0>
    1cac:	d6cfe06f          	j	218 <fail>
    1cb0:	ffffe097          	auipc	ra,0xffffe
    1cb4:	558080e7          	jalr	1368(ra) # 208 <update_test>
    1cb8:	fff00093          	li	ra,-1
    1cbc:	00709f13          	slli	t5,ra,0x7
    1cc0:	f8000e93          	li	t4,-128
    1cc4:	00900193          	li	gp,9
    1cc8:	01df0463          	beq	t5,t4,1cd0 <slli_test+0x100>
    1ccc:	d4cfe06f          	j	218 <fail>
    1cd0:	ffffe097          	auipc	ra,0xffffe
    1cd4:	538080e7          	jalr	1336(ra) # 208 <update_test>
    1cd8:	fff00093          	li	ra,-1
    1cdc:	00e09f13          	slli	t5,ra,0xe
    1ce0:	ffffceb7          	lui	t4,0xffffc
    1ce4:	00a00193          	li	gp,10
    1ce8:	01df0463          	beq	t5,t4,1cf0 <slli_test+0x120>
    1cec:	d2cfe06f          	j	218 <fail>
    1cf0:	ffffe097          	auipc	ra,0xffffe
    1cf4:	518080e7          	jalr	1304(ra) # 208 <update_test>
    1cf8:	fff00093          	li	ra,-1
    1cfc:	01f09f13          	slli	t5,ra,0x1f
    1d00:	80000eb7          	lui	t4,0x80000
    1d04:	00b00193          	li	gp,11
    1d08:	01df0463          	beq	t5,t4,1d10 <slli_test+0x140>
    1d0c:	d0cfe06f          	j	218 <fail>
    1d10:	ffffe097          	auipc	ra,0xffffe
    1d14:	4f8080e7          	jalr	1272(ra) # 208 <update_test>
    1d18:	212120b7          	lui	ra,0x21212
    1d1c:	12108093          	addi	ra,ra,289 # 21212121 <SSEG+0x10152121>
    1d20:	00009f13          	slli	t5,ra,0x0
    1d24:	21212eb7          	lui	t4,0x21212
    1d28:	121e8e93          	addi	t4,t4,289 # 21212121 <SSEG+0x10152121>
    1d2c:	00c00193          	li	gp,12
    1d30:	01df0463          	beq	t5,t4,1d38 <slli_test+0x168>
    1d34:	ce4fe06f          	j	218 <fail>
    1d38:	ffffe097          	auipc	ra,0xffffe
    1d3c:	4d0080e7          	jalr	1232(ra) # 208 <update_test>
    1d40:	212120b7          	lui	ra,0x21212
    1d44:	12108093          	addi	ra,ra,289 # 21212121 <SSEG+0x10152121>
    1d48:	00109f13          	slli	t5,ra,0x1
    1d4c:	42424eb7          	lui	t4,0x42424
    1d50:	242e8e93          	addi	t4,t4,578 # 42424242 <SSEG+0x31364242>
    1d54:	00d00193          	li	gp,13
    1d58:	01df0463          	beq	t5,t4,1d60 <slli_test+0x190>
    1d5c:	cbcfe06f          	j	218 <fail>
    1d60:	ffffe097          	auipc	ra,0xffffe
    1d64:	4a8080e7          	jalr	1192(ra) # 208 <update_test>
    1d68:	212120b7          	lui	ra,0x21212
    1d6c:	12108093          	addi	ra,ra,289 # 21212121 <SSEG+0x10152121>
    1d70:	00709f13          	slli	t5,ra,0x7
    1d74:	90909eb7          	lui	t4,0x90909
    1d78:	080e8e93          	addi	t4,t4,128 # 90909080 <SSEG+0x7f849080>
    1d7c:	00e00193          	li	gp,14
    1d80:	01df0463          	beq	t5,t4,1d88 <slli_test+0x1b8>
    1d84:	c94fe06f          	j	218 <fail>
    1d88:	ffffe097          	auipc	ra,0xffffe
    1d8c:	480080e7          	jalr	1152(ra) # 208 <update_test>
    1d90:	212120b7          	lui	ra,0x21212
    1d94:	12108093          	addi	ra,ra,289 # 21212121 <SSEG+0x10152121>
    1d98:	00e09f13          	slli	t5,ra,0xe
    1d9c:	48484eb7          	lui	t4,0x48484
    1da0:	00f00193          	li	gp,15
    1da4:	01df0463          	beq	t5,t4,1dac <slli_test+0x1dc>
    1da8:	c70fe06f          	j	218 <fail>
    1dac:	ffffe097          	auipc	ra,0xffffe
    1db0:	45c080e7          	jalr	1116(ra) # 208 <update_test>
    1db4:	212120b7          	lui	ra,0x21212
    1db8:	12108093          	addi	ra,ra,289 # 21212121 <SSEG+0x10152121>
    1dbc:	01f09f13          	slli	t5,ra,0x1f
    1dc0:	80000eb7          	lui	t4,0x80000
    1dc4:	01000193          	li	gp,16
    1dc8:	01df0463          	beq	t5,t4,1dd0 <slli_test+0x200>
    1dcc:	c4cfe06f          	j	218 <fail>
    1dd0:	ffffe097          	auipc	ra,0xffffe
    1dd4:	438080e7          	jalr	1080(ra) # 208 <update_test>
    1dd8:	000f8067          	jr	t6

00001ddc <srli_test>:
    1ddc:	00000513          	li	a0,0
    1de0:	00a62023          	sw	a0,0(a2)
    1de4:	800000b7          	lui	ra,0x80000
    1de8:	0000df13          	srli	t5,ra,0x0
    1dec:	80000eb7          	lui	t4,0x80000
    1df0:	00200193          	li	gp,2
    1df4:	01df0463          	beq	t5,t4,1dfc <srli_test+0x20>
    1df8:	c20fe06f          	j	218 <fail>
    1dfc:	ffffe097          	auipc	ra,0xffffe
    1e00:	40c080e7          	jalr	1036(ra) # 208 <update_test>
    1e04:	800000b7          	lui	ra,0x80000
    1e08:	0010df13          	srli	t5,ra,0x1
    1e0c:	40000eb7          	lui	t4,0x40000
    1e10:	00300193          	li	gp,3
    1e14:	01df0463          	beq	t5,t4,1e1c <srli_test+0x40>
    1e18:	c00fe06f          	j	218 <fail>
    1e1c:	ffffe097          	auipc	ra,0xffffe
    1e20:	3ec080e7          	jalr	1004(ra) # 208 <update_test>
    1e24:	800000b7          	lui	ra,0x80000
    1e28:	0070df13          	srli	t5,ra,0x7
    1e2c:	01000eb7          	lui	t4,0x1000
    1e30:	00400193          	li	gp,4
    1e34:	01df0463          	beq	t5,t4,1e3c <srli_test+0x60>
    1e38:	be0fe06f          	j	218 <fail>
    1e3c:	ffffe097          	auipc	ra,0xffffe
    1e40:	3cc080e7          	jalr	972(ra) # 208 <update_test>
    1e44:	800000b7          	lui	ra,0x80000
    1e48:	00e0df13          	srli	t5,ra,0xe
    1e4c:	00020eb7          	lui	t4,0x20
    1e50:	00500193          	li	gp,5
    1e54:	01df0463          	beq	t5,t4,1e5c <srli_test+0x80>
    1e58:	bc0fe06f          	j	218 <fail>
    1e5c:	ffffe097          	auipc	ra,0xffffe
    1e60:	3ac080e7          	jalr	940(ra) # 208 <update_test>
    1e64:	800000b7          	lui	ra,0x80000
    1e68:	00108093          	addi	ra,ra,1 # 80000001 <SSEG+0x6ef40001>
    1e6c:	01f0df13          	srli	t5,ra,0x1f
    1e70:	00100e93          	li	t4,1
    1e74:	00600193          	li	gp,6
    1e78:	01df0463          	beq	t5,t4,1e80 <srli_test+0xa4>
    1e7c:	b9cfe06f          	j	218 <fail>
    1e80:	ffffe097          	auipc	ra,0xffffe
    1e84:	388080e7          	jalr	904(ra) # 208 <update_test>
    1e88:	fff00093          	li	ra,-1
    1e8c:	0000df13          	srli	t5,ra,0x0
    1e90:	fff00e93          	li	t4,-1
    1e94:	00700193          	li	gp,7
    1e98:	01df0463          	beq	t5,t4,1ea0 <srli_test+0xc4>
    1e9c:	b7cfe06f          	j	218 <fail>
    1ea0:	ffffe097          	auipc	ra,0xffffe
    1ea4:	368080e7          	jalr	872(ra) # 208 <update_test>
    1ea8:	fff00093          	li	ra,-1
    1eac:	0010df13          	srli	t5,ra,0x1
    1eb0:	80000eb7          	lui	t4,0x80000
    1eb4:	fffe8e93          	addi	t4,t4,-1 # 7fffffff <SSEG+0x6ef3ffff>
    1eb8:	00800193          	li	gp,8
    1ebc:	01df0463          	beq	t5,t4,1ec4 <srli_test+0xe8>
    1ec0:	b58fe06f          	j	218 <fail>
    1ec4:	ffffe097          	auipc	ra,0xffffe
    1ec8:	344080e7          	jalr	836(ra) # 208 <update_test>
    1ecc:	fff00093          	li	ra,-1
    1ed0:	0070df13          	srli	t5,ra,0x7
    1ed4:	02000eb7          	lui	t4,0x2000
    1ed8:	fffe8e93          	addi	t4,t4,-1 # 1ffffff <__sp+0x1feffff>
    1edc:	00900193          	li	gp,9
    1ee0:	01df0463          	beq	t5,t4,1ee8 <srli_test+0x10c>
    1ee4:	b34fe06f          	j	218 <fail>
    1ee8:	ffffe097          	auipc	ra,0xffffe
    1eec:	320080e7          	jalr	800(ra) # 208 <update_test>
    1ef0:	fff00093          	li	ra,-1
    1ef4:	00e0df13          	srli	t5,ra,0xe
    1ef8:	00040eb7          	lui	t4,0x40
    1efc:	fffe8e93          	addi	t4,t4,-1 # 3ffff <__sp+0x2ffff>
    1f00:	00a00193          	li	gp,10
    1f04:	01df0463          	beq	t5,t4,1f0c <srli_test+0x130>
    1f08:	b10fe06f          	j	218 <fail>
    1f0c:	ffffe097          	auipc	ra,0xffffe
    1f10:	2fc080e7          	jalr	764(ra) # 208 <update_test>
    1f14:	fff00093          	li	ra,-1
    1f18:	01f0df13          	srli	t5,ra,0x1f
    1f1c:	00100e93          	li	t4,1
    1f20:	00b00193          	li	gp,11
    1f24:	01df0463          	beq	t5,t4,1f2c <srli_test+0x150>
    1f28:	af0fe06f          	j	218 <fail>
    1f2c:	ffffe097          	auipc	ra,0xffffe
    1f30:	2dc080e7          	jalr	732(ra) # 208 <update_test>
    1f34:	212120b7          	lui	ra,0x21212
    1f38:	12108093          	addi	ra,ra,289 # 21212121 <SSEG+0x10152121>
    1f3c:	0000df13          	srli	t5,ra,0x0
    1f40:	21212eb7          	lui	t4,0x21212
    1f44:	121e8e93          	addi	t4,t4,289 # 21212121 <SSEG+0x10152121>
    1f48:	00c00193          	li	gp,12
    1f4c:	01df0463          	beq	t5,t4,1f54 <srli_test+0x178>
    1f50:	ac8fe06f          	j	218 <fail>
    1f54:	ffffe097          	auipc	ra,0xffffe
    1f58:	2b4080e7          	jalr	692(ra) # 208 <update_test>
    1f5c:	212120b7          	lui	ra,0x21212
    1f60:	12108093          	addi	ra,ra,289 # 21212121 <SSEG+0x10152121>
    1f64:	0010df13          	srli	t5,ra,0x1
    1f68:	10909eb7          	lui	t4,0x10909
    1f6c:	090e8e93          	addi	t4,t4,144 # 10909090 <__sp+0x108f9090>
    1f70:	00d00193          	li	gp,13
    1f74:	01df0463          	beq	t5,t4,1f7c <srli_test+0x1a0>
    1f78:	aa0fe06f          	j	218 <fail>
    1f7c:	ffffe097          	auipc	ra,0xffffe
    1f80:	28c080e7          	jalr	652(ra) # 208 <update_test>
    1f84:	212120b7          	lui	ra,0x21212
    1f88:	12108093          	addi	ra,ra,289 # 21212121 <SSEG+0x10152121>
    1f8c:	0070df13          	srli	t5,ra,0x7
    1f90:	00424eb7          	lui	t4,0x424
    1f94:	242e8e93          	addi	t4,t4,578 # 424242 <__sp+0x414242>
    1f98:	00e00193          	li	gp,14
    1f9c:	01df0463          	beq	t5,t4,1fa4 <srli_test+0x1c8>
    1fa0:	a78fe06f          	j	218 <fail>
    1fa4:	ffffe097          	auipc	ra,0xffffe
    1fa8:	264080e7          	jalr	612(ra) # 208 <update_test>
    1fac:	212120b7          	lui	ra,0x21212
    1fb0:	12108093          	addi	ra,ra,289 # 21212121 <SSEG+0x10152121>
    1fb4:	00e0df13          	srli	t5,ra,0xe
    1fb8:	00008eb7          	lui	t4,0x8
    1fbc:	484e8e93          	addi	t4,t4,1156 # 8484 <__global_pointer$+0x3d70>
    1fc0:	00f00193          	li	gp,15
    1fc4:	01df0463          	beq	t5,t4,1fcc <srli_test+0x1f0>
    1fc8:	a50fe06f          	j	218 <fail>
    1fcc:	ffffe097          	auipc	ra,0xffffe
    1fd0:	23c080e7          	jalr	572(ra) # 208 <update_test>
    1fd4:	212120b7          	lui	ra,0x21212
    1fd8:	12108093          	addi	ra,ra,289 # 21212121 <SSEG+0x10152121>
    1fdc:	01f0df13          	srli	t5,ra,0x1f
    1fe0:	00000e93          	li	t4,0
    1fe4:	01000193          	li	gp,16
    1fe8:	01df0463          	beq	t5,t4,1ff0 <srli_test+0x214>
    1fec:	a2cfe06f          	j	218 <fail>
    1ff0:	ffffe097          	auipc	ra,0xffffe
    1ff4:	218080e7          	jalr	536(ra) # 208 <update_test>
    1ff8:	800000b7          	lui	ra,0x80000
    1ffc:	0070d093          	srli	ra,ra,0x7
    2000:	01000eb7          	lui	t4,0x1000
    2004:	01100193          	li	gp,17
    2008:	01d08463          	beq	ra,t4,2010 <srli_test+0x234>
    200c:	a0cfe06f          	j	218 <fail>
    2010:	ffffe097          	auipc	ra,0xffffe
    2014:	1f8080e7          	jalr	504(ra) # 208 <update_test>
    2018:	000f8067          	jr	t6

0000201c <srai_test>:
    201c:	00000513          	li	a0,0
    2020:	00a62023          	sw	a0,0(a2)
    2024:	00000093          	li	ra,0
    2028:	4000df13          	srai	t5,ra,0x0
    202c:	00000e93          	li	t4,0
    2030:	00200193          	li	gp,2
    2034:	01df0463          	beq	t5,t4,203c <srai_test+0x20>
    2038:	9e0fe06f          	j	218 <fail>
    203c:	ffffe097          	auipc	ra,0xffffe
    2040:	1cc080e7          	jalr	460(ra) # 208 <update_test>
    2044:	800000b7          	lui	ra,0x80000
    2048:	4010df13          	srai	t5,ra,0x1
    204c:	c0000eb7          	lui	t4,0xc0000
    2050:	00300193          	li	gp,3
    2054:	01df0463          	beq	t5,t4,205c <srai_test+0x40>
    2058:	9c0fe06f          	j	218 <fail>
    205c:	ffffe097          	auipc	ra,0xffffe
    2060:	1ac080e7          	jalr	428(ra) # 208 <update_test>
    2064:	800000b7          	lui	ra,0x80000
    2068:	4070df13          	srai	t5,ra,0x7
    206c:	ff000eb7          	lui	t4,0xff000
    2070:	00400193          	li	gp,4
    2074:	01df0463          	beq	t5,t4,207c <srai_test+0x60>
    2078:	9a0fe06f          	j	218 <fail>
    207c:	ffffe097          	auipc	ra,0xffffe
    2080:	18c080e7          	jalr	396(ra) # 208 <update_test>
    2084:	800000b7          	lui	ra,0x80000
    2088:	40e0df13          	srai	t5,ra,0xe
    208c:	fffe0eb7          	lui	t4,0xfffe0
    2090:	00500193          	li	gp,5
    2094:	01df0463          	beq	t5,t4,209c <srai_test+0x80>
    2098:	980fe06f          	j	218 <fail>
    209c:	ffffe097          	auipc	ra,0xffffe
    20a0:	16c080e7          	jalr	364(ra) # 208 <update_test>
    20a4:	800000b7          	lui	ra,0x80000
    20a8:	00108093          	addi	ra,ra,1 # 80000001 <SSEG+0x6ef40001>
    20ac:	41f0df13          	srai	t5,ra,0x1f
    20b0:	fff00e93          	li	t4,-1
    20b4:	00600193          	li	gp,6
    20b8:	01df0463          	beq	t5,t4,20c0 <srai_test+0xa4>
    20bc:	95cfe06f          	j	218 <fail>
    20c0:	ffffe097          	auipc	ra,0xffffe
    20c4:	148080e7          	jalr	328(ra) # 208 <update_test>
    20c8:	800000b7          	lui	ra,0x80000
    20cc:	fff08093          	addi	ra,ra,-1 # 7fffffff <SSEG+0x6ef3ffff>
    20d0:	4000df13          	srai	t5,ra,0x0
    20d4:	80000eb7          	lui	t4,0x80000
    20d8:	fffe8e93          	addi	t4,t4,-1 # 7fffffff <SSEG+0x6ef3ffff>
    20dc:	00700193          	li	gp,7
    20e0:	01df0463          	beq	t5,t4,20e8 <srai_test+0xcc>
    20e4:	934fe06f          	j	218 <fail>
    20e8:	ffffe097          	auipc	ra,0xffffe
    20ec:	120080e7          	jalr	288(ra) # 208 <update_test>
    20f0:	800000b7          	lui	ra,0x80000
    20f4:	fff08093          	addi	ra,ra,-1 # 7fffffff <SSEG+0x6ef3ffff>
    20f8:	4010df13          	srai	t5,ra,0x1
    20fc:	40000eb7          	lui	t4,0x40000
    2100:	fffe8e93          	addi	t4,t4,-1 # 3fffffff <SSEG+0x2ef3ffff>
    2104:	00800193          	li	gp,8
    2108:	01df0463          	beq	t5,t4,2110 <srai_test+0xf4>
    210c:	90cfe06f          	j	218 <fail>
    2110:	ffffe097          	auipc	ra,0xffffe
    2114:	0f8080e7          	jalr	248(ra) # 208 <update_test>
    2118:	800000b7          	lui	ra,0x80000
    211c:	fff08093          	addi	ra,ra,-1 # 7fffffff <SSEG+0x6ef3ffff>
    2120:	4070df13          	srai	t5,ra,0x7
    2124:	01000eb7          	lui	t4,0x1000
    2128:	fffe8e93          	addi	t4,t4,-1 # ffffff <__sp+0xfeffff>
    212c:	00900193          	li	gp,9
    2130:	01df0463          	beq	t5,t4,2138 <srai_test+0x11c>
    2134:	8e4fe06f          	j	218 <fail>
    2138:	ffffe097          	auipc	ra,0xffffe
    213c:	0d0080e7          	jalr	208(ra) # 208 <update_test>
    2140:	800000b7          	lui	ra,0x80000
    2144:	fff08093          	addi	ra,ra,-1 # 7fffffff <SSEG+0x6ef3ffff>
    2148:	40e0df13          	srai	t5,ra,0xe
    214c:	00020eb7          	lui	t4,0x20
    2150:	fffe8e93          	addi	t4,t4,-1 # 1ffff <__sp+0xffff>
    2154:	00a00193          	li	gp,10
    2158:	01df0463          	beq	t5,t4,2160 <srai_test+0x144>
    215c:	8bcfe06f          	j	218 <fail>
    2160:	ffffe097          	auipc	ra,0xffffe
    2164:	0a8080e7          	jalr	168(ra) # 208 <update_test>
    2168:	800000b7          	lui	ra,0x80000
    216c:	fff08093          	addi	ra,ra,-1 # 7fffffff <SSEG+0x6ef3ffff>
    2170:	41f0df13          	srai	t5,ra,0x1f
    2174:	00000e93          	li	t4,0
    2178:	00b00193          	li	gp,11
    217c:	01df0463          	beq	t5,t4,2184 <srai_test+0x168>
    2180:	898fe06f          	j	218 <fail>
    2184:	ffffe097          	auipc	ra,0xffffe
    2188:	084080e7          	jalr	132(ra) # 208 <update_test>
    218c:	818180b7          	lui	ra,0x81818
    2190:	18108093          	addi	ra,ra,385 # 81818181 <SSEG+0x70758181>
    2194:	4000df13          	srai	t5,ra,0x0
    2198:	81818eb7          	lui	t4,0x81818
    219c:	181e8e93          	addi	t4,t4,385 # 81818181 <SSEG+0x70758181>
    21a0:	00c00193          	li	gp,12
    21a4:	01df0463          	beq	t5,t4,21ac <srai_test+0x190>
    21a8:	870fe06f          	j	218 <fail>
    21ac:	ffffe097          	auipc	ra,0xffffe
    21b0:	05c080e7          	jalr	92(ra) # 208 <update_test>
    21b4:	818180b7          	lui	ra,0x81818
    21b8:	18108093          	addi	ra,ra,385 # 81818181 <SSEG+0x70758181>
    21bc:	4010df13          	srai	t5,ra,0x1
    21c0:	c0c0ceb7          	lui	t4,0xc0c0c
    21c4:	0c0e8e93          	addi	t4,t4,192 # c0c0c0c0 <SSEG+0xafb4c0c0>
    21c8:	00d00193          	li	gp,13
    21cc:	01df0463          	beq	t5,t4,21d4 <srai_test+0x1b8>
    21d0:	848fe06f          	j	218 <fail>
    21d4:	ffffe097          	auipc	ra,0xffffe
    21d8:	034080e7          	jalr	52(ra) # 208 <update_test>
    21dc:	818180b7          	lui	ra,0x81818
    21e0:	18108093          	addi	ra,ra,385 # 81818181 <SSEG+0x70758181>
    21e4:	4070df13          	srai	t5,ra,0x7
    21e8:	ff030eb7          	lui	t4,0xff030
    21ec:	303e8e93          	addi	t4,t4,771 # ff030303 <SSEG+0xedf70303>
    21f0:	00e00193          	li	gp,14
    21f4:	01df0463          	beq	t5,t4,21fc <srai_test+0x1e0>
    21f8:	820fe06f          	j	218 <fail>
    21fc:	ffffe097          	auipc	ra,0xffffe
    2200:	00c080e7          	jalr	12(ra) # 208 <update_test>
    2204:	818180b7          	lui	ra,0x81818
    2208:	18108093          	addi	ra,ra,385 # 81818181 <SSEG+0x70758181>
    220c:	40e0df13          	srai	t5,ra,0xe
    2210:	fffe0eb7          	lui	t4,0xfffe0
    2214:	606e8e93          	addi	t4,t4,1542 # fffe0606 <SSEG+0xeef20606>
    2218:	00f00193          	li	gp,15
    221c:	01df0463          	beq	t5,t4,2224 <srai_test+0x208>
    2220:	ff9fd06f          	j	218 <fail>
    2224:	ffffe097          	auipc	ra,0xffffe
    2228:	fe4080e7          	jalr	-28(ra) # 208 <update_test>
    222c:	818180b7          	lui	ra,0x81818
    2230:	18108093          	addi	ra,ra,385 # 81818181 <SSEG+0x70758181>
    2234:	41f0df13          	srai	t5,ra,0x1f
    2238:	fff00e93          	li	t4,-1
    223c:	01000193          	li	gp,16
    2240:	01df0463          	beq	t5,t4,2248 <srai_test+0x22c>
    2244:	fd5fd06f          	j	218 <fail>
    2248:	ffffe097          	auipc	ra,0xffffe
    224c:	fc0080e7          	jalr	-64(ra) # 208 <update_test>
    2250:	800000b7          	lui	ra,0x80000
    2254:	4070d093          	srai	ra,ra,0x7
    2258:	ff000eb7          	lui	t4,0xff000
    225c:	01100193          	li	gp,17
    2260:	01d08463          	beq	ra,t4,2268 <srai_test+0x24c>
    2264:	fb5fd06f          	j	218 <fail>
    2268:	ffffe097          	auipc	ra,0xffffe
    226c:	fa0080e7          	jalr	-96(ra) # 208 <update_test>
    2270:	000f8067          	jr	t6

00002274 <sltiu_test>:
    2274:	00000513          	li	a0,0
    2278:	00a62023          	sw	a0,0(a2)
    227c:	00000093          	li	ra,0
    2280:	0000bf13          	sltiu	t5,ra,0
    2284:	00000e93          	li	t4,0
    2288:	00200193          	li	gp,2
    228c:	01df0463          	beq	t5,t4,2294 <sltiu_test+0x20>
    2290:	f89fd06f          	j	218 <fail>
    2294:	ffffe097          	auipc	ra,0xffffe
    2298:	f74080e7          	jalr	-140(ra) # 208 <update_test>
    229c:	00100093          	li	ra,1
    22a0:	0010bf13          	seqz	t5,ra
    22a4:	00000e93          	li	t4,0
    22a8:	00300193          	li	gp,3
    22ac:	01df0463          	beq	t5,t4,22b4 <sltiu_test+0x40>
    22b0:	f69fd06f          	j	218 <fail>
    22b4:	ffffe097          	auipc	ra,0xffffe
    22b8:	f54080e7          	jalr	-172(ra) # 208 <update_test>
    22bc:	00300093          	li	ra,3
    22c0:	0070bf13          	sltiu	t5,ra,7
    22c4:	00100e93          	li	t4,1
    22c8:	00400193          	li	gp,4
    22cc:	01df0463          	beq	t5,t4,22d4 <sltiu_test+0x60>
    22d0:	f49fd06f          	j	218 <fail>
    22d4:	ffffe097          	auipc	ra,0xffffe
    22d8:	f34080e7          	jalr	-204(ra) # 208 <update_test>
    22dc:	00700093          	li	ra,7
    22e0:	0030bf13          	sltiu	t5,ra,3
    22e4:	00000e93          	li	t4,0
    22e8:	00500193          	li	gp,5
    22ec:	01df0463          	beq	t5,t4,22f4 <sltiu_test+0x80>
    22f0:	f29fd06f          	j	218 <fail>
    22f4:	ffffe097          	auipc	ra,0xffffe
    22f8:	f14080e7          	jalr	-236(ra) # 208 <update_test>
    22fc:	00000093          	li	ra,0
    2300:	8000bf13          	sltiu	t5,ra,-2048
    2304:	00100e93          	li	t4,1
    2308:	00600193          	li	gp,6
    230c:	01df0463          	beq	t5,t4,2314 <sltiu_test+0xa0>
    2310:	f09fd06f          	j	218 <fail>
    2314:	ffffe097          	auipc	ra,0xffffe
    2318:	ef4080e7          	jalr	-268(ra) # 208 <update_test>
    231c:	800000b7          	lui	ra,0x80000
    2320:	0000bf13          	sltiu	t5,ra,0
    2324:	00000e93          	li	t4,0
    2328:	00700193          	li	gp,7
    232c:	01df0463          	beq	t5,t4,2334 <sltiu_test+0xc0>
    2330:	ee9fd06f          	j	218 <fail>
    2334:	ffffe097          	auipc	ra,0xffffe
    2338:	ed4080e7          	jalr	-300(ra) # 208 <update_test>
    233c:	800000b7          	lui	ra,0x80000
    2340:	8000bf13          	sltiu	t5,ra,-2048
    2344:	00100e93          	li	t4,1
    2348:	00800193          	li	gp,8
    234c:	01df0463          	beq	t5,t4,2354 <sltiu_test+0xe0>
    2350:	ec9fd06f          	j	218 <fail>
    2354:	ffffe097          	auipc	ra,0xffffe
    2358:	eb4080e7          	jalr	-332(ra) # 208 <update_test>
    235c:	00000093          	li	ra,0
    2360:	7ff0bf13          	sltiu	t5,ra,2047
    2364:	00100e93          	li	t4,1
    2368:	00900193          	li	gp,9
    236c:	01df0463          	beq	t5,t4,2374 <sltiu_test+0x100>
    2370:	ea9fd06f          	j	218 <fail>
    2374:	ffffe097          	auipc	ra,0xffffe
    2378:	e94080e7          	jalr	-364(ra) # 208 <update_test>
    237c:	800000b7          	lui	ra,0x80000
    2380:	fff08093          	addi	ra,ra,-1 # 7fffffff <SSEG+0x6ef3ffff>
    2384:	0000bf13          	sltiu	t5,ra,0
    2388:	00000e93          	li	t4,0
    238c:	00a00193          	li	gp,10
    2390:	01df0463          	beq	t5,t4,2398 <sltiu_test+0x124>
    2394:	e85fd06f          	j	218 <fail>
    2398:	ffffe097          	auipc	ra,0xffffe
    239c:	e70080e7          	jalr	-400(ra) # 208 <update_test>
    23a0:	800000b7          	lui	ra,0x80000
    23a4:	fff08093          	addi	ra,ra,-1 # 7fffffff <SSEG+0x6ef3ffff>
    23a8:	7ff0bf13          	sltiu	t5,ra,2047
    23ac:	00000e93          	li	t4,0
    23b0:	00b00193          	li	gp,11
    23b4:	01df0463          	beq	t5,t4,23bc <sltiu_test+0x148>
    23b8:	e61fd06f          	j	218 <fail>
    23bc:	ffffe097          	auipc	ra,0xffffe
    23c0:	e4c080e7          	jalr	-436(ra) # 208 <update_test>
    23c4:	800000b7          	lui	ra,0x80000
    23c8:	7ff0bf13          	sltiu	t5,ra,2047
    23cc:	00000e93          	li	t4,0
    23d0:	00c00193          	li	gp,12
    23d4:	01df0463          	beq	t5,t4,23dc <sltiu_test+0x168>
    23d8:	e41fd06f          	j	218 <fail>
    23dc:	ffffe097          	auipc	ra,0xffffe
    23e0:	e2c080e7          	jalr	-468(ra) # 208 <update_test>
    23e4:	800000b7          	lui	ra,0x80000
    23e8:	fff08093          	addi	ra,ra,-1 # 7fffffff <SSEG+0x6ef3ffff>
    23ec:	8000bf13          	sltiu	t5,ra,-2048
    23f0:	00100e93          	li	t4,1
    23f4:	00d00193          	li	gp,13
    23f8:	01df0463          	beq	t5,t4,2400 <sltiu_test+0x18c>
    23fc:	e1dfd06f          	j	218 <fail>
    2400:	ffffe097          	auipc	ra,0xffffe
    2404:	e08080e7          	jalr	-504(ra) # 208 <update_test>
    2408:	00000093          	li	ra,0
    240c:	fff0bf13          	sltiu	t5,ra,-1
    2410:	00100e93          	li	t4,1
    2414:	00e00193          	li	gp,14
    2418:	01df0463          	beq	t5,t4,2420 <sltiu_test+0x1ac>
    241c:	dfdfd06f          	j	218 <fail>
    2420:	ffffe097          	auipc	ra,0xffffe
    2424:	de8080e7          	jalr	-536(ra) # 208 <update_test>
    2428:	fff00093          	li	ra,-1
    242c:	0010bf13          	seqz	t5,ra
    2430:	00000e93          	li	t4,0
    2434:	00f00193          	li	gp,15
    2438:	01df0463          	beq	t5,t4,2440 <sltiu_test+0x1cc>
    243c:	dddfd06f          	j	218 <fail>
    2440:	ffffe097          	auipc	ra,0xffffe
    2444:	dc8080e7          	jalr	-568(ra) # 208 <update_test>
    2448:	fff00093          	li	ra,-1
    244c:	fff0bf13          	sltiu	t5,ra,-1
    2450:	00000e93          	li	t4,0
    2454:	01000193          	li	gp,16
    2458:	01df0463          	beq	t5,t4,2460 <sltiu_test+0x1ec>
    245c:	dbdfd06f          	j	218 <fail>
    2460:	ffffe097          	auipc	ra,0xffffe
    2464:	da8080e7          	jalr	-600(ra) # 208 <update_test>
    2468:	00b00093          	li	ra,11
    246c:	00d0b093          	sltiu	ra,ra,13
    2470:	00100e93          	li	t4,1
    2474:	01100193          	li	gp,17
    2478:	01d08463          	beq	ra,t4,2480 <sltiu_test+0x20c>
    247c:	d9dfd06f          	j	218 <fail>
    2480:	ffffe097          	auipc	ra,0xffffe
    2484:	d88080e7          	jalr	-632(ra) # 208 <update_test>
    2488:	000f8067          	jr	t6

0000248c <slti_test>:
    248c:	00000513          	li	a0,0
    2490:	00a62023          	sw	a0,0(a2)
    2494:	00000093          	li	ra,0
    2498:	0000af13          	slti	t5,ra,0
    249c:	00000e93          	li	t4,0
    24a0:	00200193          	li	gp,2
    24a4:	01df0463          	beq	t5,t4,24ac <slti_test+0x20>
    24a8:	d71fd06f          	j	218 <fail>
    24ac:	ffffe097          	auipc	ra,0xffffe
    24b0:	d5c080e7          	jalr	-676(ra) # 208 <update_test>
    24b4:	00100093          	li	ra,1
    24b8:	0010af13          	slti	t5,ra,1
    24bc:	00000e93          	li	t4,0
    24c0:	00300193          	li	gp,3
    24c4:	01df0463          	beq	t5,t4,24cc <slti_test+0x40>
    24c8:	d51fd06f          	j	218 <fail>
    24cc:	ffffe097          	auipc	ra,0xffffe
    24d0:	d3c080e7          	jalr	-708(ra) # 208 <update_test>
    24d4:	00300093          	li	ra,3
    24d8:	0070af13          	slti	t5,ra,7
    24dc:	00100e93          	li	t4,1
    24e0:	00400193          	li	gp,4
    24e4:	01df0463          	beq	t5,t4,24ec <slti_test+0x60>
    24e8:	d31fd06f          	j	218 <fail>
    24ec:	ffffe097          	auipc	ra,0xffffe
    24f0:	d1c080e7          	jalr	-740(ra) # 208 <update_test>
    24f4:	00700093          	li	ra,7
    24f8:	0030af13          	slti	t5,ra,3
    24fc:	00000e93          	li	t4,0
    2500:	00500193          	li	gp,5
    2504:	01df0463          	beq	t5,t4,250c <slti_test+0x80>
    2508:	d11fd06f          	j	218 <fail>
    250c:	ffffe097          	auipc	ra,0xffffe
    2510:	cfc080e7          	jalr	-772(ra) # 208 <update_test>
    2514:	00000093          	li	ra,0
    2518:	8000af13          	slti	t5,ra,-2048
    251c:	00000e93          	li	t4,0
    2520:	00600193          	li	gp,6
    2524:	01df0463          	beq	t5,t4,252c <slti_test+0xa0>
    2528:	cf1fd06f          	j	218 <fail>
    252c:	ffffe097          	auipc	ra,0xffffe
    2530:	cdc080e7          	jalr	-804(ra) # 208 <update_test>
    2534:	800000b7          	lui	ra,0x80000
    2538:	0000af13          	slti	t5,ra,0
    253c:	00100e93          	li	t4,1
    2540:	00700193          	li	gp,7
    2544:	01df0463          	beq	t5,t4,254c <slti_test+0xc0>
    2548:	cd1fd06f          	j	218 <fail>
    254c:	ffffe097          	auipc	ra,0xffffe
    2550:	cbc080e7          	jalr	-836(ra) # 208 <update_test>
    2554:	800000b7          	lui	ra,0x80000
    2558:	8000af13          	slti	t5,ra,-2048
    255c:	00100e93          	li	t4,1
    2560:	00800193          	li	gp,8
    2564:	01df0463          	beq	t5,t4,256c <slti_test+0xe0>
    2568:	cb1fd06f          	j	218 <fail>
    256c:	ffffe097          	auipc	ra,0xffffe
    2570:	c9c080e7          	jalr	-868(ra) # 208 <update_test>
    2574:	00000093          	li	ra,0
    2578:	7ff0af13          	slti	t5,ra,2047
    257c:	00100e93          	li	t4,1
    2580:	00900193          	li	gp,9
    2584:	01df0463          	beq	t5,t4,258c <slti_test+0x100>
    2588:	c91fd06f          	j	218 <fail>
    258c:	ffffe097          	auipc	ra,0xffffe
    2590:	c7c080e7          	jalr	-900(ra) # 208 <update_test>
    2594:	800000b7          	lui	ra,0x80000
    2598:	fff08093          	addi	ra,ra,-1 # 7fffffff <SSEG+0x6ef3ffff>
    259c:	0000af13          	slti	t5,ra,0
    25a0:	00000e93          	li	t4,0
    25a4:	00a00193          	li	gp,10
    25a8:	01df0463          	beq	t5,t4,25b0 <slti_test+0x124>
    25ac:	c6dfd06f          	j	218 <fail>
    25b0:	ffffe097          	auipc	ra,0xffffe
    25b4:	c58080e7          	jalr	-936(ra) # 208 <update_test>
    25b8:	800000b7          	lui	ra,0x80000
    25bc:	fff08093          	addi	ra,ra,-1 # 7fffffff <SSEG+0x6ef3ffff>
    25c0:	7ff0af13          	slti	t5,ra,2047
    25c4:	00000e93          	li	t4,0
    25c8:	00b00193          	li	gp,11
    25cc:	01df0463          	beq	t5,t4,25d4 <slti_test+0x148>
    25d0:	c49fd06f          	j	218 <fail>
    25d4:	ffffe097          	auipc	ra,0xffffe
    25d8:	c34080e7          	jalr	-972(ra) # 208 <update_test>
    25dc:	800000b7          	lui	ra,0x80000
    25e0:	7ff0af13          	slti	t5,ra,2047
    25e4:	00100e93          	li	t4,1
    25e8:	00c00193          	li	gp,12
    25ec:	01df0463          	beq	t5,t4,25f4 <slti_test+0x168>
    25f0:	c29fd06f          	j	218 <fail>
    25f4:	ffffe097          	auipc	ra,0xffffe
    25f8:	c14080e7          	jalr	-1004(ra) # 208 <update_test>
    25fc:	800000b7          	lui	ra,0x80000
    2600:	fff08093          	addi	ra,ra,-1 # 7fffffff <SSEG+0x6ef3ffff>
    2604:	8000af13          	slti	t5,ra,-2048
    2608:	00000e93          	li	t4,0
    260c:	00d00193          	li	gp,13
    2610:	01df0463          	beq	t5,t4,2618 <slti_test+0x18c>
    2614:	c05fd06f          	j	218 <fail>
    2618:	ffffe097          	auipc	ra,0xffffe
    261c:	bf0080e7          	jalr	-1040(ra) # 208 <update_test>
    2620:	00000093          	li	ra,0
    2624:	fff0af13          	slti	t5,ra,-1
    2628:	00000e93          	li	t4,0
    262c:	00e00193          	li	gp,14
    2630:	01df0463          	beq	t5,t4,2638 <slti_test+0x1ac>
    2634:	be5fd06f          	j	218 <fail>
    2638:	ffffe097          	auipc	ra,0xffffe
    263c:	bd0080e7          	jalr	-1072(ra) # 208 <update_test>
    2640:	fff00093          	li	ra,-1
    2644:	0010af13          	slti	t5,ra,1
    2648:	00100e93          	li	t4,1
    264c:	00f00193          	li	gp,15
    2650:	01df0463          	beq	t5,t4,2658 <slti_test+0x1cc>
    2654:	bc5fd06f          	j	218 <fail>
    2658:	ffffe097          	auipc	ra,0xffffe
    265c:	bb0080e7          	jalr	-1104(ra) # 208 <update_test>
    2660:	fff00093          	li	ra,-1
    2664:	fff0af13          	slti	t5,ra,-1
    2668:	00000e93          	li	t4,0
    266c:	01000193          	li	gp,16
    2670:	01df0463          	beq	t5,t4,2678 <slti_test+0x1ec>
    2674:	ba5fd06f          	j	218 <fail>
    2678:	ffffe097          	auipc	ra,0xffffe
    267c:	b90080e7          	jalr	-1136(ra) # 208 <update_test>
    2680:	00b00093          	li	ra,11
    2684:	00d0a093          	slti	ra,ra,13
    2688:	00100e93          	li	t4,1
    268c:	01100193          	li	gp,17
    2690:	01d08463          	beq	ra,t4,2698 <slti_test+0x20c>
    2694:	b85fd06f          	j	218 <fail>
    2698:	ffffe097          	auipc	ra,0xffffe
    269c:	b70080e7          	jalr	-1168(ra) # 208 <update_test>
    26a0:	000f8067          	jr	t6

000026a4 <lw_test>:
    26a4:	00000513          	li	a0,0
    26a8:	00a62023          	sw	a0,0(a2)
    26ac:	00002097          	auipc	ra,0x2
    26b0:	87408093          	addi	ra,ra,-1932 # 3f20 <tdat1lw>
    26b4:	0000af03          	lw	t5,0(ra)
    26b8:	00ff0eb7          	lui	t4,0xff0
    26bc:	0ffe8e93          	addi	t4,t4,255 # ff00ff <__sp+0xfe00ff>
    26c0:	00200193          	li	gp,2
    26c4:	01df0463          	beq	t5,t4,26cc <lw_test+0x28>
    26c8:	b51fd06f          	j	218 <fail>
    26cc:	ffffe097          	auipc	ra,0xffffe
    26d0:	b3c080e7          	jalr	-1220(ra) # 208 <update_test>
    26d4:	00002097          	auipc	ra,0x2
    26d8:	84c08093          	addi	ra,ra,-1972 # 3f20 <tdat1lw>
    26dc:	0040af03          	lw	t5,4(ra)
    26e0:	ff010eb7          	lui	t4,0xff010
    26e4:	f00e8e93          	addi	t4,t4,-256 # ff00ff00 <SSEG+0xedf4ff00>
    26e8:	00300193          	li	gp,3
    26ec:	01df0463          	beq	t5,t4,26f4 <lw_test+0x50>
    26f0:	b29fd06f          	j	218 <fail>
    26f4:	ffffe097          	auipc	ra,0xffffe
    26f8:	b14080e7          	jalr	-1260(ra) # 208 <update_test>
    26fc:	00002097          	auipc	ra,0x2
    2700:	82408093          	addi	ra,ra,-2012 # 3f20 <tdat1lw>
    2704:	0080af03          	lw	t5,8(ra)
    2708:	0ff01eb7          	lui	t4,0xff01
    270c:	ff0e8e93          	addi	t4,t4,-16 # ff00ff0 <__sp+0xfef0ff0>
    2710:	00400193          	li	gp,4
    2714:	01df0463          	beq	t5,t4,271c <lw_test+0x78>
    2718:	b01fd06f          	j	218 <fail>
    271c:	ffffe097          	auipc	ra,0xffffe
    2720:	aec080e7          	jalr	-1300(ra) # 208 <update_test>
    2724:	00001097          	auipc	ra,0x1
    2728:	7fc08093          	addi	ra,ra,2044 # 3f20 <tdat1lw>
    272c:	00c0af03          	lw	t5,12(ra)
    2730:	f00ffeb7          	lui	t4,0xf00ff
    2734:	00fe8e93          	addi	t4,t4,15 # f00ff00f <SSEG+0xdf03f00f>
    2738:	00500193          	li	gp,5
    273c:	01df0463          	beq	t5,t4,2744 <lw_test+0xa0>
    2740:	ad9fd06f          	j	218 <fail>
    2744:	ffffe097          	auipc	ra,0xffffe
    2748:	ac4080e7          	jalr	-1340(ra) # 208 <update_test>
    274c:	00001097          	auipc	ra,0x1
    2750:	7e008093          	addi	ra,ra,2016 # 3f2c <tdat4lw>
    2754:	ff40af03          	lw	t5,-12(ra)
    2758:	00ff0eb7          	lui	t4,0xff0
    275c:	0ffe8e93          	addi	t4,t4,255 # ff00ff <__sp+0xfe00ff>
    2760:	00600193          	li	gp,6
    2764:	01df0463          	beq	t5,t4,276c <lw_test+0xc8>
    2768:	ab1fd06f          	j	218 <fail>
    276c:	ffffe097          	auipc	ra,0xffffe
    2770:	a9c080e7          	jalr	-1380(ra) # 208 <update_test>
    2774:	00001097          	auipc	ra,0x1
    2778:	7b808093          	addi	ra,ra,1976 # 3f2c <tdat4lw>
    277c:	ff80af03          	lw	t5,-8(ra)
    2780:	ff010eb7          	lui	t4,0xff010
    2784:	f00e8e93          	addi	t4,t4,-256 # ff00ff00 <SSEG+0xedf4ff00>
    2788:	00700193          	li	gp,7
    278c:	01df0463          	beq	t5,t4,2794 <lw_test+0xf0>
    2790:	a89fd06f          	j	218 <fail>
    2794:	ffffe097          	auipc	ra,0xffffe
    2798:	a74080e7          	jalr	-1420(ra) # 208 <update_test>
    279c:	00001097          	auipc	ra,0x1
    27a0:	79008093          	addi	ra,ra,1936 # 3f2c <tdat4lw>
    27a4:	ffc0af03          	lw	t5,-4(ra)
    27a8:	0ff01eb7          	lui	t4,0xff01
    27ac:	ff0e8e93          	addi	t4,t4,-16 # ff00ff0 <__sp+0xfef0ff0>
    27b0:	00800193          	li	gp,8
    27b4:	01df0463          	beq	t5,t4,27bc <lw_test+0x118>
    27b8:	a61fd06f          	j	218 <fail>
    27bc:	ffffe097          	auipc	ra,0xffffe
    27c0:	a4c080e7          	jalr	-1460(ra) # 208 <update_test>
    27c4:	00001097          	auipc	ra,0x1
    27c8:	76808093          	addi	ra,ra,1896 # 3f2c <tdat4lw>
    27cc:	0000af03          	lw	t5,0(ra)
    27d0:	f00ffeb7          	lui	t4,0xf00ff
    27d4:	00fe8e93          	addi	t4,t4,15 # f00ff00f <SSEG+0xdf03f00f>
    27d8:	00900193          	li	gp,9
    27dc:	01df0463          	beq	t5,t4,27e4 <lw_test+0x140>
    27e0:	a39fd06f          	j	218 <fail>
    27e4:	ffffe097          	auipc	ra,0xffffe
    27e8:	a24080e7          	jalr	-1500(ra) # 208 <update_test>
    27ec:	00001097          	auipc	ra,0x1
    27f0:	73408093          	addi	ra,ra,1844 # 3f20 <tdat1lw>
    27f4:	fe008093          	addi	ra,ra,-32
    27f8:	0200a283          	lw	t0,32(ra)
    27fc:	00ff0eb7          	lui	t4,0xff0
    2800:	0ffe8e93          	addi	t4,t4,255 # ff00ff <__sp+0xfe00ff>
    2804:	00a00193          	li	gp,10
    2808:	01d28463          	beq	t0,t4,2810 <lw_test+0x16c>
    280c:	a0dfd06f          	j	218 <fail>
    2810:	ffffe097          	auipc	ra,0xffffe
    2814:	9f8080e7          	jalr	-1544(ra) # 208 <update_test>
    2818:	000f8067          	jr	t6

0000281c <sw_test>:
    281c:	00000513          	li	a0,0
    2820:	00a62023          	sw	a0,0(a2)
    2824:	00001097          	auipc	ra,0x1
    2828:	70c08093          	addi	ra,ra,1804 # 3f30 <tdat>
    282c:	00aa0137          	lui	sp,0xaa0
    2830:	0aa10113          	addi	sp,sp,170 # aa00aa <__sp+0xa900aa>
    2834:	0020a023          	sw	sp,0(ra)
    2838:	0000af03          	lw	t5,0(ra)
    283c:	00aa0eb7          	lui	t4,0xaa0
    2840:	0aae8e93          	addi	t4,t4,170 # aa00aa <__sp+0xa900aa>
    2844:	00200193          	li	gp,2
    2848:	01df0463          	beq	t5,t4,2850 <sw_test+0x34>
    284c:	9cdfd06f          	j	218 <fail>
    2850:	ffffe097          	auipc	ra,0xffffe
    2854:	9b8080e7          	jalr	-1608(ra) # 208 <update_test>
    2858:	00001097          	auipc	ra,0x1
    285c:	6d808093          	addi	ra,ra,1752 # 3f30 <tdat>
    2860:	aa00b137          	lui	sp,0xaa00b
    2864:	a0010113          	addi	sp,sp,-1536 # aa00aa00 <SSEG+0x98f4aa00>
    2868:	0020a223          	sw	sp,4(ra)
    286c:	0040af03          	lw	t5,4(ra)
    2870:	aa00beb7          	lui	t4,0xaa00b
    2874:	a00e8e93          	addi	t4,t4,-1536 # aa00aa00 <SSEG+0x98f4aa00>
    2878:	00300193          	li	gp,3
    287c:	01df0463          	beq	t5,t4,2884 <sw_test+0x68>
    2880:	999fd06f          	j	218 <fail>
    2884:	ffffe097          	auipc	ra,0xffffe
    2888:	984080e7          	jalr	-1660(ra) # 208 <update_test>
    288c:	00001097          	auipc	ra,0x1
    2890:	6a408093          	addi	ra,ra,1700 # 3f30 <tdat>
    2894:	0aa01137          	lui	sp,0xaa01
    2898:	aa010113          	addi	sp,sp,-1376 # aa00aa0 <__sp+0xa9f0aa0>
    289c:	0020a423          	sw	sp,8(ra)
    28a0:	0080af03          	lw	t5,8(ra)
    28a4:	0aa01eb7          	lui	t4,0xaa01
    28a8:	aa0e8e93          	addi	t4,t4,-1376 # aa00aa0 <__sp+0xa9f0aa0>
    28ac:	00400193          	li	gp,4
    28b0:	01df0463          	beq	t5,t4,28b8 <sw_test+0x9c>
    28b4:	965fd06f          	j	218 <fail>
    28b8:	ffffe097          	auipc	ra,0xffffe
    28bc:	950080e7          	jalr	-1712(ra) # 208 <update_test>
    28c0:	00001097          	auipc	ra,0x1
    28c4:	67008093          	addi	ra,ra,1648 # 3f30 <tdat>
    28c8:	a00aa137          	lui	sp,0xa00aa
    28cc:	00a10113          	addi	sp,sp,10 # a00aa00a <SSEG+0x8efea00a>
    28d0:	0020a623          	sw	sp,12(ra)
    28d4:	00c0af03          	lw	t5,12(ra)
    28d8:	a00aaeb7          	lui	t4,0xa00aa
    28dc:	00ae8e93          	addi	t4,t4,10 # a00aa00a <SSEG+0x8efea00a>
    28e0:	00500193          	li	gp,5
    28e4:	01df0463          	beq	t5,t4,28ec <sw_test+0xd0>
    28e8:	931fd06f          	j	218 <fail>
    28ec:	ffffe097          	auipc	ra,0xffffe
    28f0:	91c080e7          	jalr	-1764(ra) # 208 <update_test>
    28f4:	00001097          	auipc	ra,0x1
    28f8:	65808093          	addi	ra,ra,1624 # 3f4c <tdat8>
    28fc:	00aa0137          	lui	sp,0xaa0
    2900:	0aa10113          	addi	sp,sp,170 # aa00aa <__sp+0xa900aa>
    2904:	fe20aa23          	sw	sp,-12(ra)
    2908:	ff40af03          	lw	t5,-12(ra)
    290c:	00aa0eb7          	lui	t4,0xaa0
    2910:	0aae8e93          	addi	t4,t4,170 # aa00aa <__sp+0xa900aa>
    2914:	00600193          	li	gp,6
    2918:	01df0463          	beq	t5,t4,2920 <sw_test+0x104>
    291c:	8fdfd06f          	j	218 <fail>
    2920:	ffffe097          	auipc	ra,0xffffe
    2924:	8e8080e7          	jalr	-1816(ra) # 208 <update_test>
    2928:	00001097          	auipc	ra,0x1
    292c:	62408093          	addi	ra,ra,1572 # 3f4c <tdat8>
    2930:	aa00b137          	lui	sp,0xaa00b
    2934:	a0010113          	addi	sp,sp,-1536 # aa00aa00 <SSEG+0x98f4aa00>
    2938:	fe20ac23          	sw	sp,-8(ra)
    293c:	ff80af03          	lw	t5,-8(ra)
    2940:	aa00beb7          	lui	t4,0xaa00b
    2944:	a00e8e93          	addi	t4,t4,-1536 # aa00aa00 <SSEG+0x98f4aa00>
    2948:	00700193          	li	gp,7
    294c:	01df0463          	beq	t5,t4,2954 <sw_test+0x138>
    2950:	8c9fd06f          	j	218 <fail>
    2954:	ffffe097          	auipc	ra,0xffffe
    2958:	8b4080e7          	jalr	-1868(ra) # 208 <update_test>
    295c:	00001097          	auipc	ra,0x1
    2960:	5f008093          	addi	ra,ra,1520 # 3f4c <tdat8>
    2964:	0aa01137          	lui	sp,0xaa01
    2968:	aa010113          	addi	sp,sp,-1376 # aa00aa0 <__sp+0xa9f0aa0>
    296c:	fe20ae23          	sw	sp,-4(ra)
    2970:	ffc0af03          	lw	t5,-4(ra)
    2974:	0aa01eb7          	lui	t4,0xaa01
    2978:	aa0e8e93          	addi	t4,t4,-1376 # aa00aa0 <__sp+0xa9f0aa0>
    297c:	00800193          	li	gp,8
    2980:	01df0463          	beq	t5,t4,2988 <sw_test+0x16c>
    2984:	895fd06f          	j	218 <fail>
    2988:	ffffe097          	auipc	ra,0xffffe
    298c:	880080e7          	jalr	-1920(ra) # 208 <update_test>
    2990:	00001097          	auipc	ra,0x1
    2994:	5bc08093          	addi	ra,ra,1468 # 3f4c <tdat8>
    2998:	a00aa137          	lui	sp,0xa00aa
    299c:	00a10113          	addi	sp,sp,10 # a00aa00a <SSEG+0x8efea00a>
    29a0:	0020a023          	sw	sp,0(ra)
    29a4:	0000af03          	lw	t5,0(ra)
    29a8:	a00aaeb7          	lui	t4,0xa00aa
    29ac:	00ae8e93          	addi	t4,t4,10 # a00aa00a <SSEG+0x8efea00a>
    29b0:	00900193          	li	gp,9
    29b4:	01df0463          	beq	t5,t4,29bc <sw_test+0x1a0>
    29b8:	861fd06f          	j	218 <fail>
    29bc:	ffffe097          	auipc	ra,0xffffe
    29c0:	84c080e7          	jalr	-1972(ra) # 208 <update_test>
    29c4:	00001097          	auipc	ra,0x1
    29c8:	58c08093          	addi	ra,ra,1420 # 3f50 <tdat9>
    29cc:	12345137          	lui	sp,0x12345
    29d0:	67810113          	addi	sp,sp,1656 # 12345678 <SSEG+0x1285678>
    29d4:	fe008213          	addi	tp,ra,-32
    29d8:	02222023          	sw	sp,32(tp) # 20 <main+0x8>
    29dc:	0000a283          	lw	t0,0(ra)
    29e0:	12345eb7          	lui	t4,0x12345
    29e4:	678e8e93          	addi	t4,t4,1656 # 12345678 <SSEG+0x1285678>
    29e8:	00a00193          	li	gp,10
    29ec:	01d28463          	beq	t0,t4,29f4 <sw_test+0x1d8>
    29f0:	829fd06f          	j	218 <fail>
    29f4:	ffffe097          	auipc	ra,0xffffe
    29f8:	814080e7          	jalr	-2028(ra) # 208 <update_test>
    29fc:	000f8067          	jr	t6

00002a00 <beq_test>:
    2a00:	00000513          	li	a0,0
    2a04:	00a62023          	sw	a0,0(a2)
    2a08:	00200193          	li	gp,2
    2a0c:	00000093          	li	ra,0
    2a10:	00000113          	li	sp,0
    2a14:	00208863          	beq	ra,sp,2a24 <beq_test+0x24>
    2a18:	00300463          	beq	zero,gp,2a20 <beq_test+0x20>
    2a1c:	ffcfd06f          	j	218 <fail>
    2a20:	00301863          	bne	zero,gp,2a30 <beq_test+0x30>
    2a24:	fe208ee3          	beq	ra,sp,2a20 <beq_test+0x20>
    2a28:	00300463          	beq	zero,gp,2a30 <beq_test+0x30>
    2a2c:	fecfd06f          	j	218 <fail>
    2a30:	ffffd097          	auipc	ra,0xffffd
    2a34:	7d8080e7          	jalr	2008(ra) # 208 <update_test>
    2a38:	00300193          	li	gp,3
    2a3c:	00100093          	li	ra,1
    2a40:	00100113          	li	sp,1
    2a44:	00208863          	beq	ra,sp,2a54 <beq_test+0x54>
    2a48:	00300463          	beq	zero,gp,2a50 <beq_test+0x50>
    2a4c:	fccfd06f          	j	218 <fail>
    2a50:	00301863          	bne	zero,gp,2a60 <beq_test+0x60>
    2a54:	fe208ee3          	beq	ra,sp,2a50 <beq_test+0x50>
    2a58:	00300463          	beq	zero,gp,2a60 <beq_test+0x60>
    2a5c:	fbcfd06f          	j	218 <fail>
    2a60:	ffffd097          	auipc	ra,0xffffd
    2a64:	7a8080e7          	jalr	1960(ra) # 208 <update_test>
    2a68:	00400193          	li	gp,4
    2a6c:	fff00093          	li	ra,-1
    2a70:	fff00113          	li	sp,-1
    2a74:	00208863          	beq	ra,sp,2a84 <beq_test+0x84>
    2a78:	00300463          	beq	zero,gp,2a80 <beq_test+0x80>
    2a7c:	f9cfd06f          	j	218 <fail>
    2a80:	00301863          	bne	zero,gp,2a90 <beq_test+0x90>
    2a84:	fe208ee3          	beq	ra,sp,2a80 <beq_test+0x80>
    2a88:	00300463          	beq	zero,gp,2a90 <beq_test+0x90>
    2a8c:	f8cfd06f          	j	218 <fail>
    2a90:	ffffd097          	auipc	ra,0xffffd
    2a94:	778080e7          	jalr	1912(ra) # 208 <update_test>
    2a98:	00500193          	li	gp,5
    2a9c:	00000093          	li	ra,0
    2aa0:	00100113          	li	sp,1
    2aa4:	00208463          	beq	ra,sp,2aac <beq_test+0xac>
    2aa8:	00301663          	bne	zero,gp,2ab4 <beq_test+0xb4>
    2aac:	00300463          	beq	zero,gp,2ab4 <beq_test+0xb4>
    2ab0:	f68fd06f          	j	218 <fail>
    2ab4:	fe208ce3          	beq	ra,sp,2aac <beq_test+0xac>
    2ab8:	ffffd097          	auipc	ra,0xffffd
    2abc:	750080e7          	jalr	1872(ra) # 208 <update_test>
    2ac0:	00600193          	li	gp,6
    2ac4:	00100093          	li	ra,1
    2ac8:	00000113          	li	sp,0
    2acc:	00208463          	beq	ra,sp,2ad4 <beq_test+0xd4>
    2ad0:	00301663          	bne	zero,gp,2adc <beq_test+0xdc>
    2ad4:	00300463          	beq	zero,gp,2adc <beq_test+0xdc>
    2ad8:	f40fd06f          	j	218 <fail>
    2adc:	fe208ce3          	beq	ra,sp,2ad4 <beq_test+0xd4>
    2ae0:	ffffd097          	auipc	ra,0xffffd
    2ae4:	728080e7          	jalr	1832(ra) # 208 <update_test>
    2ae8:	00700193          	li	gp,7
    2aec:	fff00093          	li	ra,-1
    2af0:	00100113          	li	sp,1
    2af4:	00208463          	beq	ra,sp,2afc <beq_test+0xfc>
    2af8:	00301663          	bne	zero,gp,2b04 <beq_test+0x104>
    2afc:	00300463          	beq	zero,gp,2b04 <beq_test+0x104>
    2b00:	f18fd06f          	j	218 <fail>
    2b04:	fe208ce3          	beq	ra,sp,2afc <beq_test+0xfc>
    2b08:	ffffd097          	auipc	ra,0xffffd
    2b0c:	700080e7          	jalr	1792(ra) # 208 <update_test>
    2b10:	00800193          	li	gp,8
    2b14:	00100093          	li	ra,1
    2b18:	fff00113          	li	sp,-1
    2b1c:	00208463          	beq	ra,sp,2b24 <beq_test+0x124>
    2b20:	00301663          	bne	zero,gp,2b2c <beq_test+0x12c>
    2b24:	00300463          	beq	zero,gp,2b2c <beq_test+0x12c>
    2b28:	ef0fd06f          	j	218 <fail>
    2b2c:	fe208ce3          	beq	ra,sp,2b24 <beq_test+0x124>
    2b30:	ffffd097          	auipc	ra,0xffffd
    2b34:	6d8080e7          	jalr	1752(ra) # 208 <update_test>
    2b38:	000f8067          	jr	t6

00002b3c <bne_test>:
    2b3c:	00000513          	li	a0,0
    2b40:	00a62023          	sw	a0,0(a2)
    2b44:	00200193          	li	gp,2
    2b48:	00000093          	li	ra,0
    2b4c:	00100113          	li	sp,1
    2b50:	00209863          	bne	ra,sp,2b60 <bne_test+0x24>
    2b54:	00300463          	beq	zero,gp,2b5c <bne_test+0x20>
    2b58:	ec0fd06f          	j	218 <fail>
    2b5c:	00301863          	bne	zero,gp,2b6c <bne_test+0x30>
    2b60:	fe209ee3          	bne	ra,sp,2b5c <bne_test+0x20>
    2b64:	00300463          	beq	zero,gp,2b6c <bne_test+0x30>
    2b68:	eb0fd06f          	j	218 <fail>
    2b6c:	ffffd097          	auipc	ra,0xffffd
    2b70:	69c080e7          	jalr	1692(ra) # 208 <update_test>
    2b74:	00300193          	li	gp,3
    2b78:	00100093          	li	ra,1
    2b7c:	00000113          	li	sp,0
    2b80:	00209863          	bne	ra,sp,2b90 <bne_test+0x54>
    2b84:	00300463          	beq	zero,gp,2b8c <bne_test+0x50>
    2b88:	e90fd06f          	j	218 <fail>
    2b8c:	00301863          	bne	zero,gp,2b9c <bne_test+0x60>
    2b90:	fe209ee3          	bne	ra,sp,2b8c <bne_test+0x50>
    2b94:	00300463          	beq	zero,gp,2b9c <bne_test+0x60>
    2b98:	e80fd06f          	j	218 <fail>
    2b9c:	ffffd097          	auipc	ra,0xffffd
    2ba0:	66c080e7          	jalr	1644(ra) # 208 <update_test>
    2ba4:	00400193          	li	gp,4
    2ba8:	fff00093          	li	ra,-1
    2bac:	00100113          	li	sp,1
    2bb0:	00209863          	bne	ra,sp,2bc0 <bne_test+0x84>
    2bb4:	00300463          	beq	zero,gp,2bbc <bne_test+0x80>
    2bb8:	e60fd06f          	j	218 <fail>
    2bbc:	00301863          	bne	zero,gp,2bcc <bne_test+0x90>
    2bc0:	fe209ee3          	bne	ra,sp,2bbc <bne_test+0x80>
    2bc4:	00300463          	beq	zero,gp,2bcc <bne_test+0x90>
    2bc8:	e50fd06f          	j	218 <fail>
    2bcc:	ffffd097          	auipc	ra,0xffffd
    2bd0:	63c080e7          	jalr	1596(ra) # 208 <update_test>
    2bd4:	00500193          	li	gp,5
    2bd8:	00100093          	li	ra,1
    2bdc:	fff00113          	li	sp,-1
    2be0:	00209863          	bne	ra,sp,2bf0 <bne_test+0xb4>
    2be4:	00300463          	beq	zero,gp,2bec <bne_test+0xb0>
    2be8:	e30fd06f          	j	218 <fail>
    2bec:	00301863          	bne	zero,gp,2bfc <bne_test+0xc0>
    2bf0:	fe209ee3          	bne	ra,sp,2bec <bne_test+0xb0>
    2bf4:	00300463          	beq	zero,gp,2bfc <bne_test+0xc0>
    2bf8:	e20fd06f          	j	218 <fail>
    2bfc:	ffffd097          	auipc	ra,0xffffd
    2c00:	60c080e7          	jalr	1548(ra) # 208 <update_test>
    2c04:	00600193          	li	gp,6
    2c08:	00000093          	li	ra,0
    2c0c:	00000113          	li	sp,0
    2c10:	00209463          	bne	ra,sp,2c18 <bne_test+0xdc>
    2c14:	00301663          	bne	zero,gp,2c20 <bne_test+0xe4>
    2c18:	00300463          	beq	zero,gp,2c20 <bne_test+0xe4>
    2c1c:	dfcfd06f          	j	218 <fail>
    2c20:	fe209ce3          	bne	ra,sp,2c18 <bne_test+0xdc>
    2c24:	ffffd097          	auipc	ra,0xffffd
    2c28:	5e4080e7          	jalr	1508(ra) # 208 <update_test>
    2c2c:	00700193          	li	gp,7
    2c30:	00100093          	li	ra,1
    2c34:	00100113          	li	sp,1
    2c38:	00209463          	bne	ra,sp,2c40 <bne_test+0x104>
    2c3c:	00301663          	bne	zero,gp,2c48 <bne_test+0x10c>
    2c40:	00300463          	beq	zero,gp,2c48 <bne_test+0x10c>
    2c44:	dd4fd06f          	j	218 <fail>
    2c48:	fe209ce3          	bne	ra,sp,2c40 <bne_test+0x104>
    2c4c:	ffffd097          	auipc	ra,0xffffd
    2c50:	5bc080e7          	jalr	1468(ra) # 208 <update_test>
    2c54:	00800193          	li	gp,8
    2c58:	fff00093          	li	ra,-1
    2c5c:	fff00113          	li	sp,-1
    2c60:	00209463          	bne	ra,sp,2c68 <bne_test+0x12c>
    2c64:	00301663          	bne	zero,gp,2c70 <bne_test+0x134>
    2c68:	00300463          	beq	zero,gp,2c70 <bne_test+0x134>
    2c6c:	dacfd06f          	j	218 <fail>
    2c70:	fe209ce3          	bne	ra,sp,2c68 <bne_test+0x12c>
    2c74:	ffffd097          	auipc	ra,0xffffd
    2c78:	594080e7          	jalr	1428(ra) # 208 <update_test>
    2c7c:	000f8067          	jr	t6

00002c80 <blt_test>:
    2c80:	00000513          	li	a0,0
    2c84:	00a62023          	sw	a0,0(a2)
    2c88:	00200193          	li	gp,2
    2c8c:	00000093          	li	ra,0
    2c90:	00100113          	li	sp,1
    2c94:	0020c863          	blt	ra,sp,2ca4 <blt_test+0x24>
    2c98:	00300463          	beq	zero,gp,2ca0 <blt_test+0x20>
    2c9c:	d7cfd06f          	j	218 <fail>
    2ca0:	00301863          	bne	zero,gp,2cb0 <blt_test+0x30>
    2ca4:	fe20cee3          	blt	ra,sp,2ca0 <blt_test+0x20>
    2ca8:	00300463          	beq	zero,gp,2cb0 <blt_test+0x30>
    2cac:	d6cfd06f          	j	218 <fail>
    2cb0:	ffffd097          	auipc	ra,0xffffd
    2cb4:	558080e7          	jalr	1368(ra) # 208 <update_test>
    2cb8:	00300193          	li	gp,3
    2cbc:	fff00093          	li	ra,-1
    2cc0:	00100113          	li	sp,1
    2cc4:	0020c863          	blt	ra,sp,2cd4 <blt_test+0x54>
    2cc8:	00300463          	beq	zero,gp,2cd0 <blt_test+0x50>
    2ccc:	d4cfd06f          	j	218 <fail>
    2cd0:	00301863          	bne	zero,gp,2ce0 <blt_test+0x60>
    2cd4:	fe20cee3          	blt	ra,sp,2cd0 <blt_test+0x50>
    2cd8:	00300463          	beq	zero,gp,2ce0 <blt_test+0x60>
    2cdc:	d3cfd06f          	j	218 <fail>
    2ce0:	ffffd097          	auipc	ra,0xffffd
    2ce4:	528080e7          	jalr	1320(ra) # 208 <update_test>
    2ce8:	00400193          	li	gp,4
    2cec:	ffe00093          	li	ra,-2
    2cf0:	fff00113          	li	sp,-1
    2cf4:	0020c863          	blt	ra,sp,2d04 <blt_test+0x84>
    2cf8:	00300463          	beq	zero,gp,2d00 <blt_test+0x80>
    2cfc:	d1cfd06f          	j	218 <fail>
    2d00:	00301863          	bne	zero,gp,2d10 <blt_test+0x90>
    2d04:	fe20cee3          	blt	ra,sp,2d00 <blt_test+0x80>
    2d08:	00300463          	beq	zero,gp,2d10 <blt_test+0x90>
    2d0c:	d0cfd06f          	j	218 <fail>
    2d10:	ffffd097          	auipc	ra,0xffffd
    2d14:	4f8080e7          	jalr	1272(ra) # 208 <update_test>
    2d18:	00500193          	li	gp,5
    2d1c:	00100093          	li	ra,1
    2d20:	00000113          	li	sp,0
    2d24:	0020c463          	blt	ra,sp,2d2c <blt_test+0xac>
    2d28:	00301663          	bne	zero,gp,2d34 <blt_test+0xb4>
    2d2c:	00300463          	beq	zero,gp,2d34 <blt_test+0xb4>
    2d30:	ce8fd06f          	j	218 <fail>
    2d34:	fe20cce3          	blt	ra,sp,2d2c <blt_test+0xac>
    2d38:	ffffd097          	auipc	ra,0xffffd
    2d3c:	4d0080e7          	jalr	1232(ra) # 208 <update_test>
    2d40:	00600193          	li	gp,6
    2d44:	00100093          	li	ra,1
    2d48:	fff00113          	li	sp,-1
    2d4c:	0020c463          	blt	ra,sp,2d54 <blt_test+0xd4>
    2d50:	00301663          	bne	zero,gp,2d5c <blt_test+0xdc>
    2d54:	00300463          	beq	zero,gp,2d5c <blt_test+0xdc>
    2d58:	cc0fd06f          	j	218 <fail>
    2d5c:	fe20cce3          	blt	ra,sp,2d54 <blt_test+0xd4>
    2d60:	ffffd097          	auipc	ra,0xffffd
    2d64:	4a8080e7          	jalr	1192(ra) # 208 <update_test>
    2d68:	00700193          	li	gp,7
    2d6c:	fff00093          	li	ra,-1
    2d70:	ffe00113          	li	sp,-2
    2d74:	0020c463          	blt	ra,sp,2d7c <blt_test+0xfc>
    2d78:	00301663          	bne	zero,gp,2d84 <blt_test+0x104>
    2d7c:	00300463          	beq	zero,gp,2d84 <blt_test+0x104>
    2d80:	c98fd06f          	j	218 <fail>
    2d84:	fe20cce3          	blt	ra,sp,2d7c <blt_test+0xfc>
    2d88:	ffffd097          	auipc	ra,0xffffd
    2d8c:	480080e7          	jalr	1152(ra) # 208 <update_test>
    2d90:	00800193          	li	gp,8
    2d94:	00100093          	li	ra,1
    2d98:	ffe00113          	li	sp,-2
    2d9c:	0020c463          	blt	ra,sp,2da4 <blt_test+0x124>
    2da0:	00301663          	bne	zero,gp,2dac <blt_test+0x12c>
    2da4:	00300463          	beq	zero,gp,2dac <blt_test+0x12c>
    2da8:	c70fd06f          	j	218 <fail>
    2dac:	fe20cce3          	blt	ra,sp,2da4 <blt_test+0x124>
    2db0:	ffffd097          	auipc	ra,0xffffd
    2db4:	458080e7          	jalr	1112(ra) # 208 <update_test>
    2db8:	000f8067          	jr	t6

00002dbc <bge_test>:
    2dbc:	00000513          	li	a0,0
    2dc0:	00a62023          	sw	a0,0(a2)
    2dc4:	00200193          	li	gp,2
    2dc8:	00000093          	li	ra,0
    2dcc:	00000113          	li	sp,0
    2dd0:	0020d863          	bge	ra,sp,2de0 <bge_test+0x24>
    2dd4:	00300463          	beq	zero,gp,2ddc <bge_test+0x20>
    2dd8:	c40fd06f          	j	218 <fail>
    2ddc:	00301863          	bne	zero,gp,2dec <bge_test+0x30>
    2de0:	fe20dee3          	bge	ra,sp,2ddc <bge_test+0x20>
    2de4:	00300463          	beq	zero,gp,2dec <bge_test+0x30>
    2de8:	c30fd06f          	j	218 <fail>
    2dec:	ffffd097          	auipc	ra,0xffffd
    2df0:	41c080e7          	jalr	1052(ra) # 208 <update_test>
    2df4:	00300193          	li	gp,3
    2df8:	00100093          	li	ra,1
    2dfc:	00100113          	li	sp,1
    2e00:	0020d863          	bge	ra,sp,2e10 <bge_test+0x54>
    2e04:	00300463          	beq	zero,gp,2e0c <bge_test+0x50>
    2e08:	c10fd06f          	j	218 <fail>
    2e0c:	00301863          	bne	zero,gp,2e1c <bge_test+0x60>
    2e10:	fe20dee3          	bge	ra,sp,2e0c <bge_test+0x50>
    2e14:	00300463          	beq	zero,gp,2e1c <bge_test+0x60>
    2e18:	c00fd06f          	j	218 <fail>
    2e1c:	ffffd097          	auipc	ra,0xffffd
    2e20:	3ec080e7          	jalr	1004(ra) # 208 <update_test>
    2e24:	00400193          	li	gp,4
    2e28:	fff00093          	li	ra,-1
    2e2c:	fff00113          	li	sp,-1
    2e30:	0020d863          	bge	ra,sp,2e40 <bge_test+0x84>
    2e34:	00300463          	beq	zero,gp,2e3c <bge_test+0x80>
    2e38:	be0fd06f          	j	218 <fail>
    2e3c:	00301863          	bne	zero,gp,2e4c <bge_test+0x90>
    2e40:	fe20dee3          	bge	ra,sp,2e3c <bge_test+0x80>
    2e44:	00300463          	beq	zero,gp,2e4c <bge_test+0x90>
    2e48:	bd0fd06f          	j	218 <fail>
    2e4c:	ffffd097          	auipc	ra,0xffffd
    2e50:	3bc080e7          	jalr	956(ra) # 208 <update_test>
    2e54:	00500193          	li	gp,5
    2e58:	00100093          	li	ra,1
    2e5c:	00000113          	li	sp,0
    2e60:	0020d863          	bge	ra,sp,2e70 <bge_test+0xb4>
    2e64:	00300463          	beq	zero,gp,2e6c <bge_test+0xb0>
    2e68:	bb0fd06f          	j	218 <fail>
    2e6c:	00301863          	bne	zero,gp,2e7c <bge_test+0xc0>
    2e70:	fe20dee3          	bge	ra,sp,2e6c <bge_test+0xb0>
    2e74:	00300463          	beq	zero,gp,2e7c <bge_test+0xc0>
    2e78:	ba0fd06f          	j	218 <fail>
    2e7c:	ffffd097          	auipc	ra,0xffffd
    2e80:	38c080e7          	jalr	908(ra) # 208 <update_test>
    2e84:	00600193          	li	gp,6
    2e88:	00100093          	li	ra,1
    2e8c:	fff00113          	li	sp,-1
    2e90:	0020d863          	bge	ra,sp,2ea0 <bge_test+0xe4>
    2e94:	00300463          	beq	zero,gp,2e9c <bge_test+0xe0>
    2e98:	b80fd06f          	j	218 <fail>
    2e9c:	00301863          	bne	zero,gp,2eac <bge_test+0xf0>
    2ea0:	fe20dee3          	bge	ra,sp,2e9c <bge_test+0xe0>
    2ea4:	00300463          	beq	zero,gp,2eac <bge_test+0xf0>
    2ea8:	b70fd06f          	j	218 <fail>
    2eac:	ffffd097          	auipc	ra,0xffffd
    2eb0:	35c080e7          	jalr	860(ra) # 208 <update_test>
    2eb4:	00700193          	li	gp,7
    2eb8:	fff00093          	li	ra,-1
    2ebc:	ffe00113          	li	sp,-2
    2ec0:	0020d863          	bge	ra,sp,2ed0 <bge_test+0x114>
    2ec4:	00300463          	beq	zero,gp,2ecc <bge_test+0x110>
    2ec8:	b50fd06f          	j	218 <fail>
    2ecc:	00301863          	bne	zero,gp,2edc <bge_test+0x120>
    2ed0:	fe20dee3          	bge	ra,sp,2ecc <bge_test+0x110>
    2ed4:	00300463          	beq	zero,gp,2edc <bge_test+0x120>
    2ed8:	b40fd06f          	j	218 <fail>
    2edc:	ffffd097          	auipc	ra,0xffffd
    2ee0:	32c080e7          	jalr	812(ra) # 208 <update_test>
    2ee4:	00800193          	li	gp,8
    2ee8:	00000093          	li	ra,0
    2eec:	00100113          	li	sp,1
    2ef0:	0020d463          	bge	ra,sp,2ef8 <bge_test+0x13c>
    2ef4:	00301663          	bne	zero,gp,2f00 <bge_test+0x144>
    2ef8:	00300463          	beq	zero,gp,2f00 <bge_test+0x144>
    2efc:	b1cfd06f          	j	218 <fail>
    2f00:	fe20dce3          	bge	ra,sp,2ef8 <bge_test+0x13c>
    2f04:	ffffd097          	auipc	ra,0xffffd
    2f08:	304080e7          	jalr	772(ra) # 208 <update_test>
    2f0c:	00900193          	li	gp,9
    2f10:	fff00093          	li	ra,-1
    2f14:	00100113          	li	sp,1
    2f18:	0020d463          	bge	ra,sp,2f20 <bge_test+0x164>
    2f1c:	00301663          	bne	zero,gp,2f28 <bge_test+0x16c>
    2f20:	00300463          	beq	zero,gp,2f28 <bge_test+0x16c>
    2f24:	af4fd06f          	j	218 <fail>
    2f28:	fe20dce3          	bge	ra,sp,2f20 <bge_test+0x164>
    2f2c:	ffffd097          	auipc	ra,0xffffd
    2f30:	2dc080e7          	jalr	732(ra) # 208 <update_test>
    2f34:	00a00193          	li	gp,10
    2f38:	ffe00093          	li	ra,-2
    2f3c:	fff00113          	li	sp,-1
    2f40:	0020d463          	bge	ra,sp,2f48 <bge_test+0x18c>
    2f44:	00301663          	bne	zero,gp,2f50 <bge_test+0x194>
    2f48:	00300463          	beq	zero,gp,2f50 <bge_test+0x194>
    2f4c:	accfd06f          	j	218 <fail>
    2f50:	fe20dce3          	bge	ra,sp,2f48 <bge_test+0x18c>
    2f54:	ffffd097          	auipc	ra,0xffffd
    2f58:	2b4080e7          	jalr	692(ra) # 208 <update_test>
    2f5c:	00b00193          	li	gp,11
    2f60:	ffe00093          	li	ra,-2
    2f64:	00100113          	li	sp,1
    2f68:	0020d463          	bge	ra,sp,2f70 <bge_test+0x1b4>
    2f6c:	00301663          	bne	zero,gp,2f78 <bge_test+0x1bc>
    2f70:	00300463          	beq	zero,gp,2f78 <bge_test+0x1bc>
    2f74:	aa4fd06f          	j	218 <fail>
    2f78:	fe20dce3          	bge	ra,sp,2f70 <bge_test+0x1b4>
    2f7c:	ffffd097          	auipc	ra,0xffffd
    2f80:	28c080e7          	jalr	652(ra) # 208 <update_test>
    2f84:	000f8067          	jr	t6

00002f88 <bltu_test>:
    2f88:	00000513          	li	a0,0
    2f8c:	00a62023          	sw	a0,0(a2)
    2f90:	00200193          	li	gp,2
    2f94:	00000093          	li	ra,0
    2f98:	00100113          	li	sp,1
    2f9c:	0020e863          	bltu	ra,sp,2fac <bltu_test+0x24>
    2fa0:	00300463          	beq	zero,gp,2fa8 <bltu_test+0x20>
    2fa4:	a74fd06f          	j	218 <fail>
    2fa8:	00301863          	bne	zero,gp,2fb8 <bltu_test+0x30>
    2fac:	fe20eee3          	bltu	ra,sp,2fa8 <bltu_test+0x20>
    2fb0:	00300463          	beq	zero,gp,2fb8 <bltu_test+0x30>
    2fb4:	a64fd06f          	j	218 <fail>
    2fb8:	ffffd097          	auipc	ra,0xffffd
    2fbc:	250080e7          	jalr	592(ra) # 208 <update_test>
    2fc0:	00300193          	li	gp,3
    2fc4:	ffe00093          	li	ra,-2
    2fc8:	fff00113          	li	sp,-1
    2fcc:	0020e863          	bltu	ra,sp,2fdc <bltu_test+0x54>
    2fd0:	00300463          	beq	zero,gp,2fd8 <bltu_test+0x50>
    2fd4:	a44fd06f          	j	218 <fail>
    2fd8:	00301863          	bne	zero,gp,2fe8 <bltu_test+0x60>
    2fdc:	fe20eee3          	bltu	ra,sp,2fd8 <bltu_test+0x50>
    2fe0:	00300463          	beq	zero,gp,2fe8 <bltu_test+0x60>
    2fe4:	a34fd06f          	j	218 <fail>
    2fe8:	ffffd097          	auipc	ra,0xffffd
    2fec:	220080e7          	jalr	544(ra) # 208 <update_test>
    2ff0:	00400193          	li	gp,4
    2ff4:	00000093          	li	ra,0
    2ff8:	fff00113          	li	sp,-1
    2ffc:	0020e863          	bltu	ra,sp,300c <bltu_test+0x84>
    3000:	00300463          	beq	zero,gp,3008 <bltu_test+0x80>
    3004:	a14fd06f          	j	218 <fail>
    3008:	00301863          	bne	zero,gp,3018 <bltu_test+0x90>
    300c:	fe20eee3          	bltu	ra,sp,3008 <bltu_test+0x80>
    3010:	00300463          	beq	zero,gp,3018 <bltu_test+0x90>
    3014:	a04fd06f          	j	218 <fail>
    3018:	ffffd097          	auipc	ra,0xffffd
    301c:	1f0080e7          	jalr	496(ra) # 208 <update_test>
    3020:	00500193          	li	gp,5
    3024:	00100093          	li	ra,1
    3028:	00000113          	li	sp,0
    302c:	0020e463          	bltu	ra,sp,3034 <bltu_test+0xac>
    3030:	00301663          	bne	zero,gp,303c <bltu_test+0xb4>
    3034:	00300463          	beq	zero,gp,303c <bltu_test+0xb4>
    3038:	9e0fd06f          	j	218 <fail>
    303c:	fe20ece3          	bltu	ra,sp,3034 <bltu_test+0xac>
    3040:	ffffd097          	auipc	ra,0xffffd
    3044:	1c8080e7          	jalr	456(ra) # 208 <update_test>
    3048:	00600193          	li	gp,6
    304c:	fff00093          	li	ra,-1
    3050:	ffe00113          	li	sp,-2
    3054:	0020e463          	bltu	ra,sp,305c <bltu_test+0xd4>
    3058:	00301663          	bne	zero,gp,3064 <bltu_test+0xdc>
    305c:	00300463          	beq	zero,gp,3064 <bltu_test+0xdc>
    3060:	9b8fd06f          	j	218 <fail>
    3064:	fe20ece3          	bltu	ra,sp,305c <bltu_test+0xd4>
    3068:	ffffd097          	auipc	ra,0xffffd
    306c:	1a0080e7          	jalr	416(ra) # 208 <update_test>
    3070:	00700193          	li	gp,7
    3074:	fff00093          	li	ra,-1
    3078:	00000113          	li	sp,0
    307c:	0020e463          	bltu	ra,sp,3084 <bltu_test+0xfc>
    3080:	00301663          	bne	zero,gp,308c <bltu_test+0x104>
    3084:	00300463          	beq	zero,gp,308c <bltu_test+0x104>
    3088:	990fd06f          	j	218 <fail>
    308c:	fe20ece3          	bltu	ra,sp,3084 <bltu_test+0xfc>
    3090:	ffffd097          	auipc	ra,0xffffd
    3094:	178080e7          	jalr	376(ra) # 208 <update_test>
    3098:	00800193          	li	gp,8
    309c:	800000b7          	lui	ra,0x80000
    30a0:	80000137          	lui	sp,0x80000
    30a4:	fff10113          	addi	sp,sp,-1 # 7fffffff <SSEG+0x6ef3ffff>
    30a8:	0020e463          	bltu	ra,sp,30b0 <bltu_test+0x128>
    30ac:	00301663          	bne	zero,gp,30b8 <bltu_test+0x130>
    30b0:	00300463          	beq	zero,gp,30b8 <bltu_test+0x130>
    30b4:	964fd06f          	j	218 <fail>
    30b8:	fe20ece3          	bltu	ra,sp,30b0 <bltu_test+0x128>
    30bc:	ffffd097          	auipc	ra,0xffffd
    30c0:	14c080e7          	jalr	332(ra) # 208 <update_test>
    30c4:	000f8067          	jr	t6

000030c8 <bgeu_test>:
    30c8:	00000513          	li	a0,0
    30cc:	00a62023          	sw	a0,0(a2)
    30d0:	00200193          	li	gp,2
    30d4:	00000093          	li	ra,0
    30d8:	00000113          	li	sp,0
    30dc:	0020f863          	bgeu	ra,sp,30ec <bgeu_test+0x24>
    30e0:	00300463          	beq	zero,gp,30e8 <bgeu_test+0x20>
    30e4:	934fd06f          	j	218 <fail>
    30e8:	00301863          	bne	zero,gp,30f8 <bgeu_test+0x30>
    30ec:	fe20fee3          	bgeu	ra,sp,30e8 <bgeu_test+0x20>
    30f0:	00300463          	beq	zero,gp,30f8 <bgeu_test+0x30>
    30f4:	924fd06f          	j	218 <fail>
    30f8:	ffffd097          	auipc	ra,0xffffd
    30fc:	110080e7          	jalr	272(ra) # 208 <update_test>
    3100:	00300193          	li	gp,3
    3104:	00100093          	li	ra,1
    3108:	00100113          	li	sp,1
    310c:	0020f863          	bgeu	ra,sp,311c <bgeu_test+0x54>
    3110:	00300463          	beq	zero,gp,3118 <bgeu_test+0x50>
    3114:	904fd06f          	j	218 <fail>
    3118:	00301863          	bne	zero,gp,3128 <bgeu_test+0x60>
    311c:	fe20fee3          	bgeu	ra,sp,3118 <bgeu_test+0x50>
    3120:	00300463          	beq	zero,gp,3128 <bgeu_test+0x60>
    3124:	8f4fd06f          	j	218 <fail>
    3128:	ffffd097          	auipc	ra,0xffffd
    312c:	0e0080e7          	jalr	224(ra) # 208 <update_test>
    3130:	00400193          	li	gp,4
    3134:	fff00093          	li	ra,-1
    3138:	fff00113          	li	sp,-1
    313c:	0020f863          	bgeu	ra,sp,314c <bgeu_test+0x84>
    3140:	00300463          	beq	zero,gp,3148 <bgeu_test+0x80>
    3144:	8d4fd06f          	j	218 <fail>
    3148:	00301863          	bne	zero,gp,3158 <bgeu_test+0x90>
    314c:	fe20fee3          	bgeu	ra,sp,3148 <bgeu_test+0x80>
    3150:	00300463          	beq	zero,gp,3158 <bgeu_test+0x90>
    3154:	8c4fd06f          	j	218 <fail>
    3158:	ffffd097          	auipc	ra,0xffffd
    315c:	0b0080e7          	jalr	176(ra) # 208 <update_test>
    3160:	00500193          	li	gp,5
    3164:	00100093          	li	ra,1
    3168:	00000113          	li	sp,0
    316c:	0020f863          	bgeu	ra,sp,317c <bgeu_test+0xb4>
    3170:	00300463          	beq	zero,gp,3178 <bgeu_test+0xb0>
    3174:	8a4fd06f          	j	218 <fail>
    3178:	00301863          	bne	zero,gp,3188 <bgeu_test+0xc0>
    317c:	fe20fee3          	bgeu	ra,sp,3178 <bgeu_test+0xb0>
    3180:	00300463          	beq	zero,gp,3188 <bgeu_test+0xc0>
    3184:	894fd06f          	j	218 <fail>
    3188:	ffffd097          	auipc	ra,0xffffd
    318c:	080080e7          	jalr	128(ra) # 208 <update_test>
    3190:	00600193          	li	gp,6
    3194:	fff00093          	li	ra,-1
    3198:	ffe00113          	li	sp,-2
    319c:	0020f863          	bgeu	ra,sp,31ac <bgeu_test+0xe4>
    31a0:	00300463          	beq	zero,gp,31a8 <bgeu_test+0xe0>
    31a4:	874fd06f          	j	218 <fail>
    31a8:	00301863          	bne	zero,gp,31b8 <bgeu_test+0xf0>
    31ac:	fe20fee3          	bgeu	ra,sp,31a8 <bgeu_test+0xe0>
    31b0:	00300463          	beq	zero,gp,31b8 <bgeu_test+0xf0>
    31b4:	864fd06f          	j	218 <fail>
    31b8:	ffffd097          	auipc	ra,0xffffd
    31bc:	050080e7          	jalr	80(ra) # 208 <update_test>
    31c0:	00700193          	li	gp,7
    31c4:	fff00093          	li	ra,-1
    31c8:	00000113          	li	sp,0
    31cc:	0020f863          	bgeu	ra,sp,31dc <bgeu_test+0x114>
    31d0:	00300463          	beq	zero,gp,31d8 <bgeu_test+0x110>
    31d4:	844fd06f          	j	218 <fail>
    31d8:	00301863          	bne	zero,gp,31e8 <bgeu_test+0x120>
    31dc:	fe20fee3          	bgeu	ra,sp,31d8 <bgeu_test+0x110>
    31e0:	00300463          	beq	zero,gp,31e8 <bgeu_test+0x120>
    31e4:	834fd06f          	j	218 <fail>
    31e8:	ffffd097          	auipc	ra,0xffffd
    31ec:	020080e7          	jalr	32(ra) # 208 <update_test>
    31f0:	00800193          	li	gp,8
    31f4:	00000093          	li	ra,0
    31f8:	00100113          	li	sp,1
    31fc:	0020f463          	bgeu	ra,sp,3204 <bgeu_test+0x13c>
    3200:	00301663          	bne	zero,gp,320c <bgeu_test+0x144>
    3204:	00300463          	beq	zero,gp,320c <bgeu_test+0x144>
    3208:	810fd06f          	j	218 <fail>
    320c:	fe20fce3          	bgeu	ra,sp,3204 <bgeu_test+0x13c>
    3210:	ffffd097          	auipc	ra,0xffffd
    3214:	ff8080e7          	jalr	-8(ra) # 208 <update_test>
    3218:	00900193          	li	gp,9
    321c:	ffe00093          	li	ra,-2
    3220:	fff00113          	li	sp,-1
    3224:	0020f463          	bgeu	ra,sp,322c <bgeu_test+0x164>
    3228:	00301663          	bne	zero,gp,3234 <bgeu_test+0x16c>
    322c:	00300463          	beq	zero,gp,3234 <bgeu_test+0x16c>
    3230:	fe9fc06f          	j	218 <fail>
    3234:	fe20fce3          	bgeu	ra,sp,322c <bgeu_test+0x164>
    3238:	ffffd097          	auipc	ra,0xffffd
    323c:	fd0080e7          	jalr	-48(ra) # 208 <update_test>
    3240:	00a00193          	li	gp,10
    3244:	00000093          	li	ra,0
    3248:	fff00113          	li	sp,-1
    324c:	0020f463          	bgeu	ra,sp,3254 <bgeu_test+0x18c>
    3250:	00301663          	bne	zero,gp,325c <bgeu_test+0x194>
    3254:	00300463          	beq	zero,gp,325c <bgeu_test+0x194>
    3258:	fc1fc06f          	j	218 <fail>
    325c:	fe20fce3          	bgeu	ra,sp,3254 <bgeu_test+0x18c>
    3260:	ffffd097          	auipc	ra,0xffffd
    3264:	fa8080e7          	jalr	-88(ra) # 208 <update_test>
    3268:	00b00193          	li	gp,11
    326c:	800000b7          	lui	ra,0x80000
    3270:	fff08093          	addi	ra,ra,-1 # 7fffffff <SSEG+0x6ef3ffff>
    3274:	80000137          	lui	sp,0x80000
    3278:	0020f463          	bgeu	ra,sp,3280 <bgeu_test+0x1b8>
    327c:	00301663          	bne	zero,gp,3288 <bgeu_test+0x1c0>
    3280:	00300463          	beq	zero,gp,3288 <bgeu_test+0x1c0>
    3284:	f95fc06f          	j	218 <fail>
    3288:	fe20fce3          	bgeu	ra,sp,3280 <bgeu_test+0x1b8>
    328c:	ffffd097          	auipc	ra,0xffffd
    3290:	f7c080e7          	jalr	-132(ra) # 208 <update_test>
    3294:	000f8067          	jr	t6

00003298 <auipc_test>:
    3298:	00000513          	li	a0,0
    329c:	00a62023          	sw	a0,0(a2)
    32a0:	00002e17          	auipc	t3,0x2
    32a4:	71ce0e13          	addi	t3,t3,1820 # 59bc <__global_pointer$+0x12a8>
    32a8:	00400def          	jal	s11,32ac <auipc_test+0x14>
    32ac:	41be0e33          	sub	t3,t3,s11
    32b0:	00002eb7          	lui	t4,0x2
    32b4:	710e8e93          	addi	t4,t4,1808 # 2710 <lw_test+0x6c>
    32b8:	00200193          	li	gp,2
    32bc:	01de0463          	beq	t3,t4,32c4 <auipc_test+0x2c>
    32c0:	f59fc06f          	j	218 <fail>
    32c4:	ffffd097          	auipc	ra,0xffffd
    32c8:	f44080e7          	jalr	-188(ra) # 208 <update_test>
    32cc:	00000013          	nop
    32d0:	ffffee17          	auipc	t3,0xffffe
    32d4:	8fce0e13          	addi	t3,t3,-1796 # bcc <sll_test+0x178>
    32d8:	00400def          	jal	s11,32dc <auipc_test+0x44>
    32dc:	41be0e33          	sub	t3,t3,s11
    32e0:	ffffeeb7          	lui	t4,0xffffe
    32e4:	8f0e8e93          	addi	t4,t4,-1808 # ffffd8f0 <SSEG+0xeef3d8f0>
    32e8:	00300193          	li	gp,3
    32ec:	01de0463          	beq	t3,t4,32f4 <auipc_test+0x5c>
    32f0:	f29fc06f          	j	218 <fail>
    32f4:	ffffd097          	auipc	ra,0xffffd
    32f8:	f14080e7          	jalr	-236(ra) # 208 <update_test>
    32fc:	000f8067          	jr	t6

00003300 <lui_test>:
    3300:	00000513          	li	a0,0
    3304:	00a62023          	sw	a0,0(a2)
    3308:	000000b7          	lui	ra,0x0
    330c:	00000e93          	li	t4,0
    3310:	00200193          	li	gp,2
    3314:	01d08463          	beq	ra,t4,331c <lui_test+0x1c>
    3318:	f01fc06f          	j	218 <fail>
    331c:	ffffd097          	auipc	ra,0xffffd
    3320:	eec080e7          	jalr	-276(ra) # 208 <update_test>
    3324:	fffff0b7          	lui	ra,0xfffff
    3328:	4010d093          	srai	ra,ra,0x1
    332c:	80000e93          	li	t4,-2048
    3330:	00300193          	li	gp,3
    3334:	01d08463          	beq	ra,t4,333c <lui_test+0x3c>
    3338:	ee1fc06f          	j	218 <fail>
    333c:	ffffd097          	auipc	ra,0xffffd
    3340:	ecc080e7          	jalr	-308(ra) # 208 <update_test>
    3344:	7ffff0b7          	lui	ra,0x7ffff
    3348:	4140d093          	srai	ra,ra,0x14
    334c:	7ff00e93          	li	t4,2047
    3350:	00400193          	li	gp,4
    3354:	01d08463          	beq	ra,t4,335c <lui_test+0x5c>
    3358:	ec1fc06f          	j	218 <fail>
    335c:	ffffd097          	auipc	ra,0xffffd
    3360:	eac080e7          	jalr	-340(ra) # 208 <update_test>
    3364:	800000b7          	lui	ra,0x80000
    3368:	4140d093          	srai	ra,ra,0x14
    336c:	80000e93          	li	t4,-2048
    3370:	00500193          	li	gp,5
    3374:	01d08463          	beq	ra,t4,337c <lui_test+0x7c>
    3378:	ea1fc06f          	j	218 <fail>
    337c:	ffffd097          	auipc	ra,0xffffd
    3380:	e8c080e7          	jalr	-372(ra) # 208 <update_test>
    3384:	80000037          	lui	zero,0x80000
    3388:	00000e93          	li	t4,0
    338c:	00600193          	li	gp,6
    3390:	01d00463          	beq	zero,t4,3398 <lui_test+0x98>
    3394:	e85fc06f          	j	218 <fail>
    3398:	ffffd097          	auipc	ra,0xffffd
    339c:	e70080e7          	jalr	-400(ra) # 208 <update_test>
    33a0:	000f8067          	jr	t6

000033a4 <jal_test>:
    33a4:	00000513          	li	a0,0
    33a8:	00a62023          	sw	a0,0(a2)
    33ac:	00200193          	li	gp,2
    33b0:	00000093          	li	ra,0
    33b4:	0100026f          	jal	tp,33c4 <target_2>

000033b8 <linkaddr_2>:
    33b8:	00000013          	nop
    33bc:	00000013          	nop
    33c0:	e59fc06f          	j	218 <fail>

000033c4 <target_2>:
    33c4:	00000117          	auipc	sp,0x0
    33c8:	ff410113          	addi	sp,sp,-12 # 33b8 <linkaddr_2>
    33cc:	00410463          	beq	sp,tp,33d4 <target_2+0x10>
    33d0:	e49fc06f          	j	218 <fail>
    33d4:	ffffd097          	auipc	ra,0xffffd
    33d8:	e34080e7          	jalr	-460(ra) # 208 <update_test>
    33dc:	00100093          	li	ra,1
    33e0:	0140006f          	j	33f4 <target_2+0x30>
    33e4:	00108093          	addi	ra,ra,1
    33e8:	00108093          	addi	ra,ra,1
    33ec:	00108093          	addi	ra,ra,1
    33f0:	00108093          	addi	ra,ra,1
    33f4:	00108093          	addi	ra,ra,1
    33f8:	00108093          	addi	ra,ra,1
    33fc:	00300e93          	li	t4,3
    3400:	00300193          	li	gp,3
    3404:	01d08463          	beq	ra,t4,340c <target_2+0x48>
    3408:	e11fc06f          	j	218 <fail>
    340c:	ffffd097          	auipc	ra,0xffffd
    3410:	dfc080e7          	jalr	-516(ra) # 208 <update_test>
    3414:	000f8067          	jr	t6

00003418 <jalr_test>:
    3418:	00000513          	li	a0,0
    341c:	00a62023          	sw	a0,0(a2)

00003420 <test_2a>:
    3420:	00200193          	li	gp,2
    3424:	00000293          	li	t0,0
    3428:	00000317          	auipc	t1,0x0
    342c:	01030313          	addi	t1,t1,16 # 3438 <target_2a>
    3430:	000302e7          	jalr	t0,t1

00003434 <linkaddr_2a>:
    3434:	de5fc06f          	j	218 <fail>

00003438 <target_2a>:
    3438:	00000317          	auipc	t1,0x0
    343c:	ffc30313          	addi	t1,t1,-4 # 3434 <linkaddr_2a>
    3440:	00628463          	beq	t0,t1,3448 <target_2a+0x10>
    3444:	dd5fc06f          	j	218 <fail>
    3448:	ffffd097          	auipc	ra,0xffffd
    344c:	dc0080e7          	jalr	-576(ra) # 208 <update_test>
    3450:	00400193          	li	gp,4
    3454:	00000213          	li	tp,0
    3458:	00000317          	auipc	t1,0x0
    345c:	01430313          	addi	t1,t1,20 # 346c <target_2a+0x34>
    3460:	000309e7          	jalr	s3,t1
    3464:	00300463          	beq	zero,gp,346c <target_2a+0x34>
    3468:	db1fc06f          	j	218 <fail>
    346c:	00120213          	addi	tp,tp,1 # 1 <entry+0x1>
    3470:	00200293          	li	t0,2
    3474:	fe5212e3          	bne	tp,t0,3458 <target_2a+0x20>
    3478:	ffffd097          	auipc	ra,0xffffd
    347c:	d90080e7          	jalr	-624(ra) # 208 <update_test>
    3480:	00500193          	li	gp,5
    3484:	00000213          	li	tp,0
    3488:	00000317          	auipc	t1,0x0
    348c:	01830313          	addi	t1,t1,24 # 34a0 <target_2a+0x68>
    3490:	00000013          	nop
    3494:	000309e7          	jalr	s3,t1
    3498:	00300463          	beq	zero,gp,34a0 <target_2a+0x68>
    349c:	d7dfc06f          	j	218 <fail>
    34a0:	00120213          	addi	tp,tp,1 # 1 <entry+0x1>
    34a4:	00200293          	li	t0,2
    34a8:	fe5210e3          	bne	tp,t0,3488 <target_2a+0x50>
    34ac:	ffffd097          	auipc	ra,0xffffd
    34b0:	d5c080e7          	jalr	-676(ra) # 208 <update_test>
    34b4:	00600193          	li	gp,6
    34b8:	00000213          	li	tp,0
    34bc:	00000317          	auipc	t1,0x0
    34c0:	01c30313          	addi	t1,t1,28 # 34d8 <target_2a+0xa0>
    34c4:	00000013          	nop
    34c8:	00000013          	nop
    34cc:	000309e7          	jalr	s3,t1
    34d0:	00300463          	beq	zero,gp,34d8 <target_2a+0xa0>
    34d4:	d45fc06f          	j	218 <fail>
    34d8:	00120213          	addi	tp,tp,1 # 1 <entry+0x1>
    34dc:	00200293          	li	t0,2
    34e0:	fc521ee3          	bne	tp,t0,34bc <target_2a+0x84>
    34e4:	ffffd097          	auipc	ra,0xffffd
    34e8:	d24080e7          	jalr	-732(ra) # 208 <update_test>
    34ec:	000f8067          	jr	t6

000034f0 <lh_test>:
    34f0:	00000513          	li	a0,0
    34f4:	00a62023          	sw	a0,0(a2)
    34f8:	00001097          	auipc	ra,0x1
    34fc:	a5c08093          	addi	ra,ra,-1444 # 3f54 <tdat1lh>
    3500:	00009f03          	lh	t5,0(ra)
    3504:	0ff00e93          	li	t4,255
    3508:	00200193          	li	gp,2
    350c:	01df0463          	beq	t5,t4,3514 <lh_test+0x24>
    3510:	d09fc06f          	j	218 <fail>
    3514:	ffffd097          	auipc	ra,0xffffd
    3518:	cf4080e7          	jalr	-780(ra) # 208 <update_test>
    351c:	00001097          	auipc	ra,0x1
    3520:	a3808093          	addi	ra,ra,-1480 # 3f54 <tdat1lh>
    3524:	00209f03          	lh	t5,2(ra)
    3528:	f0000e93          	li	t4,-256
    352c:	00300193          	li	gp,3
    3530:	01df0463          	beq	t5,t4,3538 <lh_test+0x48>
    3534:	ce5fc06f          	j	218 <fail>
    3538:	ffffd097          	auipc	ra,0xffffd
    353c:	cd0080e7          	jalr	-816(ra) # 208 <update_test>
    3540:	00001097          	auipc	ra,0x1
    3544:	a1408093          	addi	ra,ra,-1516 # 3f54 <tdat1lh>
    3548:	00409f03          	lh	t5,4(ra)
    354c:	00001eb7          	lui	t4,0x1
    3550:	ff0e8e93          	addi	t4,t4,-16 # ff0 <sra_test+0x84>
    3554:	00400193          	li	gp,4
    3558:	01df0463          	beq	t5,t4,3560 <lh_test+0x70>
    355c:	cbdfc06f          	j	218 <fail>
    3560:	ffffd097          	auipc	ra,0xffffd
    3564:	ca8080e7          	jalr	-856(ra) # 208 <update_test>
    3568:	00001097          	auipc	ra,0x1
    356c:	9ec08093          	addi	ra,ra,-1556 # 3f54 <tdat1lh>
    3570:	00609f03          	lh	t5,6(ra)
    3574:	fffffeb7          	lui	t4,0xfffff
    3578:	00fe8e93          	addi	t4,t4,15 # fffff00f <SSEG+0xeef3f00f>
    357c:	00500193          	li	gp,5
    3580:	01df0463          	beq	t5,t4,3588 <lh_test+0x98>
    3584:	c95fc06f          	j	218 <fail>
    3588:	ffffd097          	auipc	ra,0xffffd
    358c:	c80080e7          	jalr	-896(ra) # 208 <update_test>
    3590:	00001097          	auipc	ra,0x1
    3594:	9ca08093          	addi	ra,ra,-1590 # 3f5a <tdat4lh>
    3598:	ffa09f03          	lh	t5,-6(ra)
    359c:	0ff00e93          	li	t4,255
    35a0:	00600193          	li	gp,6
    35a4:	01df0463          	beq	t5,t4,35ac <lh_test+0xbc>
    35a8:	c71fc06f          	j	218 <fail>
    35ac:	ffffd097          	auipc	ra,0xffffd
    35b0:	c5c080e7          	jalr	-932(ra) # 208 <update_test>
    35b4:	00001097          	auipc	ra,0x1
    35b8:	9a608093          	addi	ra,ra,-1626 # 3f5a <tdat4lh>
    35bc:	ffc09f03          	lh	t5,-4(ra)
    35c0:	f0000e93          	li	t4,-256
    35c4:	00700193          	li	gp,7
    35c8:	01df0463          	beq	t5,t4,35d0 <lh_test+0xe0>
    35cc:	c4dfc06f          	j	218 <fail>
    35d0:	ffffd097          	auipc	ra,0xffffd
    35d4:	c38080e7          	jalr	-968(ra) # 208 <update_test>
    35d8:	00001097          	auipc	ra,0x1
    35dc:	98208093          	addi	ra,ra,-1662 # 3f5a <tdat4lh>
    35e0:	ffe09f03          	lh	t5,-2(ra)
    35e4:	00001eb7          	lui	t4,0x1
    35e8:	ff0e8e93          	addi	t4,t4,-16 # ff0 <sra_test+0x84>
    35ec:	00800193          	li	gp,8
    35f0:	01df0463          	beq	t5,t4,35f8 <lh_test+0x108>
    35f4:	c25fc06f          	j	218 <fail>
    35f8:	ffffd097          	auipc	ra,0xffffd
    35fc:	c10080e7          	jalr	-1008(ra) # 208 <update_test>
    3600:	00001097          	auipc	ra,0x1
    3604:	95a08093          	addi	ra,ra,-1702 # 3f5a <tdat4lh>
    3608:	00009f03          	lh	t5,0(ra)
    360c:	fffffeb7          	lui	t4,0xfffff
    3610:	00fe8e93          	addi	t4,t4,15 # fffff00f <SSEG+0xeef3f00f>
    3614:	00900193          	li	gp,9
    3618:	01df0463          	beq	t5,t4,3620 <lh_test+0x130>
    361c:	bfdfc06f          	j	218 <fail>
    3620:	ffffd097          	auipc	ra,0xffffd
    3624:	be8080e7          	jalr	-1048(ra) # 208 <update_test>
    3628:	00001097          	auipc	ra,0x1
    362c:	92c08093          	addi	ra,ra,-1748 # 3f54 <tdat1lh>
    3630:	fe008093          	addi	ra,ra,-32
    3634:	02009283          	lh	t0,32(ra)
    3638:	0ff00e93          	li	t4,255
    363c:	00a00193          	li	gp,10
    3640:	01d28463          	beq	t0,t4,3648 <lh_test+0x158>
    3644:	bd5fc06f          	j	218 <fail>
    3648:	ffffd097          	auipc	ra,0xffffd
    364c:	bc0080e7          	jalr	-1088(ra) # 208 <update_test>
    3650:	00001097          	auipc	ra,0x1
    3654:	90408093          	addi	ra,ra,-1788 # 3f54 <tdat1lh>
    3658:	ffb08093          	addi	ra,ra,-5
    365c:	00709283          	lh	t0,7(ra)
    3660:	f0000e93          	li	t4,-256
    3664:	00b00193          	li	gp,11
    3668:	01d28463          	beq	t0,t4,3670 <lh_test+0x180>
    366c:	badfc06f          	j	218 <fail>
    3670:	ffffd097          	auipc	ra,0xffffd
    3674:	b98080e7          	jalr	-1128(ra) # 208 <update_test>
    3678:	000f8067          	jr	t6

0000367c <lb_test>:
    367c:	00000513          	li	a0,0
    3680:	00a62023          	sw	a0,0(a2)
    3684:	00151513          	slli	a0,a0,0x1
    3688:	00001097          	auipc	ra,0x1
    368c:	8d408093          	addi	ra,ra,-1836 # 3f5c <tdat1lb>
    3690:	00008f03          	lb	t5,0(ra)
    3694:	fff00e93          	li	t4,-1
    3698:	00200193          	li	gp,2
    369c:	01df0463          	beq	t5,t4,36a4 <lb_test+0x28>
    36a0:	b79fc06f          	j	218 <fail>
    36a4:	ffffd097          	auipc	ra,0xffffd
    36a8:	b64080e7          	jalr	-1180(ra) # 208 <update_test>
    36ac:	00001097          	auipc	ra,0x1
    36b0:	8b008093          	addi	ra,ra,-1872 # 3f5c <tdat1lb>
    36b4:	00108f03          	lb	t5,1(ra)
    36b8:	00000e93          	li	t4,0
    36bc:	00300193          	li	gp,3
    36c0:	01df0463          	beq	t5,t4,36c8 <lb_test+0x4c>
    36c4:	b55fc06f          	j	218 <fail>
    36c8:	ffffd097          	auipc	ra,0xffffd
    36cc:	b40080e7          	jalr	-1216(ra) # 208 <update_test>
    36d0:	00001097          	auipc	ra,0x1
    36d4:	88c08093          	addi	ra,ra,-1908 # 3f5c <tdat1lb>
    36d8:	00208f03          	lb	t5,2(ra)
    36dc:	ff000e93          	li	t4,-16
    36e0:	00400193          	li	gp,4
    36e4:	01df0463          	beq	t5,t4,36ec <lb_test+0x70>
    36e8:	b31fc06f          	j	218 <fail>
    36ec:	ffffd097          	auipc	ra,0xffffd
    36f0:	b1c080e7          	jalr	-1252(ra) # 208 <update_test>
    36f4:	00001097          	auipc	ra,0x1
    36f8:	86808093          	addi	ra,ra,-1944 # 3f5c <tdat1lb>
    36fc:	00308f03          	lb	t5,3(ra)
    3700:	00f00e93          	li	t4,15
    3704:	00500193          	li	gp,5
    3708:	01df0463          	beq	t5,t4,3710 <lb_test+0x94>
    370c:	b0dfc06f          	j	218 <fail>
    3710:	ffffd097          	auipc	ra,0xffffd
    3714:	af8080e7          	jalr	-1288(ra) # 208 <update_test>
    3718:	00001097          	auipc	ra,0x1
    371c:	84708093          	addi	ra,ra,-1977 # 3f5f <tdat4lb>
    3720:	ffd08f03          	lb	t5,-3(ra)
    3724:	fff00e93          	li	t4,-1
    3728:	00600193          	li	gp,6
    372c:	01df0463          	beq	t5,t4,3734 <lb_test+0xb8>
    3730:	ae9fc06f          	j	218 <fail>
    3734:	ffffd097          	auipc	ra,0xffffd
    3738:	ad4080e7          	jalr	-1324(ra) # 208 <update_test>
    373c:	00001097          	auipc	ra,0x1
    3740:	82308093          	addi	ra,ra,-2013 # 3f5f <tdat4lb>
    3744:	ffe08f03          	lb	t5,-2(ra)
    3748:	00000e93          	li	t4,0
    374c:	00700193          	li	gp,7
    3750:	01df0463          	beq	t5,t4,3758 <lb_test+0xdc>
    3754:	ac5fc06f          	j	218 <fail>
    3758:	ffffd097          	auipc	ra,0xffffd
    375c:	ab0080e7          	jalr	-1360(ra) # 208 <update_test>
    3760:	00000097          	auipc	ra,0x0
    3764:	7ff08093          	addi	ra,ra,2047 # 3f5f <tdat4lb>
    3768:	fff08f03          	lb	t5,-1(ra)
    376c:	ff000e93          	li	t4,-16
    3770:	00800193          	li	gp,8
    3774:	01df0463          	beq	t5,t4,377c <lb_test+0x100>
    3778:	aa1fc06f          	j	218 <fail>
    377c:	ffffd097          	auipc	ra,0xffffd
    3780:	a8c080e7          	jalr	-1396(ra) # 208 <update_test>
    3784:	00000097          	auipc	ra,0x0
    3788:	7db08093          	addi	ra,ra,2011 # 3f5f <tdat4lb>
    378c:	00008f03          	lb	t5,0(ra)
    3790:	00f00e93          	li	t4,15
    3794:	00900193          	li	gp,9
    3798:	01df0463          	beq	t5,t4,37a0 <lb_test+0x124>
    379c:	a7dfc06f          	j	218 <fail>
    37a0:	ffffd097          	auipc	ra,0xffffd
    37a4:	a68080e7          	jalr	-1432(ra) # 208 <update_test>
    37a8:	00000097          	auipc	ra,0x0
    37ac:	7b408093          	addi	ra,ra,1972 # 3f5c <tdat1lb>
    37b0:	fe008093          	addi	ra,ra,-32
    37b4:	02008283          	lb	t0,32(ra)
    37b8:	fff00e93          	li	t4,-1
    37bc:	00a00193          	li	gp,10
    37c0:	01d28463          	beq	t0,t4,37c8 <lb_test+0x14c>
    37c4:	a55fc06f          	j	218 <fail>
    37c8:	ffffd097          	auipc	ra,0xffffd
    37cc:	a40080e7          	jalr	-1472(ra) # 208 <update_test>
    37d0:	00000097          	auipc	ra,0x0
    37d4:	78c08093          	addi	ra,ra,1932 # 3f5c <tdat1lb>
    37d8:	ffa08093          	addi	ra,ra,-6
    37dc:	00708283          	lb	t0,7(ra)
    37e0:	00000e93          	li	t4,0
    37e4:	00b00193          	li	gp,11
    37e8:	01d28463          	beq	t0,t4,37f0 <lb_test+0x174>
    37ec:	a2dfc06f          	j	218 <fail>
    37f0:	ffffd097          	auipc	ra,0xffffd
    37f4:	a18080e7          	jalr	-1512(ra) # 208 <update_test>
    37f8:	000f8067          	jr	t6

000037fc <lbu_test>:
    37fc:	00000513          	li	a0,0
    3800:	00a62023          	sw	a0,0(a2)
    3804:	00151513          	slli	a0,a0,0x1
    3808:	00000097          	auipc	ra,0x0
    380c:	75408093          	addi	ra,ra,1876 # 3f5c <tdat1lb>
    3810:	0000cf03          	lbu	t5,0(ra)
    3814:	0ff00e93          	li	t4,255
    3818:	00200193          	li	gp,2
    381c:	01df0463          	beq	t5,t4,3824 <lbu_test+0x28>
    3820:	9f9fc06f          	j	218 <fail>
    3824:	ffffd097          	auipc	ra,0xffffd
    3828:	9e4080e7          	jalr	-1564(ra) # 208 <update_test>
    382c:	00000097          	auipc	ra,0x0
    3830:	73008093          	addi	ra,ra,1840 # 3f5c <tdat1lb>
    3834:	0010cf03          	lbu	t5,1(ra)
    3838:	00000e93          	li	t4,0
    383c:	00300193          	li	gp,3
    3840:	01df0463          	beq	t5,t4,3848 <lbu_test+0x4c>
    3844:	9d5fc06f          	j	218 <fail>
    3848:	ffffd097          	auipc	ra,0xffffd
    384c:	9c0080e7          	jalr	-1600(ra) # 208 <update_test>
    3850:	00000097          	auipc	ra,0x0
    3854:	70c08093          	addi	ra,ra,1804 # 3f5c <tdat1lb>
    3858:	0020cf03          	lbu	t5,2(ra)
    385c:	0f000e93          	li	t4,240
    3860:	00400193          	li	gp,4
    3864:	01df0463          	beq	t5,t4,386c <lbu_test+0x70>
    3868:	9b1fc06f          	j	218 <fail>
    386c:	ffffd097          	auipc	ra,0xffffd
    3870:	99c080e7          	jalr	-1636(ra) # 208 <update_test>
    3874:	00000097          	auipc	ra,0x0
    3878:	6e808093          	addi	ra,ra,1768 # 3f5c <tdat1lb>
    387c:	0030cf03          	lbu	t5,3(ra)
    3880:	00f00e93          	li	t4,15
    3884:	00500193          	li	gp,5
    3888:	01df0463          	beq	t5,t4,3890 <lbu_test+0x94>
    388c:	98dfc06f          	j	218 <fail>
    3890:	ffffd097          	auipc	ra,0xffffd
    3894:	978080e7          	jalr	-1672(ra) # 208 <update_test>
    3898:	00000097          	auipc	ra,0x0
    389c:	6c708093          	addi	ra,ra,1735 # 3f5f <tdat4lb>
    38a0:	ffd0cf03          	lbu	t5,-3(ra)
    38a4:	0ff00e93          	li	t4,255
    38a8:	00600193          	li	gp,6
    38ac:	01df0463          	beq	t5,t4,38b4 <lbu_test+0xb8>
    38b0:	969fc06f          	j	218 <fail>
    38b4:	ffffd097          	auipc	ra,0xffffd
    38b8:	954080e7          	jalr	-1708(ra) # 208 <update_test>
    38bc:	00000097          	auipc	ra,0x0
    38c0:	6a308093          	addi	ra,ra,1699 # 3f5f <tdat4lb>
    38c4:	ffe0cf03          	lbu	t5,-2(ra)
    38c8:	00000e93          	li	t4,0
    38cc:	00700193          	li	gp,7
    38d0:	01df0463          	beq	t5,t4,38d8 <lbu_test+0xdc>
    38d4:	945fc06f          	j	218 <fail>
    38d8:	ffffd097          	auipc	ra,0xffffd
    38dc:	930080e7          	jalr	-1744(ra) # 208 <update_test>
    38e0:	00000097          	auipc	ra,0x0
    38e4:	67f08093          	addi	ra,ra,1663 # 3f5f <tdat4lb>
    38e8:	fff0cf03          	lbu	t5,-1(ra)
    38ec:	0f000e93          	li	t4,240
    38f0:	00800193          	li	gp,8
    38f4:	01df0463          	beq	t5,t4,38fc <lbu_test+0x100>
    38f8:	921fc06f          	j	218 <fail>
    38fc:	ffffd097          	auipc	ra,0xffffd
    3900:	90c080e7          	jalr	-1780(ra) # 208 <update_test>
    3904:	00000097          	auipc	ra,0x0
    3908:	65b08093          	addi	ra,ra,1627 # 3f5f <tdat4lb>
    390c:	0000cf03          	lbu	t5,0(ra)
    3910:	00f00e93          	li	t4,15
    3914:	00900193          	li	gp,9
    3918:	01df0463          	beq	t5,t4,3920 <lbu_test+0x124>
    391c:	8fdfc06f          	j	218 <fail>
    3920:	ffffd097          	auipc	ra,0xffffd
    3924:	8e8080e7          	jalr	-1816(ra) # 208 <update_test>
    3928:	00000097          	auipc	ra,0x0
    392c:	63408093          	addi	ra,ra,1588 # 3f5c <tdat1lb>
    3930:	fe008093          	addi	ra,ra,-32
    3934:	0200c283          	lbu	t0,32(ra)
    3938:	0ff00e93          	li	t4,255
    393c:	00a00193          	li	gp,10
    3940:	01d28463          	beq	t0,t4,3948 <lbu_test+0x14c>
    3944:	8d5fc06f          	j	218 <fail>
    3948:	ffffd097          	auipc	ra,0xffffd
    394c:	8c0080e7          	jalr	-1856(ra) # 208 <update_test>
    3950:	00000097          	auipc	ra,0x0
    3954:	60c08093          	addi	ra,ra,1548 # 3f5c <tdat1lb>
    3958:	ffa08093          	addi	ra,ra,-6
    395c:	0070c283          	lbu	t0,7(ra)
    3960:	00000e93          	li	t4,0
    3964:	00b00193          	li	gp,11
    3968:	01d28463          	beq	t0,t4,3970 <lbu_test+0x174>
    396c:	8adfc06f          	j	218 <fail>
    3970:	ffffd097          	auipc	ra,0xffffd
    3974:	898080e7          	jalr	-1896(ra) # 208 <update_test>
    3978:	000f8067          	jr	t6

0000397c <lhu_test>:
    397c:	00000513          	li	a0,0
    3980:	00a62023          	sw	a0,0(a2)
    3984:	00151513          	slli	a0,a0,0x1
    3988:	00000097          	auipc	ra,0x0
    398c:	5cc08093          	addi	ra,ra,1484 # 3f54 <tdat1lh>
    3990:	0000df03          	lhu	t5,0(ra)
    3994:	0ff00e93          	li	t4,255
    3998:	00200193          	li	gp,2
    399c:	01df0463          	beq	t5,t4,39a4 <lhu_test+0x28>
    39a0:	879fc06f          	j	218 <fail>
    39a4:	ffffd097          	auipc	ra,0xffffd
    39a8:	864080e7          	jalr	-1948(ra) # 208 <update_test>
    39ac:	00000097          	auipc	ra,0x0
    39b0:	5a808093          	addi	ra,ra,1448 # 3f54 <tdat1lh>
    39b4:	0020df03          	lhu	t5,2(ra)
    39b8:	00010eb7          	lui	t4,0x10
    39bc:	f00e8e93          	addi	t4,t4,-256 # ff00 <__global_pointer$+0xb7ec>
    39c0:	00300193          	li	gp,3
    39c4:	01df0463          	beq	t5,t4,39cc <lhu_test+0x50>
    39c8:	851fc06f          	j	218 <fail>
    39cc:	ffffd097          	auipc	ra,0xffffd
    39d0:	83c080e7          	jalr	-1988(ra) # 208 <update_test>
    39d4:	00000097          	auipc	ra,0x0
    39d8:	58008093          	addi	ra,ra,1408 # 3f54 <tdat1lh>
    39dc:	0040df03          	lhu	t5,4(ra)
    39e0:	00001eb7          	lui	t4,0x1
    39e4:	ff0e8e93          	addi	t4,t4,-16 # ff0 <sra_test+0x84>
    39e8:	00400193          	li	gp,4
    39ec:	01df0463          	beq	t5,t4,39f4 <lhu_test+0x78>
    39f0:	829fc06f          	j	218 <fail>
    39f4:	ffffd097          	auipc	ra,0xffffd
    39f8:	814080e7          	jalr	-2028(ra) # 208 <update_test>
    39fc:	00000097          	auipc	ra,0x0
    3a00:	55808093          	addi	ra,ra,1368 # 3f54 <tdat1lh>
    3a04:	0060df03          	lhu	t5,6(ra)
    3a08:	0000feb7          	lui	t4,0xf
    3a0c:	00fe8e93          	addi	t4,t4,15 # f00f <__global_pointer$+0xa8fb>
    3a10:	00500193          	li	gp,5
    3a14:	01df0463          	beq	t5,t4,3a1c <lhu_test+0xa0>
    3a18:	801fc06f          	j	218 <fail>
    3a1c:	ffffc097          	auipc	ra,0xffffc
    3a20:	7ec080e7          	jalr	2028(ra) # 208 <update_test>
    3a24:	00000097          	auipc	ra,0x0
    3a28:	53608093          	addi	ra,ra,1334 # 3f5a <tdat4lh>
    3a2c:	ffa0df03          	lhu	t5,-6(ra)
    3a30:	0ff00e93          	li	t4,255
    3a34:	00600193          	li	gp,6
    3a38:	01df0463          	beq	t5,t4,3a40 <lhu_test+0xc4>
    3a3c:	fdcfc06f          	j	218 <fail>
    3a40:	ffffc097          	auipc	ra,0xffffc
    3a44:	7c8080e7          	jalr	1992(ra) # 208 <update_test>
    3a48:	00000097          	auipc	ra,0x0
    3a4c:	51208093          	addi	ra,ra,1298 # 3f5a <tdat4lh>
    3a50:	ffc0df03          	lhu	t5,-4(ra)
    3a54:	00010eb7          	lui	t4,0x10
    3a58:	f00e8e93          	addi	t4,t4,-256 # ff00 <__global_pointer$+0xb7ec>
    3a5c:	00700193          	li	gp,7
    3a60:	01df0463          	beq	t5,t4,3a68 <lhu_test+0xec>
    3a64:	fb4fc06f          	j	218 <fail>
    3a68:	ffffc097          	auipc	ra,0xffffc
    3a6c:	7a0080e7          	jalr	1952(ra) # 208 <update_test>
    3a70:	00000097          	auipc	ra,0x0
    3a74:	4ea08093          	addi	ra,ra,1258 # 3f5a <tdat4lh>
    3a78:	ffe0df03          	lhu	t5,-2(ra)
    3a7c:	00001eb7          	lui	t4,0x1
    3a80:	ff0e8e93          	addi	t4,t4,-16 # ff0 <sra_test+0x84>
    3a84:	00800193          	li	gp,8
    3a88:	01df0463          	beq	t5,t4,3a90 <lhu_test+0x114>
    3a8c:	f8cfc06f          	j	218 <fail>
    3a90:	ffffc097          	auipc	ra,0xffffc
    3a94:	778080e7          	jalr	1912(ra) # 208 <update_test>
    3a98:	00000097          	auipc	ra,0x0
    3a9c:	4c208093          	addi	ra,ra,1218 # 3f5a <tdat4lh>
    3aa0:	0000df03          	lhu	t5,0(ra)
    3aa4:	0000feb7          	lui	t4,0xf
    3aa8:	00fe8e93          	addi	t4,t4,15 # f00f <__global_pointer$+0xa8fb>
    3aac:	00900193          	li	gp,9
    3ab0:	01df0463          	beq	t5,t4,3ab8 <lhu_test+0x13c>
    3ab4:	f64fc06f          	j	218 <fail>
    3ab8:	ffffc097          	auipc	ra,0xffffc
    3abc:	750080e7          	jalr	1872(ra) # 208 <update_test>
    3ac0:	00000097          	auipc	ra,0x0
    3ac4:	49408093          	addi	ra,ra,1172 # 3f54 <tdat1lh>
    3ac8:	fe008093          	addi	ra,ra,-32
    3acc:	0200d283          	lhu	t0,32(ra)
    3ad0:	0ff00e93          	li	t4,255
    3ad4:	00a00193          	li	gp,10
    3ad8:	01d28463          	beq	t0,t4,3ae0 <lhu_test+0x164>
    3adc:	f3cfc06f          	j	218 <fail>
    3ae0:	ffffc097          	auipc	ra,0xffffc
    3ae4:	728080e7          	jalr	1832(ra) # 208 <update_test>
    3ae8:	00000097          	auipc	ra,0x0
    3aec:	46c08093          	addi	ra,ra,1132 # 3f54 <tdat1lh>
    3af0:	ffb08093          	addi	ra,ra,-5
    3af4:	0070d283          	lhu	t0,7(ra)
    3af8:	00010eb7          	lui	t4,0x10
    3afc:	f00e8e93          	addi	t4,t4,-256 # ff00 <__global_pointer$+0xb7ec>
    3b00:	00b00193          	li	gp,11
    3b04:	01d28463          	beq	t0,t4,3b0c <lhu_test+0x190>
    3b08:	f10fc06f          	j	218 <fail>
    3b0c:	ffffc097          	auipc	ra,0xffffc
    3b10:	6fc080e7          	jalr	1788(ra) # 208 <update_test>
    3b14:	000f8067          	jr	t6

00003b18 <sh_test>:
    3b18:	00000513          	li	a0,0
    3b1c:	00a62023          	sw	a0,0(a2)
    3b20:	00151513          	slli	a0,a0,0x1
    3b24:	00000097          	auipc	ra,0x0
    3b28:	44608093          	addi	ra,ra,1094 # 3f6a <tdat1sh>
    3b2c:	0aa00113          	li	sp,170
    3b30:	00209023          	sh	sp,0(ra)
    3b34:	00009f03          	lh	t5,0(ra)
    3b38:	0aa00e93          	li	t4,170
    3b3c:	00200193          	li	gp,2
    3b40:	01df0463          	beq	t5,t4,3b48 <sh_test+0x30>
    3b44:	ed4fc06f          	j	218 <fail>
    3b48:	ffffc097          	auipc	ra,0xffffc
    3b4c:	6c0080e7          	jalr	1728(ra) # 208 <update_test>
    3b50:	00000097          	auipc	ra,0x0
    3b54:	41a08093          	addi	ra,ra,1050 # 3f6a <tdat1sh>
    3b58:	ffffb137          	lui	sp,0xffffb
    3b5c:	a0010113          	addi	sp,sp,-1536 # ffffaa00 <SSEG+0xeef3aa00>
    3b60:	00209123          	sh	sp,2(ra)
    3b64:	00209f03          	lh	t5,2(ra)
    3b68:	ffffbeb7          	lui	t4,0xffffb
    3b6c:	a00e8e93          	addi	t4,t4,-1536 # ffffaa00 <SSEG+0xeef3aa00>
    3b70:	00300193          	li	gp,3
    3b74:	01df0463          	beq	t5,t4,3b7c <sh_test+0x64>
    3b78:	ea0fc06f          	j	218 <fail>
    3b7c:	ffffc097          	auipc	ra,0xffffc
    3b80:	68c080e7          	jalr	1676(ra) # 208 <update_test>
    3b84:	00000097          	auipc	ra,0x0
    3b88:	3e608093          	addi	ra,ra,998 # 3f6a <tdat1sh>
    3b8c:	beef1137          	lui	sp,0xbeef1
    3b90:	aa010113          	addi	sp,sp,-1376 # beef0aa0 <SSEG+0xade30aa0>
    3b94:	00209223          	sh	sp,4(ra)
    3b98:	00409f03          	lh	t5,4(ra)
    3b9c:	00001eb7          	lui	t4,0x1
    3ba0:	aa0e8e93          	addi	t4,t4,-1376 # aa0 <sll_test+0x4c>
    3ba4:	00400193          	li	gp,4
    3ba8:	01df0463          	beq	t5,t4,3bb0 <sh_test+0x98>
    3bac:	e6cfc06f          	j	218 <fail>
    3bb0:	ffffc097          	auipc	ra,0xffffc
    3bb4:	658080e7          	jalr	1624(ra) # 208 <update_test>
    3bb8:	00000097          	auipc	ra,0x0
    3bbc:	3b208093          	addi	ra,ra,946 # 3f6a <tdat1sh>
    3bc0:	ffffa137          	lui	sp,0xffffa
    3bc4:	00a10113          	addi	sp,sp,10 # ffffa00a <SSEG+0xeef3a00a>
    3bc8:	00209323          	sh	sp,6(ra)
    3bcc:	00609f03          	lh	t5,6(ra)
    3bd0:	ffffaeb7          	lui	t4,0xffffa
    3bd4:	00ae8e93          	addi	t4,t4,10 # ffffa00a <SSEG+0xeef3a00a>
    3bd8:	00500193          	li	gp,5
    3bdc:	01df0463          	beq	t5,t4,3be4 <sh_test+0xcc>
    3be0:	e38fc06f          	j	218 <fail>
    3be4:	ffffc097          	auipc	ra,0xffffc
    3be8:	624080e7          	jalr	1572(ra) # 208 <update_test>
    3bec:	00000097          	auipc	ra,0x0
    3bf0:	38c08093          	addi	ra,ra,908 # 3f78 <tdat8sh>
    3bf4:	0aa00113          	li	sp,170
    3bf8:	fe209d23          	sh	sp,-6(ra)
    3bfc:	ffa09f03          	lh	t5,-6(ra)
    3c00:	0aa00e93          	li	t4,170
    3c04:	00600193          	li	gp,6
    3c08:	01df0463          	beq	t5,t4,3c10 <sh_test+0xf8>
    3c0c:	e0cfc06f          	j	218 <fail>
    3c10:	ffffc097          	auipc	ra,0xffffc
    3c14:	5f8080e7          	jalr	1528(ra) # 208 <update_test>
    3c18:	00000097          	auipc	ra,0x0
    3c1c:	36008093          	addi	ra,ra,864 # 3f78 <tdat8sh>
    3c20:	ffffb137          	lui	sp,0xffffb
    3c24:	a0010113          	addi	sp,sp,-1536 # ffffaa00 <SSEG+0xeef3aa00>
    3c28:	fe209e23          	sh	sp,-4(ra)
    3c2c:	ffc09f03          	lh	t5,-4(ra)
    3c30:	ffffbeb7          	lui	t4,0xffffb
    3c34:	a00e8e93          	addi	t4,t4,-1536 # ffffaa00 <SSEG+0xeef3aa00>
    3c38:	00700193          	li	gp,7
    3c3c:	01df0463          	beq	t5,t4,3c44 <sh_test+0x12c>
    3c40:	dd8fc06f          	j	218 <fail>
    3c44:	ffffc097          	auipc	ra,0xffffc
    3c48:	5c4080e7          	jalr	1476(ra) # 208 <update_test>
    3c4c:	00000097          	auipc	ra,0x0
    3c50:	32c08093          	addi	ra,ra,812 # 3f78 <tdat8sh>
    3c54:	00001137          	lui	sp,0x1
    3c58:	aa010113          	addi	sp,sp,-1376 # aa0 <sll_test+0x4c>
    3c5c:	fe209f23          	sh	sp,-2(ra)
    3c60:	ffe09f03          	lh	t5,-2(ra)
    3c64:	00001eb7          	lui	t4,0x1
    3c68:	aa0e8e93          	addi	t4,t4,-1376 # aa0 <sll_test+0x4c>
    3c6c:	00800193          	li	gp,8
    3c70:	01df0463          	beq	t5,t4,3c78 <sh_test+0x160>
    3c74:	da4fc06f          	j	218 <fail>
    3c78:	ffffc097          	auipc	ra,0xffffc
    3c7c:	590080e7          	jalr	1424(ra) # 208 <update_test>
    3c80:	00000097          	auipc	ra,0x0
    3c84:	2f808093          	addi	ra,ra,760 # 3f78 <tdat8sh>
    3c88:	ffffa137          	lui	sp,0xffffa
    3c8c:	00a10113          	addi	sp,sp,10 # ffffa00a <SSEG+0xeef3a00a>
    3c90:	00209023          	sh	sp,0(ra)
    3c94:	00009f03          	lh	t5,0(ra)
    3c98:	ffffaeb7          	lui	t4,0xffffa
    3c9c:	00ae8e93          	addi	t4,t4,10 # ffffa00a <SSEG+0xeef3a00a>
    3ca0:	00900193          	li	gp,9
    3ca4:	01df0463          	beq	t5,t4,3cac <sh_test+0x194>
    3ca8:	d70fc06f          	j	218 <fail>
    3cac:	ffffc097          	auipc	ra,0xffffc
    3cb0:	55c080e7          	jalr	1372(ra) # 208 <update_test>
    3cb4:	00000097          	auipc	ra,0x0
    3cb8:	2c608093          	addi	ra,ra,710 # 3f7a <tdat9sh>
    3cbc:	12345137          	lui	sp,0x12345
    3cc0:	67810113          	addi	sp,sp,1656 # 12345678 <SSEG+0x1285678>
    3cc4:	fe008213          	addi	tp,ra,-32
    3cc8:	02221023          	sh	sp,32(tp) # 20 <main+0x8>
    3ccc:	00009283          	lh	t0,0(ra)
    3cd0:	00005eb7          	lui	t4,0x5
    3cd4:	678e8e93          	addi	t4,t4,1656 # 5678 <__global_pointer$+0xf64>
    3cd8:	00a00193          	li	gp,10
    3cdc:	01d28463          	beq	t0,t4,3ce4 <sh_test+0x1cc>
    3ce0:	d38fc06f          	j	218 <fail>
    3ce4:	ffffc097          	auipc	ra,0xffffc
    3ce8:	524080e7          	jalr	1316(ra) # 208 <update_test>
    3cec:	00000097          	auipc	ra,0x0
    3cf0:	28e08093          	addi	ra,ra,654 # 3f7a <tdat9sh>
    3cf4:	00003137          	lui	sp,0x3
    3cf8:	09810113          	addi	sp,sp,152 # 3098 <bltu_test+0x110>
    3cfc:	ffb08093          	addi	ra,ra,-5
    3d00:	002093a3          	sh	sp,7(ra)
    3d04:	00000217          	auipc	tp,0x0
    3d08:	27820213          	addi	tp,tp,632 # 3f7c <tdat10sh>
    3d0c:	00021283          	lh	t0,0(tp) # 0 <entry>
    3d10:	00003eb7          	lui	t4,0x3
    3d14:	098e8e93          	addi	t4,t4,152 # 3098 <bltu_test+0x110>
    3d18:	00b00193          	li	gp,11
    3d1c:	01d28463          	beq	t0,t4,3d24 <sh_test+0x20c>
    3d20:	cf8fc06f          	j	218 <fail>
    3d24:	ffffc097          	auipc	ra,0xffffc
    3d28:	4e4080e7          	jalr	1252(ra) # 208 <update_test>
    3d2c:	000f8067          	jr	t6

00003d30 <sb_test>:
    3d30:	00000513          	li	a0,0
    3d34:	00a62023          	sw	a0,0(a2)
    3d38:	00151513          	slli	a0,a0,0x1
    3d3c:	00000097          	auipc	ra,0x0
    3d40:	22408093          	addi	ra,ra,548 # 3f60 <tdat1sb>
    3d44:	faa00113          	li	sp,-86
    3d48:	00208023          	sb	sp,0(ra)
    3d4c:	00008f03          	lb	t5,0(ra)
    3d50:	faa00e93          	li	t4,-86
    3d54:	00200193          	li	gp,2
    3d58:	01df0463          	beq	t5,t4,3d60 <sb_test+0x30>
    3d5c:	cbcfc06f          	j	218 <fail>
    3d60:	ffffc097          	auipc	ra,0xffffc
    3d64:	4a8080e7          	jalr	1192(ra) # 208 <update_test>
    3d68:	00000097          	auipc	ra,0x0
    3d6c:	1f808093          	addi	ra,ra,504 # 3f60 <tdat1sb>
    3d70:	00000113          	li	sp,0
    3d74:	002080a3          	sb	sp,1(ra)
    3d78:	00108f03          	lb	t5,1(ra)
    3d7c:	00000e93          	li	t4,0
    3d80:	00300193          	li	gp,3
    3d84:	01df0463          	beq	t5,t4,3d8c <sb_test+0x5c>
    3d88:	c90fc06f          	j	218 <fail>
    3d8c:	ffffc097          	auipc	ra,0xffffc
    3d90:	47c080e7          	jalr	1148(ra) # 208 <update_test>
    3d94:	00000097          	auipc	ra,0x0
    3d98:	1cc08093          	addi	ra,ra,460 # 3f60 <tdat1sb>
    3d9c:	fffff137          	lui	sp,0xfffff
    3da0:	fa010113          	addi	sp,sp,-96 # ffffefa0 <SSEG+0xeef3efa0>
    3da4:	00208123          	sb	sp,2(ra)
    3da8:	00208f03          	lb	t5,2(ra)
    3dac:	fa000e93          	li	t4,-96
    3db0:	00400193          	li	gp,4
    3db4:	01df0463          	beq	t5,t4,3dbc <sb_test+0x8c>
    3db8:	c60fc06f          	j	218 <fail>
    3dbc:	ffffc097          	auipc	ra,0xffffc
    3dc0:	44c080e7          	jalr	1100(ra) # 208 <update_test>
    3dc4:	00000097          	auipc	ra,0x0
    3dc8:	19c08093          	addi	ra,ra,412 # 3f60 <tdat1sb>
    3dcc:	00a00113          	li	sp,10
    3dd0:	002081a3          	sb	sp,3(ra)
    3dd4:	00308f03          	lb	t5,3(ra)
    3dd8:	00a00e93          	li	t4,10
    3ddc:	00500193          	li	gp,5
    3de0:	01df0463          	beq	t5,t4,3de8 <sb_test+0xb8>
    3de4:	c34fc06f          	j	218 <fail>
    3de8:	ffffc097          	auipc	ra,0xffffc
    3dec:	420080e7          	jalr	1056(ra) # 208 <update_test>
    3df0:	00000097          	auipc	ra,0x0
    3df4:	17708093          	addi	ra,ra,375 # 3f67 <tdat8sb>
    3df8:	faa00113          	li	sp,-86
    3dfc:	fe208ea3          	sb	sp,-3(ra)
    3e00:	ffd08f03          	lb	t5,-3(ra)
    3e04:	faa00e93          	li	t4,-86
    3e08:	00600193          	li	gp,6
    3e0c:	01df0463          	beq	t5,t4,3e14 <sb_test+0xe4>
    3e10:	c08fc06f          	j	218 <fail>
    3e14:	ffffc097          	auipc	ra,0xffffc
    3e18:	3f4080e7          	jalr	1012(ra) # 208 <update_test>
    3e1c:	00000097          	auipc	ra,0x0
    3e20:	14b08093          	addi	ra,ra,331 # 3f67 <tdat8sb>
    3e24:	00000113          	li	sp,0
    3e28:	fe208f23          	sb	sp,-2(ra)
    3e2c:	ffe08f03          	lb	t5,-2(ra)
    3e30:	00000e93          	li	t4,0
    3e34:	00700193          	li	gp,7
    3e38:	01df0463          	beq	t5,t4,3e40 <sb_test+0x110>
    3e3c:	bdcfc06f          	j	218 <fail>
    3e40:	ffffc097          	auipc	ra,0xffffc
    3e44:	3c8080e7          	jalr	968(ra) # 208 <update_test>
    3e48:	00000097          	auipc	ra,0x0
    3e4c:	11f08093          	addi	ra,ra,287 # 3f67 <tdat8sb>
    3e50:	fa000113          	li	sp,-96
    3e54:	fe208fa3          	sb	sp,-1(ra)
    3e58:	fff08f03          	lb	t5,-1(ra)
    3e5c:	fa000e93          	li	t4,-96
    3e60:	00800193          	li	gp,8
    3e64:	01df0463          	beq	t5,t4,3e6c <sb_test+0x13c>
    3e68:	bb0fc06f          	j	218 <fail>
    3e6c:	ffffc097          	auipc	ra,0xffffc
    3e70:	39c080e7          	jalr	924(ra) # 208 <update_test>
    3e74:	00000097          	auipc	ra,0x0
    3e78:	0f308093          	addi	ra,ra,243 # 3f67 <tdat8sb>
    3e7c:	00a00113          	li	sp,10
    3e80:	00208023          	sb	sp,0(ra)
    3e84:	00008f03          	lb	t5,0(ra)
    3e88:	00a00e93          	li	t4,10
    3e8c:	00900193          	li	gp,9
    3e90:	01df0463          	beq	t5,t4,3e98 <sb_test+0x168>
    3e94:	b84fc06f          	j	218 <fail>
    3e98:	ffffc097          	auipc	ra,0xffffc
    3e9c:	370080e7          	jalr	880(ra) # 208 <update_test>
    3ea0:	00000097          	auipc	ra,0x0
    3ea4:	0c808093          	addi	ra,ra,200 # 3f68 <tdat9sb>
    3ea8:	12345137          	lui	sp,0x12345
    3eac:	67810113          	addi	sp,sp,1656 # 12345678 <SSEG+0x1285678>
    3eb0:	fe008213          	addi	tp,ra,-32
    3eb4:	02220023          	sb	sp,32(tp) # 20 <main+0x8>
    3eb8:	00008283          	lb	t0,0(ra)
    3ebc:	07800e93          	li	t4,120
    3ec0:	00a00193          	li	gp,10
    3ec4:	01d28463          	beq	t0,t4,3ecc <sb_test+0x19c>
    3ec8:	b50fc06f          	j	218 <fail>
    3ecc:	ffffc097          	auipc	ra,0xffffc
    3ed0:	33c080e7          	jalr	828(ra) # 208 <update_test>
    3ed4:	00000097          	auipc	ra,0x0
    3ed8:	09408093          	addi	ra,ra,148 # 3f68 <tdat9sb>
    3edc:	00003137          	lui	sp,0x3
    3ee0:	09810113          	addi	sp,sp,152 # 3098 <bltu_test+0x110>
    3ee4:	ffa08093          	addi	ra,ra,-6
    3ee8:	002083a3          	sb	sp,7(ra)
    3eec:	00000217          	auipc	tp,0x0
    3ef0:	07d20213          	addi	tp,tp,125 # 3f69 <tdat10sb>
    3ef4:	00020283          	lb	t0,0(tp) # 0 <entry>
    3ef8:	f9800e93          	li	t4,-104
    3efc:	00b00193          	li	gp,11
    3f00:	01d28463          	beq	t0,t4,3f08 <sb_test+0x1d8>
    3f04:	b14fc06f          	j	218 <fail>
    3f08:	ffffc097          	auipc	ra,0xffffc
    3f0c:	300080e7          	jalr	768(ra) # 208 <update_test>
    3f10:	000f8067          	jr	t6
