
build/program.elf:     file format elf32-littleriscv

Contents of section .text.init:
 0000 17010100 13010100 ef008000 6f000000  ............o...
Contents of section .text:
 0010 97110000 938181ab 138581ff 138681ff  ................
 0020 3306a640 93050000 ef00401c 17050000  3..@......@.....
 0030 1305454a 63080500 17050000 1305c54a  ..EJc..........J
 0040 ef000049 ef00c02c 03250100 93054100  ...I...,.%....A.
 0050 13060000 ef004027 6f008028 130101ff  ......@'o..(....
 0060 23248100 83478060 23261100 63900702  #$...G.`#&..c...
 0070 93070000 63880700 138581ff 97000000  ....c...........
 0080 e7000000 93071000 2304f060 8320c100  ........#..`. ..
 0090 03248100 13010101 67800000 93070000  .$......g.......
 00a0 638a0700 9305c060 138581ff 17030000  c......`........
 00b0 67000000 67800000 6356a010 130101fb  g...g...cV......
 00c0 23202105 13192500 23248103 b3872501  # !...%.#$....%.
 00d0 330ca040 23286103 23267103 23229103  3..@#(a.#&q.#"..
 00e0 23261104 23248104 23229104 232e3103  #&..#$..#"..#.1.
 00f0 232c4103 232a5103 2320a103 232eb101  #,A.#*Q.# ..#...
 0100 930b0500 130b0600 938c0600 2326f100  ............#&..
 0110 23240100 131c3c00 8324c100 138a0c00  #$....<..$......
 0120 930a0000 b3892441 130d0b00 13840900  ......$A........
 0130 930d0000 83250d00 03250400 13044400  .....%...%....D.
 0140 330d2d01 ef004008 b38dad00 e39484fe  3.-...@.........
 0150 2320ba01 93871a00 330a2a01 b3848941  # ......3.*....A
 0160 6386fb00 938a0700 6ff0dffb 03278100  c.......o....'..
 0170 130b4b00 938c4c00 93071700 6386ea00  ..K...L.....c...
 0180 2324f100 6ff05ff9 8320c104 03248104  #$..o._.. ...$..
 0190 83244104 03290104 8329c103 032a8103  .$A..)...)...*..
 01a0 832a4103 032b0103 832bc102 032c8102  .*A..+...+...,..
 01b0 832c4102 032d0102 832dc101 13010105  .,A..-...-......
 01c0 67800000 67800000 13060500 13050000  g...g...........
 01d0 93f61500 63840600 3305c500 93d51500  ....c...3.......
 01e0 13161600 e39605fe 67800000 1303f000  ........g.......
 01f0 13070500 637ec302 9377f700 6390070a  ....c~...w..c...
 0200 63920508 937606ff 1376f600 b386e600  c....v...v......
 0210 2320b700 2322b700 2324b700 2326b700  # ..#"..#$..#&..
 0220 13070701 e366d7fe 63140600 67800000  .....f..c...g...
 0230 b306c340 93962600 97020000 b3865600  ...@..&.......V.
 0240 6780c600 2307b700 a306b700 2306b700  g...#.......#...
 0250 a305b700 2305b700 a304b700 2304b700  ....#.......#...
 0260 a303b700 2303b700 a302b700 2302b700  ....#.......#...
 0270 a301b700 2301b700 a300b700 2300b700  ....#.......#...
 0280 67800000 93f5f50f 93968500 b3e5d500  g...............
 0290 93960501 b3e5d500 6ff0dff6 93962700  ........o.....'.
 02a0 97020000 b3865600 93820000 e78006fa  ......V.........
 02b0 93800200 938707ff 3307f740 3306f600  ........3..@3...
 02c0 e378c3f6 6ff0dff3                    .x..o...        
Contents of section .text.startup:
 02c8 93058064 93064062 13068064 93854502  ...d..@b...d..E.
 02d8 13053000 6ff0dfdd                    ..0.o...        
Contents of section .text.exit:
 02e0 130101ff 93050000 23248100 23261100  ........#$..#&..
 02f0 13040500 ef00c00b 03a541ff 8327c503  ..........A..'..
 0300 63840700 e7800700 13050400 ef00402c  c.............@,
Contents of section .text.__libc_init_array:
 0310 130101ff 23248100 23202101 93070000  ....#$..# !.....
 0320 13070000 23261100 23229100 3389e740  ....#&..#"..3..@
 0330 6382e702 13592940 13040000 93040000  c....Y)@........
 0340 83270400 93841400 13044400 e7800700  .'........D.....
 0350 e3e824ff 93070000 13070000 3389e740  ..$.........3..@
 0360 13592940 6380e702 13040000 93040000  .Y)@c...........
 0370 83270400 93841400 13044400 e7800700  .'........D.....
 0380 e3e824ff 8320c100 03248100 83244100  ..$.. ...$...$A.
 0390 03290100 13010101 67800000           .)......g...    
Contents of section .text.startup.register_fini:
 039c 93070000 63860700 1305404e 6f008012  ....c.....@No...
 03ac 67800000                             g...            
Contents of section .text.__call_exitprocs:
 03b0 130101fd 232c4101 03aa41ff 23202103  ....#,A...A.# !.
 03c0 23261102 03298a14 23248102 23229102  #&...)..#$..#"..
 03d0 232e3101 232a5101 23286101 23267101  #.1.#*Q.#(a.#&q.
 03e0 23248101 63000904 130b0500 938b0500  #$..c...........
 03f0 930a1000 9309f0ff 83244900 1384f4ff  .........$I.....
 0400 63420402 93942400 b3049900 63840b04  cB....$.....c...
 0410 83a74410 63807705 1304f4ff 9384c4ff  ..D.c.w.........
 0420 e31634ff 8320c102 03248102 83244102  ..4.. ...$...$A.
 0430 03290102 8329c101 032a8101 832a4101  .)...)...*...*A.
 0440 032b0101 832bc100 032c8100 13010103  .+...+...,......
 0450 67800000 83274900 83a64400 9387f7ff  g....'I...D.....
 0460 638e8704 23a20400 e38806fa 83278918  c...#........'..
 0470 33978a00 032c4900 b377f700 63920702  3....,I..w..c...
 0480 e7800600 03274900 83278a14 63148701  .....'I..'..c...
 0490 e38427f9 e38807f8 13890700 6ff0dff5  ..'.........o...
 04a0 8327c918 83a54408 3377f700 631c0700  .'....D.3w..c...
 04b0 13050b00 e7800600 6ff0dffc 23228900  ........o...#"..
 04c0 6ff09ffa 13850500 e7800600 6ff09ffb  o...........o...
Contents of section .text.atexit:
 04d0 93050500 93060000 13060000 13050000  ................
 04e0 6f008005                             o...            
Contents of section .text.__libc_fini_array:
 04e4 130101ff 23248100 93070000 13040000  ....#$..........
 04f4 3304f440 23229100 23261100 93542440  3..@#"..#&...T$@
 0504 63800402 1304c4ff 3304f400 83270400  c.......3....'..
 0514 9384f4ff 1304c4ff e7800700 e39804fe  ................
 0524 8320c100 03248100 83244100 13010101  . ...$...$A.....
 0534 67800000                             g...            
Contents of section .text.__register_exitproc:
 0538 03a741ff 83278714 638c0704 03a74700  ..A..'..c.....G.
 0548 1308f001 634ee806 13182700 63060502  ....cN....'.c...
 0558 33830701 2324c308 83a88718 13061000  3...#$..........
 0568 3316e600 b3e8c800 23a41719 2324d310  3.......#...#$..
 0578 93062000 6304d502 13071700 23a2e700  .. .c.......#...
 0588 b3870701 23a4b700 13050000 67800000  ....#.......g...
 0598 9307c714 2324f714 6ff05ffa 83a6c718  ....#$..o._.....
 05a8 13071700 23a2e700 b3e6c600 23a6d718  ....#.......#...
 05b8 b3870701 23a4b700 13050000 67800000  ....#.......g...
 05c8 1305f0ff 67800000                    ....g...        
Contents of section .text._exit:
 05d0 9308d005 73000000 63440500 6f000000  ....s...cD..o...
 05e0 130101ff 23248100 13040500 23261100  ....#$......#&..
 05f0 33048040 ef00c000 23208500 6f000000  3..@....# ..o...
Contents of section .text.__errno:
 0600 03a54100 67800000                    ..A.g...        
Contents of section .data:
 0608 00000000 00000000 00000000 00000000  ................
 0618 00000000 00000000 00000000 00000000  ................
 0628 00000000 00000000 00000000 00000000  ................
 0638 00000000 00000000 00000000 00000000  ................
 0648 03000000 01000000 01000000 00000000  ................
 0658 02000000 00000000 02000000 03000000  ................
 0668 01000000 03000000 01000000 02000000  ................
 0678 00000000 02000000 00000000 03000000  ................
 0688 00000000 00000000 00000000 7c090000  ............|...
 0698 e4090000 4c0a0000 00000000 00000000  ....L...........
 06a8 00000000 00000000 00000000 00000000  ................
 06b8 00000000 00000000 00000000 00000000  ................
 06c8 00000000 00000000 00000000 00000000  ................
 06d8 00000000 00000000 00000000 00000000  ................
 06e8 00000000 00000000 00000000 00000000  ................
 06f8 00000000 00000000 00000000 00000000  ................
 0708 00000000 00000000 00000000 00000000  ................
 0718 00000000 00000000 00000000 00000000  ................
 0728 00000000 00000000 00000000 00000000  ................
 0738 01000000 00000000 0e33cdab 34126de6  .........3..4.m.
 0748 ecde0500 0b000000 00000000 00000000  ................
 0758 00000000 00000000 00000000 00000000  ................
 0768 00000000 00000000 00000000 00000000  ................
 0778 00000000 00000000 00000000 00000000  ................
 0788 00000000 00000000 00000000 00000000  ................
 0798 00000000 00000000 00000000 00000000  ................
 07a8 00000000 00000000 00000000 00000000  ................
 07b8 00000000 00000000 00000000 00000000  ................
 07c8 00000000 00000000 00000000 00000000  ................
 07d8 00000000 00000000 00000000 00000000  ................
 07e8 00000000 00000000 00000000 00000000  ................
 07f8 00000000 00000000 00000000 00000000  ................
 0808 00000000 00000000 00000000 00000000  ................
 0818 00000000 00000000 00000000 00000000  ................
 0828 00000000 00000000 00000000 00000000  ................
 0838 00000000 00000000 00000000 00000000  ................
 0848 00000000 00000000 00000000 00000000  ................
 0858 00000000 00000000 00000000 00000000  ................
 0868 00000000 00000000 00000000 00000000  ................
 0878 00000000 00000000 00000000 00000000  ................
 0888 00000000 00000000 00000000 00000000  ................
 0898 00000000 00000000 00000000 00000000  ................
 08a8 00000000 00000000 00000000 00000000  ................
 08b8 00000000 00000000 00000000 00000000  ................
 08c8 00000000 00000000 00000000 00000000  ................
 08d8 00000000 00000000 00000000 00000000  ................
 08e8 00000000 00000000 00000000 00000000  ................
 08f8 00000000 00000000 00000000 00000000  ................
 0908 00000000 00000000 00000000 00000000  ................
 0918 00000000 00000000 00000000 00000000  ................
 0928 00000000 00000000 00000000 00000000  ................
 0938 00000000 00000000 00000000 00000000  ................
 0948 00000000 00000000 00000000 00000000  ................
 0958 00000000 00000000 00000000 00000000  ................
 0968 00000000 00000000 00000000 00000000  ................
 0978 00000000 00000000 00000000 00000000  ................
 0988 00000000 00000000 00000000 00000000  ................
 0998 00000000 00000000 00000000 00000000  ................
 09a8 00000000 00000000 00000000 00000000  ................
 09b8 00000000 00000000 00000000 00000000  ................
 09c8 00000000 00000000 00000000 00000000  ................
 09d8 00000000 00000000 00000000 00000000  ................
 09e8 00000000 00000000 00000000 00000000  ................
 09f8 00000000 00000000 00000000 00000000  ................
 0a08 00000000 00000000 00000000 00000000  ................
 0a18 00000000 00000000 00000000 00000000  ................
 0a28 00000000 00000000 00000000 00000000  ................
 0a38 00000000 00000000 00000000 00000000  ................
 0a48 00000000 00000000 00000000 00000000  ................
 0a58 00000000 00000000 00000000 00000000  ................
 0a68 00000000 00000000 00000000 00000000  ................
 0a78 00000000 00000000 00000000 00000000  ................
 0a88 00000000 00000000 00000000 00000000  ................
 0a98 00000000 00000000 00000000 00000000  ................
 0aa8 00000000 00000000 00000000 00000000  ................
 0ab8 00000000 90060000                    ........        
Contents of section .eh_frame:
 0ac0 00000000                             ....            
Contents of section .fini_array:
 0ac4 5c000000                             \...            
Contents of section .init_array:
 0ac8 9c000000                             ....            
Contents of section .sdata._impure_ptr:
 0acc 90060000                             ....            
Contents of section .init_array.00000:
 0ad0 9c030000                             ....            
Contents of section .riscv.attributes:
 0000 411b0000 00726973 63760001 11000000  A....riscv......
 0010 04100572 76333269 32703100           ...rv32i2p1.    
Contents of section .comment:
 0000 4743433a 20282920 31322e32 2e300047  GCC: () 12.2.0.G
 0010 43433a20 28474e55 29203132 2e322e30  CC: (GNU) 12.2.0
 0020 00                                   .               
Contents of section .debug_line:
 0000 50000000 05000400 2e000000 010101fb  P...............
 0010 0e0d0001 01010100 00000100 00010101  ................
 0020 1f020000 00004a00 00000201 1f020f02  ......J.........
 0030 4e000000 014e0000 00010005 02000000  N....N..........
 0040 00180302 09080001 03050904 00010904  ................
 0050 00000101 a2010000 05000400 33000000  ............3...
 0060 010101fb 0e0d0001 01010100 00000100  ................
 0070 00010101 1f020000 00004a00 00000201  ..........J.....
 0080 1f020f03 59000000 01590000 00016200  ....Y....Y....b.
 0090 00000105 01000502 b8000000 18050303  ................
 00a0 01090000 01030209 00000105 11030009  ................
 00b0 00000105 0106037d 09040001 050a0303  .......}........
 00c0 09540001 05130301 09040001 06030009  .T..............
 00d0 04000105 19060300 09000001 050c0300  ................
 00e0 09080001 05150603 02090400 01050106  ................
 00f0 037a0904 0001050e 03050908 00010509  .z..............
 0100 00020403 06030209 04000105 1b000204  ................
 0110 03060300 09000001 05150002 0403037f  ................
 0120 09080001 051b0002 04030301 09080001  ................
 0130 050d0002 04030300 09040001 051b0002  ................
 0140 04030603 7f090400 01051500 02040303  ................
 0150 00090000 01050700 02040203 02090400  ................
 0160 01051200 02040206 03000900 00010519  ................
 0170 00020402 06037c09 04000105 13000204  ......|.........
 0180 02030009 04000105 19060300 090c0001  ................
 0190 05170002 04020603 7f090800 01051100  ................
 01a0 02040206 03000904 00010517 00020402  ................
 01b0 03000908 00010511 00020402 06030009  ................
 01c0 04000105 17060300 09040001 05010308  ................
 01d0 09080001 09400000 01010501 000502c8  .....@..........
 01e0 02000003 13010502 03010900 00010301  ................
 01f0 09000001 09180000 01017600 00000500  ..........v.....
 0200 04002e00 00000101 01fb0e0d 00010101  ................
 0210 01000000 01000001 01011f02 6c000000  ............l...
 0220 c6000000 02011f02 0f02e900 000001e9  ................
 0230 00000001 000502c8 01000003 24010301  ............$...
 0240 09040001 03020904 00010301 09040001  ................
 0250 03010904 00010302 09040001 03010904  ................
 0260 00010301 09040001 03010904 00010904  ................
 0270 00000101                             ....            
Contents of section .debug_line_str:
 0000 2f6d6e74 2f7a2f73 63686f6f 6c66696c  /mnt/z/schoolfil
 0010 65732f73 63686f6f 6c5f6669 6c65732f  es/school_files/
 0020 63706533 33332f4c 6162305f 315f7065  cpe333/Lab0_1_pe
 0030 72666f72 6d616e63 652f7072 6f677261  rformance/progra
 0040 6d732f6d 61746d75 6c007372 6300696e  ms/matmul.src.in
 0050 69742e73 00737263 2f6d6174 6d756c2e  it.s.src/matmul.
 0060 63006461 74617365 742e6800 2f686f6d  c.dataset.h./hom
 0070 652f6461 6e6e792f 63706533 33332f72  e/danny/cpe333/r
 0080 69736376 2d676e75 2d746f6f 6c636861  iscv-gnu-toolcha
 0090 696e2f62 75696c64 2d676363 2d6e6577  in/build-gcc-new
 00a0 6c69622d 73746167 65322f72 69736376  lib-stage2/riscv
 00b0 33322d75 6e6b6e6f 776e2d65 6c662f6c  32-unknown-elf/l
 00c0 69626763 63002e2e 2f2e2e2f 2e2e2f2e  ibgcc.../../../.
 00d0 2f676363 2f6c6962 6763632f 636f6e66  /gcc/libgcc/conf
 00e0 69672f72 69736376 006d756c 6469332e  ig/riscv.muldi3.
 00f0 5300                                 S.              
Contents of section .debug_info:
 0000 20000000 05000104 00000000 01000000   ...............
 0010 00000000 00140000 00000b00 00005500  ..............U.
 0020 00000180 a7010000 05000104 14000000  ................
 0030 07970000 001d5500 00000000 00001800  ......U.........
 0040 00000000 00005400 00000872 00000002  ......T....r....
 0050 0a0d3700 00000926 0000000a 0405696e  ..7....&......in
 0060 74000b26 0000004e 0000000c 4e000000  t..&...N....N...
 0070 08000404 07790000 00051601 0000020a  .....y..........
 0080 223e0000 0005036c 06000005 86000000  ">.....l........
 0090 020f0f3e 00000005 03480600 000dfd00  ...>.....H......
 00a0 00000214 0f3e0000 00240d00 00000b00  .....>...$......
 00b0 00000500 00000000 00000400 00000000  ................
 00c0 00000900 00000300 00000300 00000408  ................
 00d0 05640000 00041004 f1000000 0e920000  .d..............
 00e0 00011306 c8020000 18000000 019c0b01  ................
 00f0 00000509 01000001 15103e00 00000503  ..........>.....
 0100 24060000 0fe00200 000b0100 0001015a  $..............Z
 0110 01330101 5b05036c 06000001 015c0503  .3..[..l.....\..
 0120 48060000 01015d05 03240600 00000010  H.....]..$......
 0130 4e000000 010606b8 00000010 01000001  N...............
 0140 9c970100 00024e00 11370000 000c0000  ......N..7......
 0150 00024100 22970100 002e0000 00024200  ..A.".........B.
 0160 34970100 00490000 00024300 409c0100  4....I....C.@...
 0170 00640000 00036900 08073700 00007f00  .d....i...7.....
 0180 0000036a 00080a37 000000a2 00000003  ...j...7........
 0190 6b00080d 37000000 c0000000 110c0000  k...7...........
 01a0 00037375 6d000c0e 26000000 ca000000  ..sum...&.......
 01b0 12480100 00a10100 00000006 32000000  .H..........2...
 01c0 06260000 0013e800 0000e800 0000002d  .&.............-
 01d0 00000005 0001041d 01000001 fa010000  ................
 01e0 c8010000 24220100 004e0100 00550000  ....$"...N...U..
 01f0 00018002 e8000000 2fc80100 00240300  ......../....$..
Contents of section .debug_abbrev:
 0000 01110010 17110112 0f030e1b 0e250e13  .............%..
 0010 05000000 01490002 187e1800 00020500  .....I...~......
 0020 03083a21 013b2106 390b4913 02170000  ..:!.;!.9.I.....
 0030 03340003 083a2101 3b0b390b 49130217  .4...:!.;.9.I...
 0040 00000424 000b0b3e 0b030e00 00053400  ...$...>......4.
 0050 030e3a0b 3b0b390b 49130218 0000060f  ..:.;.9.I.......
 0060 000b2104 49130000 07110125 0e130b03  ..!.I......%....
 0070 1f1b1f55 17110110 17000008 1600030e  ...U............
 0080 3a0b3b0b 390b4913 00000926 00491300  :.;.9.I....&.I..
 0090 000a2400 0b0b3e0b 03080000 0b010149  ..$...>........I
 00a0 13011300 000c2100 49132f0b 00000d34  ......!.I./....4
 00b0 00030e3a 0b3b0b39 0b49131c 0a00000e  ...:.;.9.I......
 00c0 2e013f19 030e3a0b 3b0b390b 11011206  ..?...:.;.9.....
 00d0 40187a19 01130000 0f48017d 01820119  @.z......H.}....
 00e0 7f130000 102e013f 19030e3a 0b3b0b39  .......?...:.;.9
 00f0 0b271911 01120640 187a1901 13000011  .'.....@.z......
 0100 0b015517 00001248 007d017f 13000013  ..U....H.}......
 0110 2e003f19 3c196e0e 030e0000 00011101  ..?.<.n.........
 0120 10171101 120f030e 1b0e250e 13050000  ..........%.....
 0130 022e0003 0e3f1949 15110112 0f000003  .....?.I........
 0140 3b000000 00                          ;....           
Contents of section .debug_aranges:
 0000 1c000000 02000000 00000400 00000000  ................
 0010 00000000 10000000 00000000 00000000  ................
 0020 24000000 02002400 00000400 00000000  $.....$.........
 0030 b8000000 10010000 c8020000 18000000  ................
 0040 00000000 00000000 1c000000 0200cf01  ................
 0050 00000400 00000000 c8010000 24000000  ............$...
 0060 00000000 00000000                    ........        
Contents of section .debug_str:
 0000 7372632f 696e6974 2e73002f 6d6e742f  src/init.s./mnt/
 0010 7a2f7363 686f6f6c 66696c65 732f7363  z/schoolfiles/sc
 0020 686f6f6c 5f66696c 65732f63 70653333  hool_files/cpe33
 0030 332f4c61 62305f31 5f706572 666f726d  3/Lab0_1_perform
 0040 616e6365 2f70726f 6772616d 732f6d61  ance/programs/ma
 0050 746d756c 00474e55 20415320 322e3430  tmul.GNU AS 2.40
 0060 2e393000 6c6f6e67 206c6f6e 6720696e  .90.long long in
 0070 74006461 74615f74 00756e73 69676e65  t.data_t.unsigne
 0080 6420696e 7400696e 70757432 5f646174  d int.input2_dat
 0090 61006d61 696e0047 4e552043 31372031  a.main.GNU C17 1
 00a0 322e322e 30202d6d 6162693d 696c7033  2.2.0 -mabi=ilp3
 00b0 32202d6d 74756e65 3d726f63 6b657420  2 -mtune=rocket 
 00c0 2d6d6973 612d7370 65633d32 30313931  -misa-spec=20191
 00d0 32313320 2d6d6172 63683d72 76333269  213 -march=rv32i
 00e0 202d6720 2d4f3300 5f5f6d75 6c736933   -g -O3.__mulsi3
 00f0 006c6f6e 6720646f 75626c65 00766572  .long double.ver
 0100 6966795f 64617461 00726573 756c7473  ify_data.results
 0110 5f646174 6100696e 70757431 5f646174  _data.input1_dat
 0120 61002e2e 2f2e2e2f 2e2e2f2e 2f676363  a.../../.././gcc
 0130 2f6c6962 6763632f 636f6e66 69672f72  /libgcc/config/r
 0140 69736376 2f6d756c 6469332e 53002f68  iscv/muldi3.S./h
 0150 6f6d652f 64616e6e 792f6370 65333333  ome/danny/cpe333
 0160 2f726973 63762d67 6e752d74 6f6f6c63  /riscv-gnu-toolc
 0170 6861696e 2f627569 6c642d67 63632d6e  hain/build-gcc-n
 0180 65776c69 622d7374 61676532 2f726973  ewlib-stage2/ris
 0190 63763332 2d756e6b 6e6f776e 2d656c66  cv32-unknown-elf
 01a0 2f6c6962 67636300                    /libgcc.        
Contents of section .debug_loclists:
 0000 d8000000 05000400 00000000 06b80000  ................
 0010 00040060 015a0460 f4010167 04f4018c  ...`.Z.`...g....
 0020 0204a301 5a9f048c 02900201 5a0006b8  ....Z.......Z...
 0030 00000004 0060015b 04608c02 04a3015b  .....`.[.`.....[
 0040 9f048c02 9002015b 0006b800 00000400  .......[........
 0050 60015c04 608c0204 a3015c9f 048c0290  `.\.`.....\.....
 0060 02015c00 06b80000 00040060 015d0460  ..\........`.].`
 0070 8c0204a3 015d9f04 8c029002 015d0006  .....].......]..
 0080 b8000000 04006002 309f0460 c4010391  ......`.0..`....
 0090 b87f04c4 018c0201 5f048c02 90020230  ........_......0
 00a0 9f000618 01000004 000c0230 9f040c40  ...........0...@
 00b0 01650440 64015f04 648c0103 85019f00  .e.@d._.d.......
 00c0 08240100 00100230 9f000624 01000004  .$.....0...$....
 00d0 00100230 9f041098 01016b00           ...0......k.    
Contents of section .debug_rnglists:
 0000 22000000 05000400 00000000 05240100  "............$..
 0010 00040004 040c3000 07b80000 00900207  ......0.........
 0020 c8020000 1800                        ......          
Contents of section .debug_frame:
 0000 0c000000 ffffffff 0300017c 010d0200  ...........|....
 0010 4c000000 00000000 b8000000 10010000  L...............
 0020 480e5044 92044c98 0a709608 9709990b  H.PD..L..p......
 0030 81018802 89039305 94069507 9a0c9b0d  ................
 0040 028cc144 c844c944 d244d344 d444d544  ...D.D.D.D.D.D.D
 0050 d644d744 d844d944 da44db44 0e000000  .D.D.D.D.D.D....
 0060 0c000000 00000000 c8020000 18000000  ................

Disassembly of section .text.init:

00000000 <entry>:
# This code is executed first.

.section .text.init
entry:

    la    sp, __sp   # set up the stack pointer, using a constant defined in the linker script.
   0:	auipc	sp,0x10
   4:	mv	sp,sp
  
    call _start		# use this if using C runtime, std c library
   8:	jal	10 <_start>

0000000c <end>:
  
 #   call  main          # call the main function if barebones assembly/C

end:
    j end               # loop when finished if there is no environment to return to.
   c:	j	c <end>

Disassembly of section .text:

00000010 <_start>:
  10:	auipc	gp,0x1
  14:	add	gp,gp,-1352 # ac8 <__global_pointer$>
  18:	add	a0,gp,-8 # ac0 <__EH_FRAME_BEGIN__>
  1c:	add	a2,gp,-8 # ac0 <__EH_FRAME_BEGIN__>
  20:	sub	a2,a2,a0
  24:	li	a1,0
  28:	jal	1ec <memset>
  2c:	auipc	a0,0x0
  30:	add	a0,a0,1188 # 4d0 <atexit>
  34:	beqz	a0,44 <_start+0x34>
  38:	auipc	a0,0x0
  3c:	add	a0,a0,1196 # 4e4 <__libc_fini_array>
  40:	jal	4d0 <atexit>
  44:	jal	310 <__libc_init_array>
  48:	lw	a0,0(sp) # 10000 <__sp>
  4c:	add	a1,sp,4
  50:	li	a2,0
  54:	jal	2c8 <main>
  58:	j	2e0 <exit>

0000005c <__do_global_dtors_aux>:
  5c:	add	sp,sp,-16
  60:	sw	s0,8(sp)
  64:	lbu	a5,1544(zero) # 608 <completed.1>
  68:	sw	ra,12(sp)
  6c:	bnez	a5,8c <__do_global_dtors_aux+0x30>
  70:	li	a5,0
  74:	beqz	a5,84 <__do_global_dtors_aux+0x28>
  78:	add	a0,gp,-8 # ac0 <__EH_FRAME_BEGIN__>
  7c:	auipc	ra,0x0
  80:	jalr	zero # 0 <entry>
  84:	li	a5,1
  88:	sb	a5,1544(zero) # 608 <completed.1>
  8c:	lw	ra,12(sp)
  90:	lw	s0,8(sp)
  94:	add	sp,sp,16
  98:	ret

0000009c <frame_dummy>:
  9c:	li	a5,0
  a0:	beqz	a5,b4 <frame_dummy+0x18>
  a4:	li	a1,1548
  a8:	add	a0,gp,-8 # ac0 <__EH_FRAME_BEGIN__>
  ac:	auipc	t1,0x0
  b0:	jr	zero # 0 <entry>
  b4:	ret

000000b8 <matmul>:
// NxN matrices 
void matmul(int N,  const data_t A[], const data_t B[], data_t C[])
{
  int i, j, k;
 
  for (i = 0; i < N; i++) {
  b8:	blez	a0,1c4 <matmul+0x10c>
{
  bc:	add	sp,sp,-80
  c0:	sw	s2,64(sp)
  c4:	sll	s2,a0,0x2
  c8:	sw	s8,40(sp)
  cc:	add	a5,a1,s2
  d0:	neg	s8,a0
  d4:	sw	s6,48(sp)
  d8:	sw	s7,44(sp)
  dc:	sw	s9,36(sp)
  e0:	sw	ra,76(sp)
  e4:	sw	s0,72(sp)
  e8:	sw	s1,68(sp)
  ec:	sw	s3,60(sp)
  f0:	sw	s4,56(sp)
  f4:	sw	s5,52(sp)
  f8:	sw	s10,32(sp)
  fc:	sw	s11,28(sp)
 100:	mv	s7,a0
 104:	mv	s6,a2
 108:	mv	s9,a3
 10c:	sw	a5,12(sp)
  for (i = 0; i < N; i++) {
 110:	sw	zero,8(sp)
    for (j = 0; j < N; j++) {
 114:	sll	s8,s8,0x3
 118:	lw	s1,12(sp)
 11c:	mv	s4,s9
 120:	li	s5,0
      data_t sum = 0;
      for (k = 0; k < N; k++)
 124:	sub	s3,s1,s2
{
 128:	mv	s10,s6
 12c:	mv	s0,s3
      data_t sum = 0;
 130:	li	s11,0
        sum += A[j*N + k] * B[k*N + i];
 134:	lw	a1,0(s10)
 138:	lw	a0,0(s0)
      for (k = 0; k < N; k++)
 13c:	add	s0,s0,4
 140:	add	s10,s10,s2
        sum += A[j*N + k] * B[k*N + i];
 144:	jal	1c8 <__mulsi3>
 148:	add	s11,s11,a0
      for (k = 0; k < N; k++)
 14c:	bne	s1,s0,134 <matmul+0x7c>
      C[i + j*N] = sum;
 150:	sw	s11,0(s4)
    for (j = 0; j < N; j++) {
 154:	add	a5,s5,1
 158:	add	s4,s4,s2
 15c:	sub	s1,s3,s8
 160:	beq	s7,a5,16c <matmul+0xb4>
 164:	mv	s5,a5
 168:	j	124 <matmul+0x6c>
  for (i = 0; i < N; i++) {
 16c:	lw	a4,8(sp)
 170:	add	s6,s6,4
 174:	add	s9,s9,4
 178:	add	a5,a4,1
 17c:	beq	s5,a4,188 <matmul+0xd0>
 180:	sw	a5,8(sp)
 184:	j	118 <matmul+0x60>
    }
  }
}
 188:	lw	ra,76(sp)
 18c:	lw	s0,72(sp)
 190:	lw	s1,68(sp)
 194:	lw	s2,64(sp)
 198:	lw	s3,60(sp)
 19c:	lw	s4,56(sp)
 1a0:	lw	s5,52(sp)
 1a4:	lw	s6,48(sp)
 1a8:	lw	s7,44(sp)
 1ac:	lw	s8,40(sp)
 1b0:	lw	s9,36(sp)
 1b4:	lw	s10,32(sp)
 1b8:	lw	s11,28(sp)
 1bc:	add	sp,sp,80
 1c0:	ret
 1c4:	ret

000001c8 <__mulsi3>:
/* Our RV64 64-bit routine is equivalent to our RV32 32-bit routine.  */
# define __muldi3 __mulsi3
#endif

FUNC_BEGIN (__muldi3)
  mv     a2, a0
 1c8:	mv	a2,a0
  li     a0, 0
 1cc:	li	a0,0
.L1:
  andi   a3, a1, 1
 1d0:	and	a3,a1,1
  beqz   a3, .L2
 1d4:	beqz	a3,1dc <__mulsi3+0x14>
  add    a0, a0, a2
 1d8:	add	a0,a0,a2
.L2:
  srli   a1, a1, 1
 1dc:	srl	a1,a1,0x1
  slli   a2, a2, 1
 1e0:	sll	a2,a2,0x1
  bnez   a1, .L1
 1e4:	bnez	a1,1d0 <__mulsi3+0x8>
  ret
 1e8:	ret

000001ec <memset>:
 1ec:	li	t1,15
 1f0:	mv	a4,a0
 1f4:	bgeu	t1,a2,230 <memset+0x44>
 1f8:	and	a5,a4,15
 1fc:	bnez	a5,29c <memset+0xb0>
 200:	bnez	a1,284 <memset+0x98>
 204:	and	a3,a2,-16
 208:	and	a2,a2,15
 20c:	add	a3,a3,a4
 210:	sw	a1,0(a4)
 214:	sw	a1,4(a4)
 218:	sw	a1,8(a4)
 21c:	sw	a1,12(a4)
 220:	add	a4,a4,16
 224:	bltu	a4,a3,210 <memset+0x24>
 228:	bnez	a2,230 <memset+0x44>
 22c:	ret
 230:	sub	a3,t1,a2
 234:	sll	a3,a3,0x2
 238:	auipc	t0,0x0
 23c:	add	a3,a3,t0
 240:	jr	12(a3)
 244:	sb	a1,14(a4)
 248:	sb	a1,13(a4)
 24c:	sb	a1,12(a4)
 250:	sb	a1,11(a4)
 254:	sb	a1,10(a4)
 258:	sb	a1,9(a4)
 25c:	sb	a1,8(a4)
 260:	sb	a1,7(a4)
 264:	sb	a1,6(a4)
 268:	sb	a1,5(a4)
 26c:	sb	a1,4(a4)
 270:	sb	a1,3(a4)
 274:	sb	a1,2(a4)
 278:	sb	a1,1(a4)
 27c:	sb	a1,0(a4)
 280:	ret
 284:	zext.b	a1,a1
 288:	sll	a3,a1,0x8
 28c:	or	a1,a1,a3
 290:	sll	a3,a1,0x10
 294:	or	a1,a1,a3
 298:	j	204 <memset+0x18>
 29c:	sll	a3,a5,0x2
 2a0:	auipc	t0,0x0
 2a4:	add	a3,a3,t0
 2a8:	mv	t0,ra
 2ac:	jalr	-96(a3)
 2b0:	mv	ra,t0
 2b4:	add	a5,a5,-16
 2b8:	sub	a4,a4,a5
 2bc:	add	a2,a2,a5
 2c0:	bgeu	t1,a2,230 <memset+0x44>
 2c4:	j	200 <memset+0x14>

Disassembly of section .text.startup:

000002c8 <main>:
void main()
{
	static data_t results_data[ARRAY_SIZE];
	matmul(DIM_SIZE, input1_data, input2_data, results_data);
 2c8:	li	a1,1608
 2cc:	li	a3,1572
 2d0:	li	a2,1608
 2d4:	add	a1,a1,36
 2d8:	li	a0,3
 2dc:	j	b8 <matmul>

Disassembly of section .text.exit:

000002e0 <exit>:
 2e0:	add	sp,sp,-16
 2e4:	li	a1,0
 2e8:	sw	s0,8(sp)
 2ec:	sw	ra,12(sp)
 2f0:	mv	s0,a0
 2f4:	jal	3b0 <__call_exitprocs>
 2f8:	lw	a0,-12(gp) # abc <_global_impure_ptr>
 2fc:	lw	a5,60(a0)
 300:	beqz	a5,308 <exit+0x28>
 304:	jalr	a5
 308:	mv	a0,s0
 30c:	jal	5d0 <_exit>

Disassembly of section .text.__libc_init_array:

00000310 <__libc_init_array>:
 310:	add	sp,sp,-16
 314:	sw	s0,8(sp)
 318:	sw	s2,0(sp)
 31c:	li	a5,0
 320:	li	a4,0
 324:	sw	ra,12(sp)
 328:	sw	s1,4(sp)
 32c:	sub	s2,a5,a4
 330:	beq	a5,a4,354 <__libc_init_array+0x44>
 334:	sra	s2,s2,0x2
 338:	li	s0,0
 33c:	li	s1,0
 340:	lw	a5,0(s0)
 344:	add	s1,s1,1
 348:	add	s0,s0,4
 34c:	jalr	a5
 350:	bltu	s1,s2,340 <__libc_init_array+0x30>
 354:	li	a5,0
 358:	li	a4,0
 35c:	sub	s2,a5,a4
 360:	sra	s2,s2,0x2
 364:	beq	a5,a4,384 <__libc_init_array+0x74>
 368:	li	s0,0
 36c:	li	s1,0
 370:	lw	a5,0(s0)
 374:	add	s1,s1,1
 378:	add	s0,s0,4
 37c:	jalr	a5
 380:	bltu	s1,s2,370 <__libc_init_array+0x60>
 384:	lw	ra,12(sp)
 388:	lw	s0,8(sp)
 38c:	lw	s1,4(sp)
 390:	lw	s2,0(sp)
 394:	add	sp,sp,16
 398:	ret

Disassembly of section .text.startup.register_fini:

0000039c <register_fini>:
 39c:	li	a5,0
 3a0:	beqz	a5,3ac <register_fini+0x10>
 3a4:	li	a0,1252
 3a8:	j	4d0 <atexit>
 3ac:	ret

Disassembly of section .text.__call_exitprocs:

000003b0 <__call_exitprocs>:
 3b0:	add	sp,sp,-48
 3b4:	sw	s4,24(sp)
 3b8:	lw	s4,-12(gp) # abc <_global_impure_ptr>
 3bc:	sw	s2,32(sp)
 3c0:	sw	ra,44(sp)
 3c4:	lw	s2,328(s4)
 3c8:	sw	s0,40(sp)
 3cc:	sw	s1,36(sp)
 3d0:	sw	s3,28(sp)
 3d4:	sw	s5,20(sp)
 3d8:	sw	s6,16(sp)
 3dc:	sw	s7,12(sp)
 3e0:	sw	s8,8(sp)
 3e4:	beqz	s2,424 <__call_exitprocs+0x74>
 3e8:	mv	s6,a0
 3ec:	mv	s7,a1
 3f0:	li	s5,1
 3f4:	li	s3,-1
 3f8:	lw	s1,4(s2)
 3fc:	add	s0,s1,-1
 400:	bltz	s0,424 <__call_exitprocs+0x74>
 404:	sll	s1,s1,0x2
 408:	add	s1,s2,s1
 40c:	beqz	s7,454 <__call_exitprocs+0xa4>
 410:	lw	a5,260(s1)
 414:	beq	a5,s7,454 <__call_exitprocs+0xa4>
 418:	add	s0,s0,-1
 41c:	add	s1,s1,-4
 420:	bne	s0,s3,40c <__call_exitprocs+0x5c>
 424:	lw	ra,44(sp)
 428:	lw	s0,40(sp)
 42c:	lw	s1,36(sp)
 430:	lw	s2,32(sp)
 434:	lw	s3,28(sp)
 438:	lw	s4,24(sp)
 43c:	lw	s5,20(sp)
 440:	lw	s6,16(sp)
 444:	lw	s7,12(sp)
 448:	lw	s8,8(sp)
 44c:	add	sp,sp,48
 450:	ret
 454:	lw	a5,4(s2)
 458:	lw	a3,4(s1)
 45c:	add	a5,a5,-1
 460:	beq	a5,s0,4bc <__call_exitprocs+0x10c>
 464:	sw	zero,4(s1)
 468:	beqz	a3,418 <__call_exitprocs+0x68>
 46c:	lw	a5,392(s2)
 470:	sll	a4,s5,s0
 474:	lw	s8,4(s2)
 478:	and	a5,a4,a5
 47c:	bnez	a5,4a0 <__call_exitprocs+0xf0>
 480:	jalr	a3
 484:	lw	a4,4(s2)
 488:	lw	a5,328(s4)
 48c:	bne	a4,s8,494 <__call_exitprocs+0xe4>
 490:	beq	a5,s2,418 <__call_exitprocs+0x68>
 494:	beqz	a5,424 <__call_exitprocs+0x74>
 498:	mv	s2,a5
 49c:	j	3f8 <__call_exitprocs+0x48>
 4a0:	lw	a5,396(s2)
 4a4:	lw	a1,132(s1)
 4a8:	and	a4,a4,a5
 4ac:	bnez	a4,4c4 <__call_exitprocs+0x114>
 4b0:	mv	a0,s6
 4b4:	jalr	a3
 4b8:	j	484 <__call_exitprocs+0xd4>
 4bc:	sw	s0,4(s2)
 4c0:	j	468 <__call_exitprocs+0xb8>
 4c4:	mv	a0,a1
 4c8:	jalr	a3
 4cc:	j	484 <__call_exitprocs+0xd4>

Disassembly of section .text.atexit:

000004d0 <atexit>:
 4d0:	mv	a1,a0
 4d4:	li	a3,0
 4d8:	li	a2,0
 4dc:	li	a0,0
 4e0:	j	538 <__register_exitproc>

Disassembly of section .text.__libc_fini_array:

000004e4 <__libc_fini_array>:
 4e4:	add	sp,sp,-16
 4e8:	sw	s0,8(sp)
 4ec:	li	a5,0
 4f0:	li	s0,0
 4f4:	sub	s0,s0,a5
 4f8:	sw	s1,4(sp)
 4fc:	sw	ra,12(sp)
 500:	sra	s1,s0,0x2
 504:	beqz	s1,524 <__libc_fini_array+0x40>
 508:	add	s0,s0,-4
 50c:	add	s0,s0,a5
 510:	lw	a5,0(s0)
 514:	add	s1,s1,-1
 518:	add	s0,s0,-4
 51c:	jalr	a5
 520:	bnez	s1,510 <__libc_fini_array+0x2c>
 524:	lw	ra,12(sp)
 528:	lw	s0,8(sp)
 52c:	lw	s1,4(sp)
 530:	add	sp,sp,16
 534:	ret

Disassembly of section .text.__register_exitproc:

00000538 <__register_exitproc>:
 538:	lw	a4,-12(gp) # abc <_global_impure_ptr>
 53c:	lw	a5,328(a4)
 540:	beqz	a5,598 <__register_exitproc+0x60>
 544:	lw	a4,4(a5)
 548:	li	a6,31
 54c:	blt	a6,a4,5c8 <__register_exitproc+0x90>
 550:	sll	a6,a4,0x2
 554:	beqz	a0,580 <__register_exitproc+0x48>
 558:	add	t1,a5,a6
 55c:	sw	a2,136(t1) # 134 <matmul+0x7c>
 560:	lw	a7,392(a5)
 564:	li	a2,1
 568:	sll	a2,a2,a4
 56c:	or	a7,a7,a2
 570:	sw	a7,392(a5)
 574:	sw	a3,264(t1)
 578:	li	a3,2
 57c:	beq	a0,a3,5a4 <__register_exitproc+0x6c>
 580:	add	a4,a4,1
 584:	sw	a4,4(a5)
 588:	add	a5,a5,a6
 58c:	sw	a1,8(a5)
 590:	li	a0,0
 594:	ret
 598:	add	a5,a4,332
 59c:	sw	a5,328(a4)
 5a0:	j	544 <__register_exitproc+0xc>
 5a4:	lw	a3,396(a5)
 5a8:	add	a4,a4,1
 5ac:	sw	a4,4(a5)
 5b0:	or	a3,a3,a2
 5b4:	sw	a3,396(a5)
 5b8:	add	a5,a5,a6
 5bc:	sw	a1,8(a5)
 5c0:	li	a0,0
 5c4:	ret
 5c8:	li	a0,-1
 5cc:	ret

Disassembly of section .text._exit:

000005d0 <_exit>:
 5d0:	li	a7,93
 5d4:	ecall
 5d8:	bltz	a0,5e0 <_exit+0x10>
 5dc:	j	5dc <_exit+0xc>
 5e0:	add	sp,sp,-16
 5e4:	sw	s0,8(sp)
 5e8:	mv	s0,a0
 5ec:	sw	ra,12(sp)
 5f0:	neg	s0,s0
 5f4:	jal	600 <__errno>
 5f8:	sw	s0,0(a0)
 5fc:	j	5fc <_exit+0x2c>

Disassembly of section .text.__errno:

00000600 <__errno>:
 600:	lw	a0,4(gp) # acc <_impure_ptr>
 604:	ret
