
build/program.elf:     file format elf32-littleriscv

Contents of section .text.init:
 0000 17010100 13010100 ef008000 6f000000  ............o...
Contents of section .text:
 0010 97110000 938141f6 17150000 1305457d  ......A.......E}
 0020 17160000 1306c67c 3306a640 93050000  .......|3..@....
 0030 ef008048 17050000 13050538 ef000033  ...H.......8...3
 0040 ef00003d 03250100 93054100 13060000  ...=.%....A.....
 0050 ef004072 6f00c032 67800000 37150000  ..@ro..2g...7...
 0060 b7170000 1307057f 9387077f 638ce700  ............c...
 0070 37030000 13030300 63060300 1305057f  7.......c.......
 0080 67000300 67800000 b7170000 37150000  g...g.......7...
 0090 9385077f 9307057f b385f540 93d52540  ...........@..%@
 00a0 93d7f501 b385b700 93d51540 638c0500  ...........@c...
 00b0 37030000 13030300 63060300 1305057f  7.......c.......
 00c0 67000300 67800000 03478079 63160704  g...g....G.yc...
 00d0 130101ff 23248100 23261100 13840700  ....#$..#&......
 00e0 eff0dff7 b7070000 93870700 638a0700  ............c...
 00f0 37150000 1305c57e 97000000 e7000000  7......~........
 0100 93071000 230cf078 8320c100 03248100  ....#..x. ...$..
 0110 13010101 67800000 67800000 b7070000  ....g...g.......
 0120 93870700 63840702 37150000 130101ff  ....c...7.......
 0130 9305c079 1305c57e 23261100 97000000  ...y...~#&......
 0140 e7000000 8320c100 13010101 6ff0dff3  ..... ......o...
 0150 130101fb 23229104 93040500 13050600  ....#"..........
 0160 23248104 232a5103 23286103 23267103  #$..#*Q.#(a.#&q.
 0170 23248103 23261104 23202105 232e3103  #$..#&..# !.#.1.
 0180 232c4103 23229103 2320a103 232eb101  #,A.#"..# ..#...
 0190 13040600 138c0600 930a0700 938b0700  ................
 01a0 ef000012 93850400 130b0500 ef00800e  ................
 01b0 6304040a 330bab00 130d0500 637e6509  c...3.......c~e.
 01c0 13142400 93050400 ef00c00c 930c0500  ..$.............
 01d0 b3079c01 93050400 13051d00 2324f100  ............#$..
 01e0 ef00400b b3878a00 2326f100 b307ac00  ..@.....#&......
 01f0 b38b9b01 2322f100 83244100 032a8100  ....#"...$A..*..
 0200 93890b00 13090d00 938c0a00 130c0a00  ................
 0210 930d0000 83a50c00 03250c00 130c4c00  .........%....L.
 0220 b38c8c00 ef000007 b38dad00 e39484ff  ................
 0230 23a0b901 13091900 b3898900 330a8a00  #...........3...
 0240 b3848400 e31269fd 8327c100 938a4a00  ......i..'....J.
 0250 938b4b00 e392fafa 8320c104 03248104  ..K...... ...$..
 0260 83244104 03290104 8329c103 032a8103  .$A..)...)...*..
 0270 832a4103 032b0103 832bc102 032c8102  .*A..+...+...,..
 0280 832c4102 032d0102 832dc101 13010105  .,A..-...-......
 0290 67800000 13060500 13050000 93f61500  g...............
 02a0 63840600 3305c500 93d51500 13161600  c...3...........
 02b0 e39605fe 67800000 63400506 63c60506  ....g...c@..c...
 02c0 13860500 93050500 1305f0ff 630c0602  ............c...
 02d0 93061000 637ab600 6358c000 13161600  ....cz..cX......
 02e0 93961600 e36ab6fe 13050000 63e6c500  .....j......c...
 02f0 b385c540 3365d500 93d61600 13561600  ...@3e.......V..
 0300 e39606fe 67800000 93820000 eff05ffb  ....g........._.
 0310 13850500 67800200 3305a040 63d80500  ....g...3..@c...
 0320 b305b040 6ff0dff9 b305b040 93820000  ...@o......@....
 0330 eff01ff9 3305a040 67800200 93820000  ....3..@g.......
 0340 63ca0500 634c0500 eff09ff7 13850500  c...cL..........
 0350 67800200 b305b040 e35805fe 3305a040  g......@.X..3..@
 0360 eff01ff6 3305b040 67800200 93050500  ....3..@g.......
 0370 93060000 13060000 13050000 6f008021  ............o..!
 0380 130101ff 93050000 23248100 23261100  ........#$..#&..
 0390 13040500 ef000028 b7170000 03a5877e  .......(.......~
 03a0 8327c503 63840700 e7800700 13050400  .'..c...........
 03b0 ef004037 130101ff b7070000 23248100  ..@7........#$..
 03c0 37040000 13870700 13040400 3304e440  7...........3..@
 03d0 23229100 23261100 13542440 93840700  #"..#&...T$@....
 03e0 631c0400 03248100 8320c100 83244100  c....$... ...$A.
 03f0 13010101 6ff05fc6 1304f4ff 93172400  ....o._.......$.
 0400 b387f400 83a70700 e7800700 6ff05ffd  ............o._.
 0410 130101ff b7070000 23248100 37040000  ........#$..7...
 0420 13870700 13040400 3304e440 23229100  ........3..@#"..
 0430 23202101 23261100 13542440 93040000  # !.#&...T$@....
 0440 13890700 63928404 eff01fc1 b7070000  ....c...........
 0450 37040000 13870700 13040400 3304e440  7...........3..@
 0460 13542440 93040000 13890700 639a8402  .T$@........c...
 0470 8320c100 03248100 83244100 03290100  . ...$...$A..)..
 0480 13010101 67800000 93972400 b307f900  ....g.....$.....
 0490 83a70700 93841400 e7800700 6ff09ffa  ............o...
 04a0 93972400 b307f900 83a70700 93841400  ..$.............
 04b0 e7800700 6ff09ffb 1303f000 13070500  ....o...........
 04c0 637ec302 9377f700 6390070a 63920508  c~...w..c...c...
 04d0 937606ff 1376f600 b386e600 2320b700  .v...v......# ..
 04e0 2322b700 2324b700 2326b700 13070701  #"..#$..#&......
 04f0 e366d7fe 63140600 67800000 b306c340  .f..c...g......@
 0500 93962600 97020000 b3865600 6780c600  ..&.......V.g...
 0510 2307b700 a306b700 2306b700 a305b700  #.......#.......
 0520 2305b700 a304b700 2304b700 a303b700  #.......#.......
 0530 2303b700 a302b700 2302b700 a301b700  #.......#.......
 0540 2301b700 a300b700 2300b700 67800000  #.......#...g...
 0550 93f5f50f 93968500 b3e5d500 93960501  ................
 0560 b3e5d500 6ff0dff6 93962700 97020000  ....o.....'.....
 0570 b3865600 93820000 e78006fa 93800200  ..V.............
 0580 938707ff 3307f740 3306f600 e378c3f6  ....3..@3....x..
 0590 6ff0dff3 b7170000 03a7877e 13030500  o..........~....
 05a0 83278714 63960700 9307c714 2324f714  .'..c.......#$..
 05b0 03a74700 1308f001 1305f0ff 634ae804  ..G.........cJ..
 05c0 93182700 630c0302 33851701 2324c508  ..'.c...3...#$..
 05d0 03a88718 13061000 3316e600 3368c800  ........3...3h..
 05e0 23a40719 2324d510 93062000 6318d300  #...#$.... .c...
 05f0 83a6c718 33e6c600 23a6c718 13071700  ....3...#.......
 0600 23a2e700 b3871701 23a4b700 13050000  #.......#.......
 0610 67800000 130101fd b7170000 232e3101  g...........#.1.
 0620 83a9877e 232c4101 232a5101 23286101  ...~#,A.#*Q.#(a.
 0630 23261102 23248102 23229102 23202103  #&..#$..#"..# !.
 0640 23267101 930a0500 138a0500 130b1000  #&q.............
 0650 83a48914 638c0400 03a44400 1309f4ff  ....c.....D.....
 0660 13142400 33848400 63580902 8320c102  ..$.3...cX... ..
 0670 03248102 83244102 03290102 8329c101  .$...$A..)...)..
 0680 032a8101 832a4101 032b0101 832bc100  .*...*A..+...+..
 0690 13010103 67800000 630c0a00 83274410  ....g...c....'D.
 06a0 63884701 1309f9ff 1304c4ff 6ff0dffb  c.G.........o...
 06b0 03a74400 83274400 1307f7ff 631c2703  ..D..'D.....c.'.
 06c0 23a22401 e38007fe 83a68418 33172b01  #.$.........3.+.
 06d0 83ab4400 b376d700 63920602 e7800700  ..D..v..c.......
 06e0 83a74400 e39677f7 83a78914 e38c97fa  ..D...w.........
 06f0 6ff01ff6 23220400 6ff0dffc 83a6c418  o...#"..o.......
 0700 83254408 3377d700 63180700 13850a00  .%D.3w..c.......
 0710 e7800700 6ff0dffc 13850500 e7800700  ....o...........
 0720 6ff01ffc 93050000 13060000 93060000  o...............
 0730 13070000 93070000 9308d005 73000000  ............s...
 0740 63520502 130101ff 23248100 13040500  cR......#$......
 0750 23261100 33048040 ef000001 23208500  #&..3..@....# ..
 0760 6f000000 6f000000 b7170000 03a5477e  o...o.........G~
 0770 67800000                             g...            
Contents of section .text.startup:
 0774 938601c4 9307407b 138701c4 93860640  ......@{.......@
 0784 13060001 93051000 13050000 6ff01f9c  ............o...
Contents of section .data:
 0798 00000000 00000000 00000000 00000000  ................
 07a8 00000000 00000000 00000000 00000000  ................
 07b8 00000000 00000000 00000000 00000000  ................
 07c8 00000000 00000000 00000000 00000000  ................
 07d8 00000000 00000000 00000000 00000000  ................
 07e8 00000000 00000000 00000000 00000000  ................
 07f8 00000000 00000000 00000000 00000000  ................
 0808 00000000 00000000 00000000 00000000  ................
 0818 00000000 00000000 00000000 00000000  ................
 0828 00000000 00000000 00000000 00000000  ................
 0838 00000000 00000000 00000000 00000000  ................
 0848 00000000 00000000 00000000 00000000  ................
 0858 00000000 00000000 00000000 00000000  ................
 0868 00000000 00000000 00000000 00000000  ................
 0878 00000000 00000000 00000000 00000000  ................
 0888 00000000 00000000 00000000 00000000  ................
 0898 00000000 00000000 00000000 00000000  ................
 08a8 00000000 00000000 00000000 00000000  ................
 08b8 00000000 00000000 00000000 00000000  ................
 08c8 00000000 00000000 00000000 00000000  ................
 08d8 00000000 00000000 00000000 00000000  ................
 08e8 00000000 00000000 00000000 00000000  ................
 08f8 00000000 00000000 00000000 00000000  ................
 0908 00000000 00000000 00000000 00000000  ................
 0918 00000000 00000000 00000000 00000000  ................
 0928 00000000 00000000 00000000 00000000  ................
 0938 00000000 00000000 00000000 00000000  ................
 0948 00000000 00000000 00000000 00000000  ................
 0958 00000000 00000000 00000000 00000000  ................
 0968 00000000 00000000 00000000 00000000  ................
 0978 00000000 00000000 00000000 00000000  ................
 0988 00000000 00000000 00000000 00000000  ................
 0998 00000000 00000000 00000000 00000000  ................
 09a8 00000000 00000000 00000000 00000000  ................
 09b8 00000000 00000000 00000000 00000000  ................
 09c8 00000000 00000000 00000000 00000000  ................
 09d8 00000000 00000000 00000000 00000000  ................
 09e8 00000000 00000000 00000000 00000000  ................
 09f8 00000000 00000000 00000000 00000000  ................
 0a08 00000000 00000000 00000000 00000000  ................
 0a18 00000000 00000000 00000000 00000000  ................
 0a28 00000000 00000000 00000000 00000000  ................
 0a38 00000000 00000000 00000000 00000000  ................
 0a48 00000000 00000000 00000000 00000000  ................
 0a58 00000000 00000000 00000000 00000000  ................
 0a68 00000000 00000000 00000000 00000000  ................
 0a78 00000000 00000000 00000000 00000000  ................
 0a88 00000000 00000000 00000000 00000000  ................
 0a98 00000000 00000000 00000000 00000000  ................
 0aa8 00000000 00000000 00000000 00000000  ................
 0ab8 00000000 00000000 00000000 00000000  ................
 0ac8 00000000 00000000 00000000 00000000  ................
 0ad8 00000000 00000000 00000000 00000000  ................
 0ae8 00000000 00000000 00000000 00000000  ................
 0af8 00000000 00000000 00000000 00000000  ................
 0b08 00000000 00000000 00000000 00000000  ................
 0b18 00000000 00000000 00000000 00000000  ................
 0b28 00000000 00000000 00000000 00000000  ................
 0b38 00000000 00000000 00000000 00000000  ................
 0b48 00000000 00000000 00000000 00000000  ................
 0b58 00000000 00000000 00000000 00000000  ................
 0b68 00000000 00000000 00000000 00000000  ................
 0b78 00000000 00000000 00000000 00000000  ................
 0b88 00000000 00000000 00000000 00000000  ................
 0b98 00000000 00000000 00000000 00000000  ................
 0ba8 00000000 00000000 00000000 01000000  ................
 0bb8 01000000 00000000 03000000 01000000  ................
 0bc8 02000000 00000000 00000000 00000000  ................
 0bd8 00000000 00000000 02000000 01000000  ................
 0be8 02000000 03000000 00000000 00000000  ................
 0bf8 03000000 03000000 02000000 02000000  ................
 0c08 01000000 02000000 03000000 03000000  ................
 0c18 00000000 02000000 02000000 01000000  ................
 0c28 01000000 02000000 02000000 00000000  ................
 0c38 02000000 02000000 01000000 02000000  ................
 0c48 03000000 02000000 02000000 03000000  ................
 0c58 03000000 02000000 02000000 01000000  ................
 0c68 01000000 01000000 01000000 02000000  ................
 0c78 01000000 02000000 02000000 03000000  ................
 0c88 03000000 03000000 00000000 00000000  ................
 0c98 03000000 02000000 03000000 02000000  ................
 0ca8 03000000 01000000 02000000 01000000  ................
 0cb8 01000000 02000000 02000000 00000000  ................
 0cc8 01000000 00000000 03000000 02000000  ................
 0cd8 01000000 01000000 01000000 02000000  ................
 0ce8 00000000 01000000 02000000 02000000  ................
 0cf8 00000000 02000000 01000000 03000000  ................
 0d08 03000000 02000000 03000000 02000000  ................
 0d18 00000000 03000000 01000000 03000000  ................
 0d28 03000000 02000000 00000000 01000000  ................
 0d38 00000000 01000000 01000000 02000000  ................
 0d48 02000000 01000000 01000000 02000000  ................
 0d58 02000000 01000000 02000000 03000000  ................
 0d68 03000000 01000000 03000000 02000000  ................
 0d78 02000000 02000000 03000000 03000000  ................
 0d88 01000000 00000000 02000000 01000000  ................
 0d98 00000000 00000000 00000000 01000000  ................
 0da8 01000000 02000000 00000000 03000000  ................
 0db8 02000000 03000000 03000000 00000000  ................
 0dc8 02000000 03000000 01000000 00000000  ................
 0dd8 00000000 02000000 01000000 02000000  ................
 0de8 00000000 02000000 01000000 01000000  ................
 0df8 02000000 03000000 01000000 03000000  ................
 0e08 02000000 01000000 00000000 00000000  ................
 0e18 00000000 00000000 00000000 02000000  ................
 0e28 02000000 00000000 02000000 01000000  ................
 0e38 02000000 00000000 03000000 02000000  ................
 0e48 02000000 00000000 00000000 03000000  ................
 0e58 02000000 01000000 01000000 03000000  ................
 0e68 00000000 02000000 00000000 00000000  ................
 0e78 01000000 00000000 02000000 03000000  ................
 0e88 03000000 01000000 03000000 03000000  ................
 0e98 00000000 00000000 02000000 02000000  ................
 0ea8 00000000 00000000 00000000 01000000  ................
 0eb8 00000000 00000000 01000000 03000000  ................
 0ec8 00000000 02000000 01000000 03000000  ................
 0ed8 02000000 02000000 01000000 03000000  ................
 0ee8 02000000 00000000 01000000 02000000  ................
 0ef8 02000000 03000000 02000000 01000000  ................
 0f08 01000000 01000000 01000000 03000000  ................
 0f18 00000000 01000000 03000000 02000000  ................
 0f28 02000000 03000000 01000000 01000000  ................
 0f38 02000000 00000000 02000000 01000000  ................
 0f48 01000000 02000000 03000000 01000000  ................
 0f58 00000000 01000000 00000000 01000000  ................
 0f68 01000000 00000000 00000000 02000000  ................
 0f78 00000000 03000000 00000000 03000000  ................
 0f88 00000000 03000000 02000000 02000000  ................
 0f98 03000000 03000000 02000000 01000000  ................
 0fa8 00000000 02000000 02000000 00000000  ................
 0fb8 03000000 02000000 00000000 03000000  ................
 0fc8 01000000 00000000 03000000 02000000  ................
 0fd8 03000000 02000000 00000000 03000000  ................
 0fe8 03000000 01000000 02000000 03000000  ................
 0ff8 00000000 00000000 01000000 01000000  ................
 1008 01000000 02000000 03000000 01000000  ................
 1018 02000000 03000000 01000000 01000000  ................
 1028 03000000 02000000 02000000 00000000  ................
 1038 01000000 03000000 02000000 02000000  ................
 1048 02000000 00000000 00000000 01000000  ................
 1058 00000000 01000000 03000000 03000000  ................
 1068 00000000 03000000 03000000 03000000  ................
 1078 03000000 00000000 03000000 02000000  ................
 1088 01000000 02000000 02000000 00000000  ................
 1098 00000000 03000000 00000000 01000000  ................
 10a8 01000000 00000000 03000000 03000000  ................
 10b8 01000000 02000000 03000000 03000000  ................
 10c8 00000000 01000000 02000000 01000000  ................
 10d8 00000000 01000000 02000000 02000000  ................
 10e8 01000000 00000000 03000000 01000000  ................
 10f8 00000000 02000000 02000000 01000000  ................
 1108 01000000 01000000 01000000 01000000  ................
 1118 01000000 02000000 00000000 03000000  ................
 1128 01000000 01000000 02000000 02000000  ................
 1138 03000000 03000000 01000000 03000000  ................
 1148 02000000 00000000 00000000 00000000  ................
 1158 03000000 03000000 03000000 02000000  ................
 1168 01000000 02000000 03000000 01000000  ................
 1178 00000000 00000000 00000000 00000000  ................
 1188 01000000 02000000 02000000 01000000  ................
 1198 01000000 03000000 03000000 03000000  ................
 11a8 01000000 01000000 02000000 03000000  ................
 11b8 01000000 03000000 03000000 02000000  ................
 11c8 03000000 02000000 01000000 02000000  ................
 11d8 03000000 00000000 02000000 02000000  ................
 11e8 01000000 01000000 00000000 00000000  ................
 11f8 00000000 00000000 00000000 01000000  ................
 1208 03000000 03000000 01000000 01000000  ................
 1218 01000000 02000000 02000000 03000000  ................
 1228 02000000 01000000 01000000 01000000  ................
 1238 01000000 03000000 00000000 02000000  ................
 1248 02000000 01000000 03000000 02000000  ................
 1258 01000000 02000000 02000000 01000000  ................
 1268 03000000 01000000 03000000 01000000  ................
 1278 03000000 02000000 03000000 01000000  ................
 1288 02000000 01000000 03000000 02000000  ................
 1298 02000000 00000000 01000000 00000000  ................
 12a8 00000000 01000000 02000000 03000000  ................
 12b8 03000000 01000000 00000000 00000000  ................
 12c8 00000000 03000000 01000000 02000000  ................
 12d8 03000000 02000000 03000000 02000000  ................
 12e8 00000000 00000000 00000000 00000000  ................
 12f8 00000000 03000000 01000000 03000000  ................
 1308 00000000 00000000 00000000 03000000  ................
 1318 01000000 01000000 01000000 01000000  ................
 1328 02000000 01000000 02000000 03000000  ................
 1338 02000000 00000000 00000000 02000000  ................
 1348 02000000 03000000 00000000 03000000  ................
 1358 00000000 00000000 03000000 00000000  ................
 1368 03000000 01000000 03000000 03000000  ................
 1378 01000000 01000000 01000000 02000000  ................
 1388 02000000 01000000 03000000 00000000  ................
 1398 03000000 03000000 01000000 00000000  ................
 13a8 00000000 03000000 02000000 00000000  ................
 13b8 00000000 a4160000 0c170000 74170000  ............t...
 13c8 00000000 00000000 00000000 00000000  ................
 13d8 00000000 00000000 00000000 00000000  ................
 13e8 00000000 00000000 00000000 00000000  ................
 13f8 00000000 00000000 00000000 00000000  ................
 1408 00000000 00000000 00000000 00000000  ................
 1418 00000000 00000000 00000000 00000000  ................
 1428 00000000 00000000 00000000 00000000  ................
 1438 00000000 00000000 00000000 00000000  ................
 1448 00000000 00000000 00000000 00000000  ................
 1458 00000000 00000000 01000000 00000000  ................
 1468 0e33cdab 34126de6 ecde0500 0b000000  .3..4.m.........
 1478 00000000 00000000 00000000 00000000  ................
 1488 00000000 00000000 00000000 00000000  ................
 1498 00000000 00000000 00000000 00000000  ................
 14a8 00000000 00000000 00000000 00000000  ................
 14b8 00000000 00000000 00000000 00000000  ................
 14c8 00000000 00000000 00000000 00000000  ................
 14d8 00000000 00000000 00000000 00000000  ................
 14e8 00000000 00000000 00000000 00000000  ................
 14f8 00000000 00000000 00000000 00000000  ................
 1508 00000000 00000000 00000000 00000000  ................
 1518 00000000 00000000 00000000 00000000  ................
 1528 00000000 00000000 00000000 00000000  ................
 1538 00000000 00000000 00000000 00000000  ................
 1548 00000000 00000000 00000000 00000000  ................
 1558 00000000 00000000 00000000 00000000  ................
 1568 00000000 00000000 00000000 00000000  ................
 1578 00000000 00000000 00000000 00000000  ................
 1588 00000000 00000000 00000000 00000000  ................
 1598 00000000 00000000 00000000 00000000  ................
 15a8 00000000 00000000 00000000 00000000  ................
 15b8 00000000 00000000 00000000 00000000  ................
 15c8 00000000 00000000 00000000 00000000  ................
 15d8 00000000 00000000 00000000 00000000  ................
 15e8 00000000 00000000 00000000 00000000  ................
 15f8 00000000 00000000 00000000 00000000  ................
 1608 00000000 00000000 00000000 00000000  ................
 1618 00000000 00000000 00000000 00000000  ................
 1628 00000000 00000000 00000000 00000000  ................
 1638 00000000 00000000 00000000 00000000  ................
 1648 00000000 00000000 00000000 00000000  ................
 1658 00000000 00000000 00000000 00000000  ................
 1668 00000000 00000000 00000000 00000000  ................
 1678 00000000 00000000 00000000 00000000  ................
 1688 00000000 00000000 00000000 00000000  ................
 1698 00000000 00000000 00000000 00000000  ................
 16a8 00000000 00000000 00000000 00000000  ................
 16b8 00000000 00000000 00000000 00000000  ................
 16c8 00000000 00000000 00000000 00000000  ................
 16d8 00000000 00000000 00000000 00000000  ................
 16e8 00000000 00000000 00000000 00000000  ................
 16f8 00000000 00000000 00000000 00000000  ................
 1708 00000000 00000000 00000000 00000000  ................
 1718 00000000 00000000 00000000 00000000  ................
 1728 00000000 00000000 00000000 00000000  ................
 1738 00000000 00000000 00000000 00000000  ................
 1748 00000000 00000000 00000000 00000000  ................
 1758 00000000 00000000 00000000 00000000  ................
 1768 00000000 00000000 00000000 00000000  ................
 1778 00000000 00000000 00000000 00000000  ................
 1788 00000000 00000000 00000000 00000000  ................
 1798 00000000 00000000 00000000 00000000  ................
 17a8 00000000 00000000 00000000 00000000  ................
 17b8 00000000 00000000 00000000 00000000  ................
 17c8 00000000 00000000 00000000 00000000  ................
 17d8 00000000 00000000 00000000 b8130000  ................
 17e8 b8130000                             ....            
Contents of section .eh_frame:
 17ec 00000000                             ....            
Contents of section .fini_array:
 17f0 c8000000                             ....            
Contents of section .init_array:
 17f4 1c010000                             ....            
Contents of section .comment:
 0000 4743433a 2028474e 55292038 2e322e30  GCC: (GNU) 8.2.0
 0010 00                                   .               
Contents of section .debug_line:
 0000 41000000 02002100 00000101 fb0e0d00  A.....!.........
 0010 01010101 00000001 00000173 72630000  ...........src..
 0020 696e6974 2e730001 00000000 05020000  init.s..........
 0030 00001803 02090800 01030509 04000109  ................
 0040 04000001 019f0100 0002007a 00000001  ...........z....
 0050 01fb0e0d 00010101 01000000 01000001  ................
 0060 73726300 2f686f6d 652f7374 7564656e  src./home/studen
 0070 742f6c6f 63616c2f 6c69622f 6763632f  t/local/lib/gcc/
 0080 72697363 7633322d 756e6b6e 6f776e2d  riscv32-unknown-
 0090 656c662f 382e322e 302f696e 636c7564  elf/8.2.0/includ
 00a0 6500006d 61746d75 6c2e6300 01000064  e..matmul.c....d
 00b0 61746173 65742e68 00010000 73746464  ataset.h....stdd
 00c0 65662e68 00020000 00050100 05025001  ef.h..........P.
 00d0 00001805 03030109 00000103 01090000  ................
 00e0 01050106 037e0900 0001050a 0302090c  .....~..........
 00f0 00010501 037e0904 00010300 09300001  .....~.......0..
 0100 050a0302 09100001 03010904 0001037f  ................
 0110 09040001 05030603 01090400 01050a06  ................
 0120 03000900 00010503 06030209 04000105  ................
 0130 1f060301 09040001 050e0301 09440001  .............D..
 0140 05010379 09100001 050e0307 09080001  ...y............
 0150 05090002 04030603 02090400 01051d00  ................
 0160 02040306 03000900 0001050d 00020403  ................
 0170 03000914 00010507 00020403 037f0904  ................
 0180 00010002 04020603 02090400 01051400  ................
 0190 02040206 03000900 00010529 00020402  ...........)....
 01a0 037c0904 00010505 00020402 03000910  .|..............
 01b0 00010503 037f0904 00010501 03080910  ................
 01c0 0001093c 00000101 05010005 02740700  ...<.........t..
 01d0 00031501 05020301 09000001 03010900  ................
 01e0 00010920 00000101 8e000000 02004800  ... ..........H.
 01f0 00000101 fb0e0d00 01010101 00000001  ................
 0200 0000012e 2e2f2e2e 2f2e2e2f 2e2f7269  ...../../.././ri
 0210 7363762d 6763632f 6c696267 63632f63  scv-gcc/libgcc/c
 0220 6f6e6669 672f7269 73637600 006d756c  onfig/riscv..mul
 0230 6469332e 53000100 00000005 02940200  di3.S...........
 0240 00032401 03010904 00010302 09040001  ..$.............
 0250 03010904 00010301 09040001 03020904  ................
 0260 00010301 09040001 03010904 00010301  ................
 0270 09040001 09040000 01016401 00000200  ..........d.....
 0280 45000000 0101fb0e 0d000101 01010000  E...............
 0290 00010000 012e2e2f 2e2e2f2e 2e2f2e2f  ......./../.././
 02a0 72697363 762d6763 632f6c69 62676363  riscv-gcc/libgcc
 02b0 2f636f6e 6669672f 72697363 76000064  /config/riscv..d
 02c0 69762e53 00010000 00000502 b8020000  iv.S............
 02d0 03c40001 03010904 00010304 09040001  ................
 02e0 03010904 00010301 09040001 03010904  ................
 02f0 00010301 09040001 03010904 00010302  ................
 0300 09040001 03010904 00010301 09040001  ................
 0310 03010904 00010302 09040001 03020904  ................
 0320 00010301 09040001 03010904 00010302  ................
 0330 09040001 03010904 00010301 09040001  ................
 0340 03020904 00010305 09040001 03010904  ................
 0350 00010301 09040001 03010904 00010305  ................
 0360 09040001 03010904 00010301 09040001  ................
 0370 03010904 00010302 09040001 03020904  ................
 0380 00010301 09040001 03010904 00010301  ................
 0390 09040001 03040904 00010301 09040001  ................
 03a0 03010904 00010302 09040001 03010904  ................
 03b0 00010301 09040001 03020904 00010301  ................
 03c0 09040001 03020904 00010301 09040001  ................
 03d0 03010904 00010301 09040001 09040000  ................
 03e0 0101                                 ..              
Contents of section .debug_info:
 0000 22000000 02000000 00000401 00000000  "...............
 0010 00000000 10000000 00000000 0b000000  ................
 0020 2f000000 0180dc05 00000400 14000000  /...............
 0030 04015f00 00000ce9 0000000b 00000018  .._.............
 0040 00000000 00000045 00000002 4b000000  .......E....K...
 0050 020b0d36 00000003 25000000 04040569  ...6....%......i
 0060 6e740005 25000000 4d000000 064d0000  nt..%...M....M..
 0070 00ff0007 04075200 00000894 00000002  ......R.........
 0080 0b223d00 00000503 b40f0000 08a70000  ."=.............
 0090 00021c0f 3d000000 0503b40b 000009ca  ....=...........
 00a0 00000002 2d0f3d00 00000004 24000000  ....-.=.....$...
 00b0 2c000000 39000000 32000000 36000000  ,...9...2...6...
 00c0 24000000 26000000 2e000000 37000000  $...&.......7...
 00d0 19000000 26000000 22000000 33000000  ....&..."...3...
 00e0 1e000000 28000000 20000000 25000000  ....(... ...%...
 00f0 22000000 26000000 34000000 33000000  "...&...4...3...
 0100 28000000 1c000000 20000000 29000000  (....... ...)...
 0110 16000000 1a000000 23000000 31000000  ........#...1...
 0120 23000000 2a000000 17000000 1a000000  #...*...........
 0130 1a000000 21000000 24000000 34000000  ....!...$...4...
 0140 28000000 2d000000 31000000 32000000  (...-...1...2...
 0150 22000000 29000000 23000000 2c000000  "...)...#...,...
 0160 19000000 17000000 17000000 1f000000  ................
 0170 1d000000 27000000 2e000000 32000000  ....'.......2...
 0180 24000000 1f000000 20000000 2a000000  $....... ...*...
 0190 20000000 22000000 29000000 2c000000   ..."...)...,...
 01a0 21000000 2b000000 1e000000 1f000000  !...+...........
 01b0 1c000000 27000000 2e000000 32000000  ....'.......2...
 01c0 28000000 23000000 25000000 2b000000  (...#...%...+...
 01d0 23000000 21000000 2b000000 2b000000  #...!...+...+...
 01e0 1d000000 25000000 1d000000 1b000000  ....%...........
 01f0 16000000 1e000000 21000000 2b000000  ........!...+...
 0200 1f000000 20000000 19000000 24000000  .... .......$...
 0210 1f000000 1f000000 1d000000 28000000  ............(...
 0220 1c000000 1a000000 16000000 1d000000  ................
 0230 2a000000 30000000 33000000 41000000  *...0...3...A...
 0240 34000000 2b000000 36000000 3f000000  4...+...6...?...
 0250 22000000 2a000000 2c000000 38000000  "...*...,...8...
 0260 21000000 26000000 20000000 1a000000  !...&... .......
 0270 16000000 17000000 26000000 31000000  ........&...1...
 0280 20000000 1a000000 1e000000 2b000000   ...........+...
 0290 16000000 18000000 1b000000 2d000000  ............-...
 02a0 18000000 1a000000 11000000 23000000  ............#...
 02b0 23000000 2f000000 33000000 3b000000  #.../...3...;...
 02c0 3b000000 2b000000 2a000000 2b000000  ;...+...*...+...
 02d0 1c000000 25000000 2b000000 38000000  ....%...+...8...
 02e0 30000000 24000000 20000000 1c000000  0...$... .......
 02f0 13000000 1c000000 22000000 2e000000  ........".......
 0300 22000000 1c000000 22000000 2d000000  "......."...-...
 0310 14000000 1d000000 1c000000 32000000  ............2...
 0320 20000000 1a000000 15000000 25000000   ...........%...
 0330 26000000 33000000 32000000 37000000  &...3...2...7...
 0340 2d000000 26000000 31000000 38000000  -...&...1...8...
 0350 1c000000 26000000 28000000 32000000  ....&...(...2...
 0360 1d000000 2c000000 1a000000 20000000  ....,....... ...
 0370 23000000 32000000 2b000000 35000000  #...2...+...5...
 0380 2c000000 29000000 29000000 22000000  ,...)...)..."...
 0390 18000000 23000000 22000000 27000000  ....#..."...'...
 03a0 21000000 22000000 1d000000 15000000  !..."...........
 03b0 21000000 1f000000 2d000000 30000000  !.......-...0...
 03c0 2a000000 1b000000 1d000000 28000000  *...........(...
 03d0 11000000 15000000 20000000 2d000000  ........ ...-...
 03e0 1e000000 1d000000 1a000000 1a000000  ................
 03f0 1b000000 26000000 21000000 1d000000  ....&...!.......
 0400 1f000000 20000000 1f000000 23000000  .... .......#...
 0410 19000000 1d000000 1d000000 22000000  ............"...
 0420 0f000000 19000000 17000000 22000000  ............"...
 0430 1c000000 2c000000 2d000000 29000000  ....,...-...)...
 0440 29000000 25000000 2d000000 2d000000  )...%...-...-...
 0450 11000000 22000000 2c000000 2e000000  ...."...,.......
 0460 1e000000 2b000000 1d000000 1f000000  ....+...........
 0470 24000000 25000000 32000000 36000000  $...%...2...6...
 0480 2c000000 1c000000 28000000 26000000  ,.......(...&...
 0490 16000000 1b000000 1c000000 2d000000  ............-...
 04a0 20000000 24000000 16000000 028d0000   ...$...........
 04b0 0003d817 4d000000 03860400 00070805  ....M...........
 04c0 3d000000 071004be 0000000a b3000000  =...............
 04d0 01150674 07000020 00000001 9c020500  ...t... ........
 04e0 0008dc00 00000117 103d0000 000503b4  .........=......
 04f0 0700000b 94070000 02050000 0c015a01  ..............Z.
 0500 300c015b 01310c01 5c01400c 015d0503  0..[.1..\.@..]..
 0510 b40f0000 0c015e05 03b40b00 000c015f  ......^........_
 0520 0503b407 00000000 0d280000 00010606  .........(......
 0530 50010000 44010000 019cd305 00000ef6  P...D...........
 0540 00000001 061a9204 00000000 00000ea0  ................
 0550 00000001 062f9204 00002c00 00000f6c  ...../....,....l
 0560 64610001 06449204 00004d00 00000f41  da...D....M....A
 0570 00010657 d3050000 79000000 0f420001  ...W....y....B..
 0580 0669d305 0000a500 00000f43 00010675  .i.........C...u
 0590 d9050000 d1000000 10690001 080a8604  .........i......
 05a0 0000fd00 0000106a 0001080d 86040000  .......j........
 05b0 11010000 106b0001 08108604 00002f01  .....k......../.
 05c0 000011d6 00000001 090a8604 00004301  ..............C.
 05d0 000011b8 00000001 0a0a8604 00006101  ..............a.
 05e0 00001200 00000010 73756d00 010e0e25  ........sum....%
 05f0 0000007f 01000000 00130431 00000013  ...........1....
 0600 04250000 00002200 00000200 2c010000  .%....".....,...
 0610 0401e801 00009402 0000b802 0000fd00  ................
 0620 00002f01 00002f00 00000180 22000000  ../.../....."...
 0630 02004001 00000401 7a020000 b8020000  ..@.....z.......
 0640 6c030000 90010000 2f010000 2f000000  l......./.../...
 0650 0180                                 ..              
Contents of section .debug_abbrev:
 0000 01110010 06110112 01030e1b 0e250e13  .............%..
 0010 05000000 01110125 0e130b03 0e1b0e55  .......%.......U
 0020 17110110 17000002 1600030e 3a0b3b0b  ............:.;.
 0030 390b4913 00000326 00491300 00042400  9.I....&.I....$.
 0040 0b0b3e0b 03080000 05010149 13011300  ..>........I....
 0050 00062100 49132f0b 00000724 000b0b3e  ..!.I./....$...>
 0060 0b030e00 00083400 030e3a0b 3b0b390b  ......4...:.;.9.
 0070 49130218 00000934 00030e3a 0b3b0b39  I......4...:.;.9
 0080 0b49131c 0300000a 2e013f19 030e3a0b  .I........?...:.
 0090 3b0b390b 11011206 40189742 19011300  ;.9.....@..B....
 00a0 000b8982 01011101 95421931 1300000c  .........B.1....
 00b0 8a820100 02189142 1800000d 2e013f19  .......B......?.
 00c0 030e3a0b 3b0b390b 27191101 12064018  ..:.;.9.'.....@.
 00d0 96421901 1300000e 0500030e 3a0b3b0b  .B..........:.;.
 00e0 390b4913 02170000 0f050003 083a0b3b  9.I..........:.;
 00f0 0b390b49 13021700 00103400 03083a0b  .9.I......4...:.
 0100 3b0b390b 49130217 00001134 00030e3a  ;.9.I......4...:
 0110 0b3b0b39 0b491302 17000012 0b015517  .;.9.I........U.
 0120 0000130f 000b0b49 13000000 01110010  .......I........
 0130 06110112 01030e1b 0e250e13 05000000  .........%......
 0140 01110010 06110112 01030e1b 0e250e13  .............%..
 0150 05000000                             ....            
Contents of section .debug_aranges:
 0000 1c000000 02000000 00000400 00000000  ................
 0010 00000000 10000000 00000000 00000000  ................
 0020 24000000 02002600 00000400 00000000  $.....&.........
 0030 50010000 44010000 74070000 20000000  P...D...t... ...
 0040 00000000 00000000 1c000000 02000606  ................
 0050 00000400 00000000 94020000 24000000  ............$...
 0060 00000000 00000000 1c000000 02002c06  ..............,.
 0070 00000400 00000000 b8020000 b4000000  ................
 0080 00000000 00000000                    ........        
Contents of section .debug_str:
 0000 7372632f 696e6974 2e73002f 686f6d65  src/init.s./home
 0010 2f737475 64656e74 2f6f7474 65722d70  /student/otter-p
 0020 726f6772 616d732f 6d61746d 756c0047  rograms/matmul.G
 0030 4e552041 5320322e 33312e31 006c6f6e  NU AS 2.31.1.lon
 0040 67206c6f 6e672069 6e740064 6174615f  g long int.data_
 0050 7400756e 7369676e 65642069 6e740047  t.unsigned int.G
 0060 4e552043 31372038 2e322e30 202d6d61  NU C17 8.2.0 -ma
 0070 7263683d 72763332 69202d6d 6162693d  rch=rv32i -mabi=
 0080 696c7033 32202d67 202d4f33 0073697a  ilp32 -g -O3.siz
 0090 655f7400 696e7075 74315f64 61746100  e_t.input1_data.
 00a0 6e636f72 65730069 6e707574 325f6461  ncores.input2_da
 00b0 7461006d 61696e00 73746172 74006c6f  ta.main.start.lo
 00c0 6e672064 6f75626c 65007665 72696679  ng double.verify
 00d0 5f646174 6100626c 6f636b00 72657375  _data.block.resu
 00e0 6c74735f 64617461 00737263 2f6d6174  lts_data.src/mat
 00f0 6d756c2e 6300636f 72656964 002e2e2f  mul.c.coreid.../
 0100 2e2e2f2e 2e2f2e2f 72697363 762d6763  ../.././riscv-gc
 0110 632f6c69 62676363 2f636f6e 6669672f  c/libgcc/config/
 0120 72697363 762f6d75 6c646933 2e53002f  riscv/muldi3.S./
 0130 686f6d65 2f737475 64656e74 2f726973  home/student/ris
 0140 63762d74 6f6f6c73 2f726973 63762d67  cv-tools/riscv-g
 0150 6e752d74 6f6f6c63 6861696e 2f627569  nu-toolchain/bui
 0160 6c642d67 63632d6e 65776c69 622d7374  ld-gcc-newlib-st
 0170 61676532 2f726973 63763332 2d756e6b  age2/riscv32-unk
 0180 6e6f776e 2d656c66 2f6c6962 67636300  nown-elf/libgcc.
 0190 2e2e2f2e 2e2f2e2e 2f2e2f72 69736376  ../../.././riscv
 01a0 2d676363 2f6c6962 6763632f 636f6e66  -gcc/libgcc/conf
 01b0 69672f72 69736376 2f646976 2e5300    ig/riscv/div.S. 
Contents of section .debug_loc:
 0000 50010000 60010000 01005a60 010000f8  P...`.....Z`....
 0010 01000001 0059f801 00009402 00000400  .....Y..........
 0020 f3015a9f 00000000 00000000 50010000  ..Z.........P...
 0030 a3010000 01005ba3 01000094 02000004  ......[.........
 0040 00f3015b 9f000000 00000000 00500100  ...[.........P..
 0050 00a30100 0001005c a3010000 c4010000  .......\........
 0060 010058c4 01000094 02000004 00f3015c  ..X............\
 0070 9f000000 00000000 00500100 00a30100  .........P......
 0080 0001005d a3010000 f8010000 010068f8  ...]..........h.
 0090 01000094 02000004 00f3015d 9f000000  ...........]....
 00a0 00000000 00500100 00a30100 0001005e  .....P.........^
 00b0 a3010000 f8010000 010065f8 01000094  ..........e.....
 00c0 02000004 00f3015e 9f000000 00000000  .......^........
 00d0 00500100 00a30100 0001005f a3010000  .P........._....
 00e0 f4010000 010067f4 01000094 02000004  ......g.........
 00f0 00f3015f 9f000000 00000000 00b00100  ..._............
 0100 00f80100 00020030 9f000000 00000000  .......0........
 0110 00f80100 00080200 0001006a 08020000  ...........j....
 0120 58020000 01006200 00000000 00000008  X.....b.........
 0130 02000014 02000002 00309f00 00000000  .........0......
 0140 000000ac 010000af 01000001 005aaf01  .............Z..
 0150 0000b801 00000100 66000000 00000000  ........f.......
 0160 00b00100 00cb0100 0001005a cb010000  ...........Z....
 0170 58020000 01006a00 00000000 00000008  X.....j.........
 0180 02000014 02000002 00309f14 02000058  .........0.....X
 0190 02000001 006b0000 00000000 0000      .....k........  
Contents of section .debug_ranges:
 0000 f8010000 08020000 10020000 34020000  ............4...
 0010 00000000 00000000 50010000 94020000  ........P.......
 0020 74070000 94070000 00000000 00000000  t...............
Contents of section .debug_frame:
 0000 0c000000 ffffffff 0100017c 010d0200  ...........|....
 0010 4c000000 00000000 50010000 44010000  L.......P...D...
 0020 440e5044 89037888 02950796 08970998  D.PD..x.........
 0030 0a810192 04930594 06990b9a 0c9b0d02  ................
 0040 ccc144c8 44c944d2 44d344d4 44d544d6  ..D.D.D.D.D.D.D.
 0050 44d744d8 44d944da 44db440e 00000000  D.D.D.D.D.D.....
 0060 0c000000 00000000 74070000 20000000  ........t... ...

Disassembly of section .text.init:

00000000 <entry>:
# This code is executed first.

.section .text.init
entry:

    la    sp, __sp   # set up the stack pointer, using a constant defined in the linker script.
   0:	auipc	sp,0x10
   4:	mv	sp,sp
  
    call _start		# use this if using C runtime, std c library
   8:	jal	ra,10 <_start>

0000000c <end>:
  
 #   call  main          # call the main function if barebones assembly/C

end:
    j end               # loop when finished if there is no environment to return to.
   c:	j	c <end>

Disassembly of section .text:

00000010 <_start>:
  10:	auipc	gp,0x1
  14:	addi	gp,gp,-156 # f74 <__global_pointer$>
  18:	auipc	a0,0x1
  1c:	addi	a0,a0,2004 # 17ec <_edata>
  20:	auipc	a2,0x1
  24:	addi	a2,a2,1996 # 17ec <_edata>
  28:	sub	a2,a2,a0
  2c:	li	a1,0
  30:	jal	ra,4b8 <memset>
  34:	auipc	a0,0x0
  38:	addi	a0,a0,896 # 3b4 <__libc_fini_array>
  3c:	jal	ra,36c <atexit>
  40:	jal	ra,410 <__libc_init_array>
  44:	lw	a0,0(sp) # 10000 <__sp>
  48:	addi	a1,sp,4
  4c:	li	a2,0
  50:	jal	ra,774 <main>
  54:	j	380 <exit>

00000058 <_fini>:
  58:	ret

0000005c <deregister_tm_clones>:
  5c:	lui	a0,0x1
  60:	lui	a5,0x1
  64:	addi	a4,a0,2032 # 17f0 <__TMC_END__>
  68:	addi	a5,a5,2032 # 17f0 <__TMC_END__>
  6c:	beq	a5,a4,84 <deregister_tm_clones+0x28>
  70:	lui	t1,0x0
  74:	mv	t1,t1
  78:	beqz	t1,84 <deregister_tm_clones+0x28>
  7c:	addi	a0,a0,2032
  80:	jr	t1 # 0 <entry>
  84:	ret

00000088 <register_tm_clones>:
  88:	lui	a5,0x1
  8c:	lui	a0,0x1
  90:	addi	a1,a5,2032 # 17f0 <__TMC_END__>
  94:	addi	a5,a0,2032 # 17f0 <__TMC_END__>
  98:	sub	a1,a1,a5
  9c:	srai	a1,a1,0x2
  a0:	srli	a5,a1,0x1f
  a4:	add	a1,a5,a1
  a8:	srai	a1,a1,0x1
  ac:	beqz	a1,c4 <register_tm_clones+0x3c>
  b0:	lui	t1,0x0
  b4:	mv	t1,t1
  b8:	beqz	t1,c4 <register_tm_clones+0x3c>
  bc:	addi	a0,a0,2032
  c0:	jr	t1 # 0 <entry>
  c4:	ret

000000c8 <__do_global_dtors_aux>:
  c8:	lbu	a4,1944(zero) # 798 <completed.5430>
  cc:	bnez	a4,118 <__do_global_dtors_aux+0x50>
  d0:	addi	sp,sp,-16
  d4:	sw	s0,8(sp)
  d8:	sw	ra,12(sp)
  dc:	mv	s0,a5
  e0:	jal	ra,5c <deregister_tm_clones>
  e4:	lui	a5,0x0
  e8:	mv	a5,a5
  ec:	beqz	a5,100 <__do_global_dtors_aux+0x38>
  f0:	lui	a0,0x1
  f4:	addi	a0,a0,2028 # 17ec <_edata>
  f8:	auipc	ra,0x0
  fc:	jalr	zero # 0 <entry>
 100:	li	a5,1
 104:	sb	a5,1944(zero) # 798 <completed.5430>
 108:	lw	ra,12(sp)
 10c:	lw	s0,8(sp)
 110:	addi	sp,sp,16
 114:	ret
 118:	ret

0000011c <frame_dummy>:
 11c:	lui	a5,0x0
 120:	mv	a5,a5
 124:	beqz	a5,14c <frame_dummy+0x30>
 128:	lui	a0,0x1
 12c:	addi	sp,sp,-16
 130:	li	a1,1948
 134:	addi	a0,a0,2028 # 17ec <_edata>
 138:	sw	ra,12(sp)
 13c:	auipc	ra,0x0
 140:	jalr	zero # 0 <entry>
 144:	lw	ra,12(sp)
 148:	addi	sp,sp,16
 14c:	j	88 <register_tm_clones>

00000150 <matmul>:
#include "dataset.h"
//#include "util.h"
#include <stddef.h>

void matmul(const size_t coreid, const size_t ncores, const size_t lda,  const data_t A[], const data_t B[], data_t C[])
{
 150:	addi	sp,sp,-80
 154:	sw	s1,68(sp)
 158:	mv	s1,a0
  size_t i, j, k;
  size_t block = lda / ncores;
 15c:	mv	a0,a2
{
 160:	sw	s0,72(sp)
 164:	sw	s5,52(sp)
 168:	sw	s6,48(sp)
 16c:	sw	s7,44(sp)
 170:	sw	s8,40(sp)
 174:	sw	ra,76(sp)
 178:	sw	s2,64(sp)
 17c:	sw	s3,60(sp)
 180:	sw	s4,56(sp)
 184:	sw	s9,36(sp)
 188:	sw	s10,32(sp)
 18c:	sw	s11,28(sp)
 190:	mv	s0,a2
 194:	mv	s8,a3
 198:	mv	s5,a4
 19c:	mv	s7,a5
  size_t block = lda / ncores;
 1a0:	jal	ra,2c0 <__udivsi3>
  size_t start = block * coreid;
 1a4:	mv	a1,s1
  size_t block = lda / ncores;
 1a8:	mv	s6,a0
  size_t start = block * coreid;
 1ac:	jal	ra,294 <__mulsi3>
 
  for (i = 0; i < lda; i++) {
 1b0:	beqz	s0,258 <matmul+0x108>
    for (j = start; j < (start+block); j++) {
 1b4:	add	s6,s6,a0
 1b8:	mv	s10,a0
 1bc:	bgeu	a0,s6,258 <matmul+0x108>
 1c0:	slli	s0,s0,0x2
 1c4:	mv	a1,s0
 1c8:	jal	ra,294 <__mulsi3>
 1cc:	mv	s9,a0
 1d0:	add	a5,s8,s9
 1d4:	mv	a1,s0
 1d8:	addi	a0,s10,1
 1dc:	sw	a5,8(sp)
 1e0:	jal	ra,294 <__mulsi3>
 1e4:	add	a5,s5,s0
 1e8:	sw	a5,12(sp)
 1ec:	add	a5,s8,a0
 1f0:	add	s7,s7,s9
 1f4:	sw	a5,4(sp)
      data_t sum = 0;
 1f8:	lw	s1,4(sp)
 1fc:	lw	s4,8(sp)
 200:	mv	s3,s7
 204:	mv	s2,s10
{
 208:	mv	s9,s5
 20c:	mv	s8,s4
      data_t sum = 0;
 210:	li	s11,0
      for (k = 0; k < lda; k++)
        sum += A[j*lda + k] * B[k*lda + i];
 214:	lw	a1,0(s9)
 218:	lw	a0,0(s8)
 21c:	addi	s8,s8,4
 220:	add	s9,s9,s0
 224:	jal	ra,294 <__mulsi3>
 228:	add	s11,s11,a0
      for (k = 0; k < lda; k++)
 22c:	bne	s1,s8,214 <matmul+0xc4>
      C[i + j*lda] = sum;
 230:	sw	s11,0(s3)
    for (j = start; j < (start+block); j++) {
 234:	addi	s2,s2,1
 238:	add	s3,s3,s0
 23c:	add	s4,s4,s0
 240:	add	s1,s1,s0
 244:	bne	s2,s6,208 <matmul+0xb8>
  for (i = 0; i < lda; i++) {
 248:	lw	a5,12(sp)
 24c:	addi	s5,s5,4
 250:	addi	s7,s7,4
 254:	bne	s5,a5,1f8 <matmul+0xa8>
    }
  }
}
 258:	lw	ra,76(sp)
 25c:	lw	s0,72(sp)
 260:	lw	s1,68(sp)
 264:	lw	s2,64(sp)
 268:	lw	s3,60(sp)
 26c:	lw	s4,56(sp)
 270:	lw	s5,52(sp)
 274:	lw	s6,48(sp)
 278:	lw	s7,44(sp)
 27c:	lw	s8,40(sp)
 280:	lw	s9,36(sp)
 284:	lw	s10,32(sp)
 288:	lw	s11,28(sp)
 28c:	addi	sp,sp,80
 290:	ret

00000294 <__mulsi3>:
/* Our RV64 64-bit routine is equivalent to our RV32 32-bit routine.  */
# define __muldi3 __mulsi3
#endif

FUNC_BEGIN (__muldi3)
  mv     a2, a0
 294:	mv	a2,a0
  li     a0, 0
 298:	li	a0,0
.L1:
  andi   a3, a1, 1
 29c:	andi	a3,a1,1
  beqz   a3, .L2
 2a0:	beqz	a3,2a8 <__mulsi3+0x14>
  add    a0, a0, a2
 2a4:	add	a0,a0,a2
.L2:
  srli   a1, a1, 1
 2a8:	srli	a1,a1,0x1
  slli   a2, a2, 1
 2ac:	slli	a2,a2,0x1
  bnez   a1, .L1
 2b0:	bnez	a1,29c <__mulsi3+0x8>
  ret
 2b4:	ret

000002b8 <__divsi3>:
  li    t0, -1
  beq   a1, t0, .L20
#endif

FUNC_BEGIN (__divdi3)
  bltz  a0, .L10
 2b8:	bltz	a0,318 <__umodsi3+0x10>
  bltz  a1, .L11
 2bc:	bltz	a1,328 <__umodsi3+0x20>

000002c0 <__udivsi3>:
  /* Since the quotient is positive, fall into __udivdi3.  */

FUNC_BEGIN (__udivdi3)
  mv    a2, a1
 2c0:	mv	a2,a1
  mv    a1, a0
 2c4:	mv	a1,a0
  li    a0, -1
 2c8:	li	a0,-1
  beqz  a2, .L5
 2cc:	beqz	a2,304 <__udivsi3+0x44>
  li    a3, 1
 2d0:	li	a3,1
  bgeu  a2, a1, .L2
 2d4:	bgeu	a2,a1,2e8 <__udivsi3+0x28>
.L1:
  blez  a2, .L2
 2d8:	blez	a2,2e8 <__udivsi3+0x28>
  slli  a2, a2, 1
 2dc:	slli	a2,a2,0x1
  slli  a3, a3, 1
 2e0:	slli	a3,a3,0x1
  bgtu  a1, a2, .L1
 2e4:	bltu	a2,a1,2d8 <__udivsi3+0x18>
.L2:
  li    a0, 0
 2e8:	li	a0,0
.L3:
  bltu  a1, a2, .L4
 2ec:	bltu	a1,a2,2f8 <__udivsi3+0x38>
  sub   a1, a1, a2
 2f0:	sub	a1,a1,a2
  or    a0, a0, a3
 2f4:	or	a0,a0,a3
.L4:
  srli  a3, a3, 1
 2f8:	srli	a3,a3,0x1
  srli  a2, a2, 1
 2fc:	srli	a2,a2,0x1
  bnez  a3, .L3
 300:	bnez	a3,2ec <__udivsi3+0x2c>
.L5:
  ret
 304:	ret

00000308 <__umodsi3>:
FUNC_END (__udivdi3)

FUNC_BEGIN (__umoddi3)
  /* Call __udivdi3(a0, a1), then return the remainder, which is in a1.  */
  move  t0, ra
 308:	mv	t0,ra
  jal   __udivdi3
 30c:	jal	ra,2c0 <__udivsi3>
  move  a0, a1
 310:	mv	a0,a1
  jr    t0
 314:	jr	t0
FUNC_END (__umoddi3)

  /* Handle negative arguments to __divdi3.  */
.L10:
  neg   a0, a0
 318:	neg	a0,a0
  bgez  a1, .L12      /* Compute __udivdi3(-a0, a1), then negate the result.  */
 31c:	bgez	a1,32c <__umodsi3+0x24>
  neg   a1, a1
 320:	neg	a1,a1
  j     __udivdi3     /* Compute __udivdi3(-a0, -a1).  */
 324:	j	2c0 <__udivsi3>
.L11:                 /* Compute __udivdi3(a0, -a1), then negate the result.  */
  neg   a1, a1
 328:	neg	a1,a1
.L12:
  move  t0, ra
 32c:	mv	t0,ra
  jal   __udivdi3
 330:	jal	ra,2c0 <__udivsi3>
  neg   a0, a0
 334:	neg	a0,a0
  jr    t0
 338:	jr	t0

0000033c <__modsi3>:
FUNC_END (__divdi3)

FUNC_BEGIN (__moddi3)
  move   t0, ra
 33c:	mv	t0,ra
  bltz   a1, .L31
 340:	bltz	a1,354 <__modsi3+0x18>
  bltz   a0, .L32
 344:	bltz	a0,35c <__modsi3+0x20>
.L30:
  jal    __udivdi3    /* The dividend is not negative.  */
 348:	jal	ra,2c0 <__udivsi3>
  move   a0, a1
 34c:	mv	a0,a1
  jr     t0
 350:	jr	t0
.L31:
  neg    a1, a1
 354:	neg	a1,a1
  bgez   a0, .L30
 358:	bgez	a0,348 <__modsi3+0xc>
.L32:
  neg    a0, a0
 35c:	neg	a0,a0
  jal    __udivdi3    /* The dividend is hella negative.  */
 360:	jal	ra,2c0 <__udivsi3>
  neg    a0, a1
 364:	neg	a0,a1
  jr     t0
 368:	jr	t0

0000036c <atexit>:
 36c:	mv	a1,a0
 370:	li	a3,0
 374:	li	a2,0
 378:	li	a0,0
 37c:	j	594 <__register_exitproc>

00000380 <exit>:
 380:	addi	sp,sp,-16
 384:	li	a1,0
 388:	sw	s0,8(sp)
 38c:	sw	ra,12(sp)
 390:	mv	s0,a0
 394:	jal	ra,614 <__call_exitprocs>
 398:	lui	a5,0x1
 39c:	lw	a0,2024(a5) # 17e8 <_global_impure_ptr>
 3a0:	lw	a5,60(a0)
 3a4:	beqz	a5,3ac <exit+0x2c>
 3a8:	jalr	a5
 3ac:	mv	a0,s0
 3b0:	jal	ra,724 <_exit>

000003b4 <__libc_fini_array>:
 3b4:	addi	sp,sp,-16
 3b8:	lui	a5,0x0
 3bc:	sw	s0,8(sp)
 3c0:	lui	s0,0x0
 3c4:	mv	a4,a5
 3c8:	mv	s0,s0
 3cc:	sub	s0,s0,a4
 3d0:	sw	s1,4(sp)
 3d4:	sw	ra,12(sp)
 3d8:	srai	s0,s0,0x2
 3dc:	mv	s1,a5
 3e0:	bnez	s0,3f8 <__libc_fini_array+0x44>
 3e4:	lw	s0,8(sp)
 3e8:	lw	ra,12(sp)
 3ec:	lw	s1,4(sp)
 3f0:	addi	sp,sp,16
 3f4:	j	58 <_fini>
 3f8:	addi	s0,s0,-1
 3fc:	slli	a5,s0,0x2
 400:	add	a5,s1,a5
 404:	lw	a5,0(a5) # 0 <entry>
 408:	jalr	a5
 40c:	j	3e0 <__libc_fini_array+0x2c>

00000410 <__libc_init_array>:
 410:	addi	sp,sp,-16
 414:	lui	a5,0x0
 418:	sw	s0,8(sp)
 41c:	lui	s0,0x0
 420:	mv	a4,a5
 424:	mv	s0,s0
 428:	sub	s0,s0,a4
 42c:	sw	s1,4(sp)
 430:	sw	s2,0(sp)
 434:	sw	ra,12(sp)
 438:	srai	s0,s0,0x2
 43c:	li	s1,0
 440:	mv	s2,a5
 444:	bne	s1,s0,488 <__libc_init_array+0x78>
 448:	jal	ra,58 <_fini>
 44c:	lui	a5,0x0
 450:	lui	s0,0x0
 454:	mv	a4,a5
 458:	mv	s0,s0
 45c:	sub	s0,s0,a4
 460:	srai	s0,s0,0x2
 464:	li	s1,0
 468:	mv	s2,a5
 46c:	bne	s1,s0,4a0 <__libc_init_array+0x90>
 470:	lw	ra,12(sp)
 474:	lw	s0,8(sp)
 478:	lw	s1,4(sp)
 47c:	lw	s2,0(sp)
 480:	addi	sp,sp,16
 484:	ret
 488:	slli	a5,s1,0x2
 48c:	add	a5,s2,a5
 490:	lw	a5,0(a5) # 0 <entry>
 494:	addi	s1,s1,1
 498:	jalr	a5
 49c:	j	444 <__libc_init_array+0x34>
 4a0:	slli	a5,s1,0x2
 4a4:	add	a5,s2,a5
 4a8:	lw	a5,0(a5)
 4ac:	addi	s1,s1,1
 4b0:	jalr	a5
 4b4:	j	46c <__libc_init_array+0x5c>

000004b8 <memset>:
 4b8:	li	t1,15
 4bc:	mv	a4,a0
 4c0:	bgeu	t1,a2,4fc <memset+0x44>
 4c4:	andi	a5,a4,15
 4c8:	bnez	a5,568 <memset+0xb0>
 4cc:	bnez	a1,550 <memset+0x98>
 4d0:	andi	a3,a2,-16
 4d4:	andi	a2,a2,15
 4d8:	add	a3,a3,a4
 4dc:	sw	a1,0(a4)
 4e0:	sw	a1,4(a4)
 4e4:	sw	a1,8(a4)
 4e8:	sw	a1,12(a4)
 4ec:	addi	a4,a4,16
 4f0:	bltu	a4,a3,4dc <memset+0x24>
 4f4:	bnez	a2,4fc <memset+0x44>
 4f8:	ret
 4fc:	sub	a3,t1,a2
 500:	slli	a3,a3,0x2
 504:	auipc	t0,0x0
 508:	add	a3,a3,t0
 50c:	jr	12(a3)
 510:	sb	a1,14(a4)
 514:	sb	a1,13(a4)
 518:	sb	a1,12(a4)
 51c:	sb	a1,11(a4)
 520:	sb	a1,10(a4)
 524:	sb	a1,9(a4)
 528:	sb	a1,8(a4)
 52c:	sb	a1,7(a4)
 530:	sb	a1,6(a4)
 534:	sb	a1,5(a4)
 538:	sb	a1,4(a4)
 53c:	sb	a1,3(a4)
 540:	sb	a1,2(a4)
 544:	sb	a1,1(a4)
 548:	sb	a1,0(a4)
 54c:	ret
 550:	andi	a1,a1,255
 554:	slli	a3,a1,0x8
 558:	or	a1,a1,a3
 55c:	slli	a3,a1,0x10
 560:	or	a1,a1,a3
 564:	j	4d0 <memset+0x18>
 568:	slli	a3,a5,0x2
 56c:	auipc	t0,0x0
 570:	add	a3,a3,t0
 574:	mv	t0,ra
 578:	jalr	-96(a3)
 57c:	mv	ra,t0
 580:	addi	a5,a5,-16
 584:	sub	a4,a4,a5
 588:	add	a2,a2,a5
 58c:	bgeu	t1,a2,4fc <memset+0x44>
 590:	j	4cc <memset+0x14>

00000594 <__register_exitproc>:
 594:	lui	a5,0x1
 598:	lw	a4,2024(a5) # 17e8 <_global_impure_ptr>
 59c:	mv	t1,a0
 5a0:	lw	a5,328(a4)
 5a4:	bnez	a5,5b0 <__register_exitproc+0x1c>
 5a8:	addi	a5,a4,332
 5ac:	sw	a5,328(a4)
 5b0:	lw	a4,4(a5)
 5b4:	li	a6,31
 5b8:	li	a0,-1
 5bc:	blt	a6,a4,610 <__register_exitproc+0x7c>
 5c0:	slli	a7,a4,0x2
 5c4:	beqz	t1,5fc <__register_exitproc+0x68>
 5c8:	add	a0,a5,a7
 5cc:	sw	a2,136(a0)
 5d0:	lw	a6,392(a5)
 5d4:	li	a2,1
 5d8:	sll	a2,a2,a4
 5dc:	or	a6,a6,a2
 5e0:	sw	a6,392(a5)
 5e4:	sw	a3,264(a0)
 5e8:	li	a3,2
 5ec:	bne	t1,a3,5fc <__register_exitproc+0x68>
 5f0:	lw	a3,396(a5)
 5f4:	or	a2,a3,a2
 5f8:	sw	a2,396(a5)
 5fc:	addi	a4,a4,1
 600:	sw	a4,4(a5)
 604:	add	a5,a5,a7
 608:	sw	a1,8(a5)
 60c:	li	a0,0
 610:	ret

00000614 <__call_exitprocs>:
 614:	addi	sp,sp,-48
 618:	lui	a5,0x1
 61c:	sw	s3,28(sp)
 620:	lw	s3,2024(a5) # 17e8 <_global_impure_ptr>
 624:	sw	s4,24(sp)
 628:	sw	s5,20(sp)
 62c:	sw	s6,16(sp)
 630:	sw	ra,44(sp)
 634:	sw	s0,40(sp)
 638:	sw	s1,36(sp)
 63c:	sw	s2,32(sp)
 640:	sw	s7,12(sp)
 644:	mv	s5,a0
 648:	mv	s4,a1
 64c:	li	s6,1
 650:	lw	s1,328(s3)
 654:	beqz	s1,66c <__call_exitprocs+0x58>
 658:	lw	s0,4(s1)
 65c:	addi	s2,s0,-1
 660:	slli	s0,s0,0x2
 664:	add	s0,s1,s0
 668:	bgez	s2,698 <__call_exitprocs+0x84>
 66c:	lw	ra,44(sp)
 670:	lw	s0,40(sp)
 674:	lw	s1,36(sp)
 678:	lw	s2,32(sp)
 67c:	lw	s3,28(sp)
 680:	lw	s4,24(sp)
 684:	lw	s5,20(sp)
 688:	lw	s6,16(sp)
 68c:	lw	s7,12(sp)
 690:	addi	sp,sp,48
 694:	ret
 698:	beqz	s4,6b0 <__call_exitprocs+0x9c>
 69c:	lw	a5,260(s0)
 6a0:	beq	a5,s4,6b0 <__call_exitprocs+0x9c>
 6a4:	addi	s2,s2,-1
 6a8:	addi	s0,s0,-4
 6ac:	j	668 <__call_exitprocs+0x54>
 6b0:	lw	a4,4(s1)
 6b4:	lw	a5,4(s0)
 6b8:	addi	a4,a4,-1
 6bc:	bne	a4,s2,6f4 <__call_exitprocs+0xe0>
 6c0:	sw	s2,4(s1)
 6c4:	beqz	a5,6a4 <__call_exitprocs+0x90>
 6c8:	lw	a3,392(s1)
 6cc:	sll	a4,s6,s2
 6d0:	lw	s7,4(s1)
 6d4:	and	a3,a4,a3
 6d8:	bnez	a3,6fc <__call_exitprocs+0xe8>
 6dc:	jalr	a5
 6e0:	lw	a5,4(s1)
 6e4:	bne	a5,s7,650 <__call_exitprocs+0x3c>
 6e8:	lw	a5,328(s3)
 6ec:	beq	a5,s1,6a4 <__call_exitprocs+0x90>
 6f0:	j	650 <__call_exitprocs+0x3c>
 6f4:	sw	zero,4(s0)
 6f8:	j	6c4 <__call_exitprocs+0xb0>
 6fc:	lw	a3,396(s1)
 700:	lw	a1,132(s0)
 704:	and	a4,a4,a3
 708:	bnez	a4,718 <__call_exitprocs+0x104>
 70c:	mv	a0,s5
 710:	jalr	a5
 714:	j	6e0 <__call_exitprocs+0xcc>
 718:	mv	a0,a1
 71c:	jalr	a5
 720:	j	6e0 <__call_exitprocs+0xcc>

00000724 <_exit>:
 724:	li	a1,0
 728:	li	a2,0
 72c:	li	a3,0
 730:	li	a4,0
 734:	li	a5,0
 738:	li	a7,93
 73c:	ecall
 740:	bgez	a0,764 <_exit+0x40>
 744:	addi	sp,sp,-16
 748:	sw	s0,8(sp)
 74c:	mv	s0,a0
 750:	sw	ra,12(sp)
 754:	neg	s0,s0
 758:	jal	ra,768 <__errno>
 75c:	sw	s0,0(a0)
 760:	j	760 <_exit+0x3c>
 764:	j	764 <_exit+0x40>

00000768 <__errno>:
 768:	lui	a5,0x1
 76c:	lw	a0,2020(a5) # 17e4 <_impure_ptr>
 770:	ret

Disassembly of section .text.startup:

00000774 <main>:
void main()
{
	static data_t results_data[ARRAY_SIZE];
	matmul(0, 1, DIM_SIZE, input1_data, input2_data, results_data);
 774:	addi	a3,gp,-960 # bb4 <input2_data>
 778:	li	a5,1972
 77c:	addi	a4,gp,-960 # bb4 <input2_data>
 780:	addi	a3,a3,1024
 784:	li	a2,16
 788:	li	a1,1
 78c:	li	a0,0
 790:	j	150 <matmul>
