
build/program.elf:     file format elf32-littleriscv

Contents of section .text.init:
 0000 17010100 130101fe ef008000 6f000000  ............o...
Contents of section .text:
 0010 97110000 93810107 13858144 13868144  ...........D...D
 0020 3306a640 93050000 ef000049 17050000  3..@.......I....
 0030 13058538 ef00c033 ef00803d 03250100  ...8...3...=.%..
 0040 93054100 13060000 ef009003 6f008033  ..A.........o..3
 0050 67800000 1387c144 9387c144 638ce700  g......D...Dc...
 0060 37030000 13030300 63060300 1385c144  7.......c......D
 0070 67000300 67800000 9385c144 9387c144  g...g......D...D
 0080 b385f540 93d52540 93d7f501 b385b700  ...@..%@........
 0090 93d51540 638c0500 37030000 13030300  ...@c...7.......
 00a0 63060300 1385c144 67000300 67800000  c......Dg...g...
 00b0 03c781fe 63140704 130101ff 23248100  ....c.......#$..
 00c0 23261100 13840700 eff0dff8 b7070000  #&..............
 00d0 93870700 63880700 13858144 97000000  ....c......D....
 00e0 e7000000 93071000 2384f1fe 8320c100  ........#.... ..
 00f0 03248100 13010101 67800000 67800000  .$......g...g...
 0100 b7070000 93870700 63820702 130101ff  ........c.......
 0110 9385c1fe 13858144 23261100 97000000  .......D#&......
 0120 e7000000 8320c100 13010101 6ff0dff4  ..... ......o...
 0130 37030811 1306f0ff 2320c300 67800000  7.......# ..g...
 0140 37030811 13060000 2320c300 67800000  7.......# ..g...
 0150 130101fd 232e4101 03aa01fe 232a6101  ....#.A.....#*a.
 0160 23268102 23249102 23222103 23203103  #&..#$..#"!.# 1.
 0170 232c5101 23287101 23268101 23249101  #,Q.#(q.#&..#$..
 0180 23a401e4 63564017 83a941fe 83a6c1b1  #...cV@...A.....
 0190 83a781b1 83a541cb 938a81cb 13982900  ......A.......).
 01a0 138441b2 138601e5 33085801 93040000  ..A.....3.X.....
 01b0 13070000 93081000 13032000 130e3000  .......... ...0.
 01c0 930e4000 130f5000 930f6000 93027000  ..@...P...`...p.
 01d0 93038000 13099000 63583015 13870a00  ........cX0.....
 01e0 13050400 635ed012 83250700 832c0600  ....c^...%...,..
 01f0 b3859503 b387b700 638a160b 83254600  ........c....%F.
 0200 832c8702 b3859503 b387b700 6380660a  .,..........c.f.
 0210 83258600 832c0705 b3859503 b387b700  .%...,..........
 0220 6386c609 83258707 832cc600 b3859503  c....%...,......
 0230 b387b700 638cd607 83250601 832c070a  ....c....%...,..
 0240 b3859503 b387b700 6382e607 83254601  ........c....%F.
 0250 832c870c b3859503 b387b700 6388f605  .,..........c...
 0260 83258601 832c070f b3859503 b387b700  .%...,..........
 0270 638e5602 8325c601 832c8711 b3859503  c.V..%...,......
 0280 b387b700 63847602 83250602 832c0714  ....c.v..%...,..
 0290 b3859503 b387b700 638a2601 83254602  ........c.&..%F.
 02a0 832c8716 b3859503 b387b700 93850600  .,..............
 02b0 2320f500 13074700 13054500 93070000  # ....G...E.....
 02c0 e312e8f2 13850900 13071000 93841400  ................
 02d0 13048402 13068602 e39044f1 23a6a1e4  ..........D.#...
 02e0 63060700 23acf1b0 23aab1ca 23a441e5  c...#...#...#.A.
 02f0 0324c102 83248102 03294102 83290102  .$...$...)A..)..
 0300 032ac101 832a8101 032b4101 832b0101  .*...*...+A..+..
 0310 032cc100 832c8100 13010103 67800000  .,...,......g...
 0320 93050000 6ff0dff8 13050000 6ff01ffa  ....o.......o...
 0330 635ea002 130101ff 23248100 23229100  c^......#$..#"..
 0340 23261100 93040500 13040000 13041400  #&..............
 0350 ef004025 e39c84fe 8320c100 03248100  ..@%..... ...$..
 0360 83244100 13010101 67800000 67800000  .$A.....g...g...
 0370 93050500 93060000 13060000 13050000  ................
 0380 6f008027 130101ff 93050000 23248100  o..'........#$..
 0390 23261100 13040500 ef00c02d 03a5c143  #&.........-...C
 03a0 8327c503 63840700 e7800700 13050400  .'..c...........
 03b0 ef00003d 130101ff b7070000 23248100  ...=........#$..
 03c0 37040000 13870700 13040400 3304e440  7...........3..@
 03d0 23229100 23261100 13542440 93840700  #"..#&...T$@....
 03e0 631c0400 03248100 8320c100 83244100  c....$... ...$A.
 03f0 13010101 6ff0dfc5 1304f4ff 93172400  ....o.........$.
 0400 b387f400 83a70700 e7800700 6ff05ffd  ............o._.
 0410 130101ff b7070000 23248100 37040000  ........#$..7...
 0420 13870700 13040400 3304e440 23229100  ........3..@#"..
 0430 23202101 23261100 13542440 93040000  # !.#&...T$@....
 0440 13890700 63928404 eff09fc0 b7070000  ....c...........
 0450 37040000 13870700 13040400 3304e440  7...........3..@
 0460 13542440 93040000 13890700 639a8402  .T$@........c...
 0470 8320c100 03248100 83244100 03290100  . ...$...$A..)..
 0480 13010101 67800000 93972400 b307f900  ....g.....$.....
 0490 83a70700 93841400 e7800700 6ff09ffa  ............o...
 04a0 93972400 b307f900 83a70700 93841400  ..$.............
 04b0 e7800700 6ff09ffb 1303f000 13070500  ....o...........
 04c0 637ec302 9377f700 6390070a 63920508  c~...w..c...c...
 04d0 937606ff 1376f600 b386e600 2320b700  .v...v......# ..
 04e0 2322b700 2324b700 2326b700 13070701  #"..#$..#&......
 04f0 e366d7fe 63140600 67800000 b306c340  .f..c...g......@
 0500 93962600 97020000 b3865600 6780c600  ..&.......V.g...
 0510 2307b700 a306b700 2306b700 a305b700  #.......#.......
 0520 2305b700 a304b700 2304b700 a303b700  #.......#.......
 0530 2303b700 a302b700 2302b700 a301b700  #.......#.......
 0540 2301b700 a300b700 2300b700 67800000  #.......#...g...
 0550 93f5f50f 93968500 b3e5d500 93960501  ................
 0560 b3e5d500 6ff0dff6 93962700 97020000  ....o.....'.....
 0570 b3865600 93820000 e78006fa 93800200  ..V.............
 0580 938707ff 3307f740 3306f600 e378c3f6  ....3..@3....x..
 0590 6ff0dff3 83a74143 23a4a70a 23a6070a  o.....AC#...#...
 05a0 67800000 130101ff 23248100 03a44143  g.......#$....AC
 05b0 b7170000 03a6074c 0325840a 8325c40a  .......L.%...%..
 05c0 83a6474c 23261100 ef004020 93071500  ..GL#&....@ ....
 05d0 33b5a700 3305b500 2326a40a 2324f40a  3...3...#&..#$..
 05e0 8320c100 03248100 13151500 13551500  . ...$.......U..
 05f0 13010101 67800000 03a7c143 13030500  ....g......C....
 0600 83278714 63960700 9307c714 2324f714  .'..c.......#$..
 0610 03a74700 1308f001 1305f0ff 634ae804  ..G.........cJ..
 0620 93182700 630c0302 33851701 2324c508  ..'.c...3...#$..
 0630 03a88718 13061000 3316e600 3368c800  ........3...3h..
 0640 23a40719 2324d510 93062000 6318d300  #...#$.... .c...
 0650 83a6c718 33e6c600 23a6c718 13071700  ....3...#.......
 0660 23a2e700 b3871701 23a4b700 13050000  #.......#.......
 0670 67800000 130101fd 232e3101 83a9c143  g.......#.1....C
 0680 232c4101 232a5101 23286101 23261102  #,A.#*Q.#(a.#&..
 0690 23248102 23229102 23202103 23267101  #$..#"..# !.#&q.
 06a0 930a0500 138a0500 130b1000 83a48914  ................
 06b0 638c0400 03a44400 1309f4ff 13142400  c.....D.......$.
 06c0 33848400 63580902 8320c102 03248102  3...cX... ...$..
 06d0 83244102 03290102 8329c101 032a8101  .$A..)...)...*..
 06e0 832a4101 032b0101 832bc100 13010103  .*A..+...+......
 06f0 67800000 630c0a00 83274410 63884701  g...c....'D.c.G.
 0700 1309f9ff 1304c4ff 6ff0dffb 03a74400  ........o.....D.
 0710 83274400 1307f7ff 631c2703 23a22401  .'D.....c.'.#.$.
 0720 e38007fe 83a68418 33172b01 83ab4400  ........3.+...D.
 0730 b376d700 63920602 e7800700 83a74400  .v..c.........D.
 0740 e39677f7 83a78914 e38c97fa 6ff01ff6  ..w.........o...
 0750 23220400 6ff0dffc 83a6c418 83254408  #"..o........%D.
 0760 3377d700 63180700 13850a00 e7800700  3w..c...........
 0770 6ff0dffc 13850500 e7800700 6ff01ffc  o...........o...
 0780 93050000 13060000 93060000 13070000  ................
 0790 93070000 9308d005 73000000 63520502  ........s...cR..
 07a0 130101ff 23248100 13040500 23261100  ....#$......#&..
 07b0 33048040 ef000001 23208500 6f000000  3..@....# ..o...
 07c0 6f000000 03a54143 67800000 130101ff  o.....ACg.......
 07d0 13830600 23261100 130e0500 93080500  ....#&..........
 07e0 93060600 13070000 93070000 13080000  ................
 07f0 13f51600 931e1700 630c0500 33850801  ........c...3...
 0800 33380501 b387e700 b307f800 13080500  38..............
 0810 13d7f801 93d61600 33e7ee00 93981800  ........3.......
 0820 e39806fc 63880500 13050600 ef000003  ....c...........
 0830 b387a700 630a0300 13050e00 93050300  ....c...........
 0840 ef00c001 b307f500 8320c100 13050800  ......... ......
 0850 93850700 13010101 67800000 13060500  ........g.......
 0860 13050000 93f61500 63840600 3305c500  ........c...3...
 0870 93d51500 13161600 e39605fe 67800000  ............g...
Contents of section .text.startup:
 0880 130101fc 9307a000 23263103 23244103  ........#&1.#$A.
 0890 232e7101 13054006 232c8102 232e1102  #.q...@.#,..#...
 08a0 232a9102 23282103 23225103 23206103  #*..#(!.#"Q.# a.
 08b0 232c8101 232a9101 2328a101 2326b101  #,..#*..#(..#&..
 08c0 23a0f1fe 23a2f1fe 23a0f1b2 23aef1b0  #...#...#...#...
 08d0 eff05fcc 03a601fe 23a401e4 6358c02a  .._.....#...cX.*
 08e0 93060000 138981cb 138b01e5 930a803e  ...............>
 08f0 23a601e4 6356c006 eff0dfca 33055503  #...cV......3.U.
 0900 03a781e4 83a6c1e4 93172700 b387e700  ..........'.....
 0910 93971700 b387d700 93972700 b307fb00  ..........'.....
 0920 23a0a700 eff01fc8 33055503 83a681e4  #.......3.U.....
 0930 03a7c1e4 03a601fe 93972600 b387d700  ..........&.....
 0940 93971700 b387e700 93972700 b307f900  ..........'.....
 0950 13071700 23a0a700 23a6e1e4 e34ec7f8  ....#...#....N..
 0960 93861600 23a4d1e4 e3c4c6f8 eff04ffc  ....#.........O.
 0970 83ae41fe 83a781b1 03a541cb 03a7c1e4  ..A.......A.....
 0980 139f2e00 03ae01fe 03a6c1b1 330fe901  ............3...
 0990 130a0000 93050000 13080000 93031000  ................
 09a0 93022000 930f3000 130c4000 930c5000  .. ...0...@...P.
 09b0 938b0400 6358c01d 138341b2 938601e5  ....cX....A.....
 09c0 93080000 93046000 130b7000 930a8000  ......`...p.....
 09d0 6356d01b 13070900 93050300 635cc018  cV..........c\..
 09e0 03250700 03aa0600 33054503 b387a700  .%......3.E.....
 09f0 630c760a 03a54600 032a8702 33054503  c.v...F..*..3.E.
 0a00 b387a700 6302560a 03a58600 032a0705  ....c.V......*..
 0a10 33054503 b387a700 6308f609 03a5c600  3.E.....c.......
 0a20 032a8707 33054503 b387a700 630e8607  .*..3.E.....c...
 0a30 03a50601 032a070a 33054503 b387a700  .....*..3.E.....
 0a40 63049607 03a54601 032a870c 33054503  c.....F..*..3.E.
 0a50 b387a700 630a9604 03a58601 032a070f  ....c........*..
 0a60 33054503 b387a700 63006605 03a5c601  3.E.....c.f.....
 0a70 032a8711 33054503 b387a700 63065603  .*..3.E.....c.V.
 0a80 03a50602 032a0714 33054503 b387a700  .....*..3.E.....
 0a90 13059000 630aa600 03a54602 032a8716  ....c.....F..*..
 0aa0 33054503 b387a700 13050600 23a0f500  3.E.........#...
 0ab0 13074700 93854500 93070000 e310eff2  ..G...E.........
 0ac0 13870e00 93051000 93881800 13038302  ................
 0ad0 93868602 e39ec8ef 13030e00 130a1000  ................
 0ae0 93180801 b7060c11 93d80801 23901601  ............#...
 0af0 b7260000 13081800 93860671 e31cd8ea  .&.........q....
 0b00 23a461e4 93840b00 63860500 23acf1b0  #.a.....c...#...
 0b10 23aaa1ca 63040a00 23a6e1e4 37840100  #...c...#...7...
 0b20 eff00fe2 1304046a 1304f4ff eff09fa7  .......j........
 0b30 e31c04fe 8320c103 03248103 83244103  ..... ...$...$A.
 0b40 03290103 8329c102 032a8102 832a4102  .)...)...*...*A.
 0b50 032b0102 832bc101 032c8101 832c4101  .+...+...,...,A.
 0b60 032d0101 832dc100 13050000 13010104  .-...-..........
 0b70 67800000 13050000 6ff05ff3 13070000  g.......o._.....
 0b80 6ff09ff4 13030000 6ff09ff5 138981cb  o.......o.......
 0b90 6ff0dfdd                             o...            
Contents of section .data:
 0b98 00000000 00000000 00000000 00000000  ................
 0ba8 00000000 00000000 00000000 00000000  ................
 0bb8 00000000 00000000 00000000 00000000  ................
 0bc8 00000000 00000000 00000000 00000000  ................
 0bd8 00000000 00000000 00000000 00000000  ................
 0be8 00000000 00000000 00000000 00000000  ................
 0bf8 00000000 00000000 00000000 00000000  ................
 0c08 00000000 00000000 00000000 00000000  ................
 0c18 00000000 00000000 00000000 00000000  ................
 0c28 00000000 00000000 00000000 00000000  ................
 0c38 00000000 00000000 00000000 00000000  ................
 0c48 00000000 00000000 00000000 00000000  ................
 0c58 00000000 00000000 00000000 00000000  ................
 0c68 00000000 00000000 00000000 00000000  ................
 0c78 00000000 00000000 00000000 00000000  ................
 0c88 00000000 00000000 00000000 00000000  ................
 0c98 00000000 00000000 00000000 00000000  ................
 0ca8 00000000 00000000 00000000 00000000  ................
 0cb8 00000000 00000000 00000000 00000000  ................
 0cc8 00000000 00000000 00000000 00000000  ................
 0cd8 00000000 00000000 00000000 00000000  ................
 0ce8 00000000 00000000 00000000 00000000  ................
 0cf8 00000000 00000000 00000000 00000000  ................
 0d08 00000000 00000000 00000000 00000000  ................
 0d18 00000000 00000000 00000000 00000000  ................
 0d28 00000000 00000000 00000000 00000000  ................
 0d38 00000000 00000000 00000000 00000000  ................
 0d48 00000000 00000000 00000000 00000000  ................
 0d58 00000000 00000000 00000000 00000000  ................
 0d68 00000000 00000000 00000000 00000000  ................
 0d78 00000000 00000000 00000000 00000000  ................
 0d88 00000000 00000000 00000000 00000000  ................
 0d98 00000000 00000000 00000000 00000000  ................
 0da8 00000000 00000000 00000000 00000000  ................
 0db8 00000000 00000000 00000000 00000000  ................
 0dc8 00000000 00000000 00000000 00000000  ................
 0dd8 00000000 00000000 00000000 00000000  ................
 0de8 00000000 00000000 00000000 00000000  ................
 0df8 00000000 00000000 00000000 00000000  ................
 0e08 00000000 00000000 00000000 00000000  ................
 0e18 00000000 00000000 00000000 00000000  ................
 0e28 00000000 00000000 00000000 00000000  ................
 0e38 00000000 00000000 00000000 00000000  ................
 0e48 00000000 00000000 00000000 00000000  ................
 0e58 00000000 00000000 00000000 00000000  ................
 0e68 00000000 00000000 00000000 00000000  ................
 0e78 00000000 00000000 00000000 00000000  ................
 0e88 00000000 00000000 00000000 00000000  ................
 0e98 00000000 00000000 00000000 00000000  ................
 0ea8 00000000 00000000 00000000 00000000  ................
 0eb8 00000000 00000000 00000000 00000000  ................
 0ec8 00000000 00000000 00000000 00000000  ................
 0ed8 00000000 00000000 00000000 00000000  ................
 0ee8 00000000 00000000 00000000 00000000  ................
 0ef8 00000000 00000000 00000000 00000000  ................
 0f08 00000000 00000000 00000000 00000000  ................
 0f18 00000000 00000000 00000000 00000000  ................
 0f28 00000000 00000000 00000000 00000000  ................
 0f38 00000000 00000000 00000000 00000000  ................
 0f48 00000000 00000000 00000000 00000000  ................
 0f58 00000000 00000000 00000000 00000000  ................
 0f68 00000000 00000000 00000000 00000000  ................
 0f78 00000000 00000000 00000000 00000000  ................
 0f88 00000000 00000000 00000000 00000000  ................
 0f98 00000000 00000000 00000000 00000000  ................
 0fa8 00000000 00000000 00000000 00000000  ................
 0fb8 00000000 00000000 00000000 00000000  ................
 0fc8 00000000 00000000 00000000 00000000  ................
 0fd8 00000000 00000000 00000000 00000000  ................
 0fe8 00000000 00000000 00000000 00000000  ................
 0ff8 00000000 00000000 00000000 00000000  ................
 1008 00000000 00000000 00000000 00000000  ................
 1018 00000000 00000000 00000000 00000000  ................
 1028 00000000 00000000 00000000 00000000  ................
 1038 00000000 00000000 00000000 00000000  ................
 1048 00000000 00000000 00000000 00000000  ................
 1058 00000000 00000000 00000000 00000000  ................
 1068 00000000 00000000 00000000 00000000  ................
 1078 00000000 00000000 00000000 00000000  ................
 1088 00000000 74130000 dc130000 44140000  ....t.......D...
 1098 00000000 00000000 00000000 00000000  ................
 10a8 00000000 00000000 00000000 00000000  ................
 10b8 00000000 00000000 00000000 00000000  ................
 10c8 00000000 00000000 00000000 00000000  ................
 10d8 00000000 00000000 00000000 00000000  ................
 10e8 00000000 00000000 00000000 00000000  ................
 10f8 00000000 00000000 00000000 00000000  ................
 1108 00000000 00000000 00000000 00000000  ................
 1118 00000000 00000000 00000000 00000000  ................
 1128 00000000 00000000 01000000 00000000  ................
 1138 0e33cdab 34126de6 ecde0500 0b000000  .3..4.m.........
 1148 00000000 00000000 00000000 00000000  ................
 1158 00000000 00000000 00000000 00000000  ................
 1168 00000000 00000000 00000000 00000000  ................
 1178 00000000 00000000 00000000 00000000  ................
 1188 00000000 00000000 00000000 00000000  ................
 1198 00000000 00000000 00000000 00000000  ................
 11a8 00000000 00000000 00000000 00000000  ................
 11b8 00000000 00000000 00000000 00000000  ................
 11c8 00000000 00000000 00000000 00000000  ................
 11d8 00000000 00000000 00000000 00000000  ................
 11e8 00000000 00000000 00000000 00000000  ................
 11f8 00000000 00000000 00000000 00000000  ................
 1208 00000000 00000000 00000000 00000000  ................
 1218 00000000 00000000 00000000 00000000  ................
 1228 00000000 00000000 00000000 00000000  ................
 1238 00000000 00000000 00000000 00000000  ................
 1248 00000000 00000000 00000000 00000000  ................
 1258 00000000 00000000 00000000 00000000  ................
 1268 00000000 00000000 00000000 00000000  ................
 1278 00000000 00000000 00000000 00000000  ................
 1288 00000000 00000000 00000000 00000000  ................
 1298 00000000 00000000 00000000 00000000  ................
 12a8 00000000 00000000 00000000 00000000  ................
 12b8 00000000 00000000 00000000 00000000  ................
 12c8 00000000 00000000 00000000 00000000  ................
 12d8 00000000 00000000 00000000 00000000  ................
 12e8 00000000 00000000 00000000 00000000  ................
 12f8 00000000 00000000 00000000 00000000  ................
 1308 00000000 00000000 00000000 00000000  ................
 1318 00000000 00000000 00000000 00000000  ................
 1328 00000000 00000000 00000000 00000000  ................
 1338 00000000 00000000 00000000 00000000  ................
 1348 00000000 00000000 00000000 00000000  ................
 1358 00000000 00000000 00000000 00000000  ................
 1368 00000000 00000000 00000000 00000000  ................
 1378 00000000 00000000 00000000 00000000  ................
 1388 00000000 00000000 00000000 00000000  ................
 1398 00000000 00000000 00000000 00000000  ................
 13a8 00000000 00000000 00000000 00000000  ................
 13b8 00000000 00000000 00000000 00000000  ................
 13c8 00000000 00000000 00000000 00000000  ................
 13d8 00000000 00000000 00000000 00000000  ................
 13e8 00000000 00000000 00000000 00000000  ................
 13f8 00000000 00000000 00000000 00000000  ................
 1408 00000000 00000000 00000000 00000000  ................
 1418 00000000 00000000 00000000 00000000  ................
 1428 00000000 00000000 00000000 00000000  ................
 1438 00000000 00000000 00000000 00000000  ................
 1448 00000000 00000000 00000000 00000000  ................
 1458 00000000 00000000 00000000 00000000  ................
 1468 00000000 00000000 00000000 00000000  ................
 1478 00000000 00000000 00000000 00000000  ................
 1488 00000000 00000000 00000000 00000000  ................
 1498 00000000 00000000 00000000 00000000  ................
 14a8 00000000 00000000 00000000 88100000  ................
 14b8 00000c11 88100000 2d7f954c 2df45158  ........-..L-.QX
Contents of section .eh_frame:
 14c8 00000000                             ....            
Contents of section .fini_array:
 14cc b0000000                             ....            
Contents of section .init_array:
 14d0 00010000                             ....            
Contents of section .comment:
 0000 4743433a 2028474e 55292038 2e322e30  GCC: (GNU) 8.2.0
 0010 00                                   .               
Contents of section .debug_line:
 0000 41000000 02002100 00000101 fb0e0d00  A.....!.........
 0010 01010101 00000001 00000173 72630000  ...........src..
 0020 696e6974 2e730001 00000000 05020000  init.s..........
 0030 00001803 02090800 01030509 04000109  ................
 0040 04000001 01630000 00020025 00000001  .....c.....%....
 0050 01fb0e0d 00010101 01000000 01000001  ................
 0060 73726300 006c6564 73747566 662e7300  src..ledstuff.s.
 0070 01000000 00050230 01000016 03010904  .......0........
 0080 00010301 09040001 03010904 00010305  ................
 0090 09040001 03010904 00010301 09040001  ................
 00a0 03010904 00010904 00000101 06080000  ................
 00b0 0200fc00 00000101 fb0e0d00 01010101  ................
 00c0 00000001 00000173 7263002f 686f6d65  .......src./home
 00d0 2f737475 64656e74 2f6c6f63 616c2f72  /student/local/r
 00e0 69736376 33322d75 6e6b6e6f 776e2d65  iscv32-unknown-e
 00f0 6c662f69 6e636c75 64652f73 7973002f  lf/include/sys./
 0100 686f6d65 2f737475 64656e74 2f6c6f63  home/student/loc
 0110 616c2f6c 69622f67 63632f72 69736376  al/lib/gcc/riscv
 0120 33322d75 6e6b6e6f 776e2d65 6c662f38  32-unknown-elf/8
 0130 2e322e30 2f696e63 6c756465 002f686f  .2.0/include./ho
 0140 6d652f73 74756465 6e742f6c 6f63616c  me/student/local
 0150 2f726973 63763332 2d756e6b 6e6f776e  /riscv32-unknown
 0160 2d656c66 2f696e63 6c756465 00006d61  -elf/include..ma
 0170 696e2e63 00010000 6c6f636b 2e680002  in.c....lock.h..
 0180 00005f74 79706573 2e680002 00007374  .._types.h....st
 0190 64646566 2e680003 00007265 656e742e  ddef.h....reent.
 01a0 68000200 00737464 6c69622e 68000400  h....stdlib.h...
 01b0 00000501 00050280 08000003 13010509  ................
 01c0 03010900 00010501 06037f09 00000105  ................
 01d0 0b030109 04000105 01037f09 04000105  ................
 01e0 0b030109 0c000105 0a030209 00000103  ................
 01f0 7f090000 01030209 00000105 03030209  ................
 0200 00000105 01037a09 04000105 0b030109  ......z.........
 0210 28000105 09060301 09040001 050a0603  (...............
 0220 00090000 01050906 03010904 0001050a  ................
 0230 06030009 00000105 09060301 09040001  ................
 0240 050a0603 00090000 01050306 03020904  ................
 0250 00010505 03020904 00010513 06030009  ................
 0260 00000105 0c030009 04000105 05030009  ................
 0270 04000105 21030309 10000105 0706037e  ....!..........~
 0280 09040001 050e0603 00090000 01050703  ................
 0290 00090400 01050900 02040306 03020904  ................
 02a0 00010515 00020403 06030009 00000105  ................
 02b0 21000204 03030009 04000105 14000204  !...............
 02c0 03030009 04000105 09000204 03060301  ................
 02d0 09240001 05160002 04030603 00090000  .$..............
 02e0 01052200 02040303 00090400 01051200  ..".............
 02f0 02040303 00090400 01051500 02040303  ................
 0300 7d090800 01000204 03030309 04000105  }...............
 0310 1b000204 03037d09 18000105 15000204  ......}.........
 0320 03030309 04000105 1b000204 03037d09  ..............}.
 0330 04000105 07000204 03030009 04000105  ................
 0340 19000204 02037f09 04000105 05000204  ................
 0350 02030009 08000105 09060307 09040001  ................
 0360 05050301 09040001 05090300 09000001  ................
 0370 05150603 0c090000 01051303 7f091400  ................
 0380 01051703 02090400 01050d03 73091000  ............s...
 0390 01050903 0d090400 01050606 03750918  .............u..
 03a0 00010505 03090900 00010509 06030209  ................
 03b0 10000105 0706037f 090c0001 05090301  ................
 03c0 090c0001 050b0301 09040001 05220603  ............."..
 03d0 00090000 01051503 00090c00 01050903  ................
 03e0 7f090400 01050b06 03010904 00010522  ..............."
 03f0 06030009 00000105 15030009 0c000105  ................
 0400 09037f09 04000105 0b060301 09040001  ................
 0410 05220603 00090000 01051503 00090c00  ."..............
 0420 01050903 7f090400 01050b06 03010904  ................
 0430 00010522 06030009 00000105 15030009  ..."............
 0440 0c000105 09037f09 04000105 0b060301  ................
 0450 09040001 05220603 00090000 01051503  ....."..........
 0460 00090c00 01050903 7f090400 01050b06  ................
 0470 03010904 00010522 06030009 00000105  ......."........
 0480 15030009 0c000105 09037f09 04000105  ................
 0490 0b060301 09040001 05220603 00090000  ........."......
 04a0 01051503 00090c00 01050903 7f090400  ................
 04b0 01050b06 03010904 00010522 06030009  ..........."....
 04c0 00000105 15030009 0c000105 09037f09  ................
 04d0 04000105 0b060301 09040001 05220603  ............."..
 04e0 00090000 01051503 00090c00 01050903  ................
 04f0 7f090400 01050b06 03010908 00010522  ..............."
 0500 06030009 00000105 15030009 0c000105  ................
 0510 07037e09 04000105 09060305 09040001  ..~.............
 0520 05180603 00090000 01050906 03010904  ................
 0530 0001050d 06030009 08000105 07037a09  ..............z.
 0540 04000105 05037f09 18000105 02000204  ................
 0550 03060378 090c0001 05070002 04030603  ...x............
 0560 00090400 01050500 02040303 7d090c00  ............}...
 0570 01051a00 02040303 00090400 01050500  ................
 0580 02040303 00090400 01060305 09240001  .............$..
 0590 03010908 00010502 03120900 00010301  ................
 05a0 09000001 05060300 09000001 05050603  ................
 05b0 6c090000 01050306 03150904 00010508  l...............
 05c0 06030009 04000105 02037f09 04000105  ................
 05d0 01036e09 04000105 10030609 40000105  ..n.........@...
 05e0 0e037f09 08000105 0c037f09 08000109  ................
 05f0 10000001 01050100 05025001 0000032d  ..........P....-
 0600 01050503 01090000 01050106 037f0900  ................
 0610 00010513 03010904 00010501 037f0900  ................
 0620 00010513 03010904 00010501 037f0904  ................
 0630 0001050c 03010904 00010501 037f0900  ................
 0640 0001050c 03010920 00010505 03000904  ....... ........
 0650 00010515 03010904 00010517 03010904  ................
 0660 00010509 03000928 00010507 06037f09  .......(........
 0670 24000105 09030109 0c000105 0b030109  $...............
 0680 04000105 22060300 09000001 05150300  ...."...........
 0690 090c0001 0509037f 09040001 050b0603  ................
 06a0 01090400 01052206 03000900 00010515  ......".........
 06b0 0300090c 00010509 037f0904 0001050b  ................
 06c0 06030109 04000105 22060300 09000001  ........".......
 06d0 05150300 090c0001 0509037f 09040001  ................
 06e0 050b0603 01090400 01052206 03000900  ..........".....
 06f0 00010515 0300090c 00010509 037f0904  ................
 0700 0001050b 06030109 04000105 22060300  ............"...
 0710 09000001 05150300 090c0001 0509037f  ................
 0720 09040001 050b0603 01090400 01052206  ..............".
 0730 03000900 00010515 0300090c 00010509  ................
 0740 037f0904 0001050b 06030109 04000105  ................
 0750 22060300 09000001 05150300 090c0001  "...............
 0760 0509037f 09040001 050b0603 01090400  ................
 0770 01052206 03000900 00010515 0300090c  ..".............
 0780 00010509 037f0904 0001050b 06030109  ................
 0790 04000105 22060300 09000001 05150300  ...."...........
 07a0 090c0001 0509037f 09040001 050b0002  ................
 07b0 04030603 01090400 01052200 02040306  ..........".....
 07c0 03000900 00010515 00020403 0300090c  ................
 07d0 00010507 037e0904 00010509 00020402  .....~..........
 07e0 06030509 04000105 18000204 02060300  ................
 07f0 09000001 05090002 04020603 01090400  ................
 0800 01050d00 02040206 03000908 00010507  ................
 0810 00020402 037a0904 00010505 00020402  .....z..........
 0820 037f0918 00010501 030a0918 00010510  ................
 0830 03780930 0001050e 037f0908 00010501  .x.0............
 0840 06030b09 08000105 02030109 00000103  ................
 0850 01090000 01050603 00090000 01050206  ................
 0860 03000900 00010501 037e0904 0001050a  .........~......
 0870 03020914 00010503 00020403 06030109  ................
 0880 04000105 17000204 0306037f 09000001  ................
 0890 05080002 04030301 09040001 05020002  ................
 08a0 0403037f 09040001 05010302 09040001  ................
 08b0 09180000 01010604 00000200 15020000  ................
 08c0 0101fb0e 0d000101 01010000 00010000  ................
 08d0 012e2e2f 2e2e2f2e 2e2f2e2f 72697363  .../../.././risc
 08e0 762d6763 632f6c69 62676363 2f636f6e  v-gcc/libgcc/con
 08f0 6669672f 72697363 76002f68 6f6d652f  fig/riscv./home/
 0900 73747564 656e742f 6c6f6361 6c2f7269  student/local/ri
 0910 73637633 322d756e 6b6e6f77 6e2d656c  scv32-unknown-el
 0920 662f696e 636c7564 652f7379 73002f68  f/include/sys./h
 0930 6f6d652f 73747564 656e742f 72697363  ome/student/risc
 0940 762d746f 6f6c732f 72697363 762d676e  v-tools/riscv-gn
 0950 752d746f 6f6c6368 61696e2f 6275696c  u-toolchain/buil
 0960 642d6763 632d6e65 776c6962 2d737461  d-gcc-newlib-sta
 0970 6765322f 6763632f 696e636c 75646500  ge2/gcc/include.
 0980 2f686f6d 652f7374 7564656e 742f6c6f  /home/student/lo
 0990 63616c2f 72697363 7633322d 756e6b6e  cal/riscv32-unkn
 09a0 6f776e2d 656c662f 696e636c 75646500  own-elf/include.
 09b0 2e2e2f2e 2e2f2e2e 2f2e2f72 69736376  ../../.././riscv
 09c0 2d676363 2f6c6962 6763632f 2e2e2f69  -gcc/libgcc/../i
 09d0 6e636c75 6465002e 2e2f2e2e 2f2e2e2f  nclude.../../../
 09e0 2e2f7269 7363762d 6763632f 6c696267  ./riscv-gcc/libg
 09f0 63632f2e 2e2f6763 632f636f 6e666967  cc/../gcc/config
 0a00 2f726973 6376002e 2e2f2e2e 2f2e2f67  /riscv.../.././g
 0a10 6363002e 2e2f2e2e 2f2e2e2f 2e2f7269  cc.../../.././ri
 0a20 7363762d 6763632f 6c696267 63630000  scv-gcc/libgcc..
 0a30 6d756c74 69332e63 00010000 6c6f636b  multi3.c....lock
 0a40 2e680002 00005f74 79706573 2e680002  .h...._types.h..
 0a50 00007374 64646566 2e680003 00007265  ..stddef.h....re
 0a60 656e742e 68000200 00657272 6e6f2e68  ent.h....errno.h
 0a70 00020000 7374646c 69622e68 00040000  ....stdlib.h....
 0a80 756e6973 74642e68 00020000 74696d65  unistd.h....time
 0a90 2e680004 00006861 73687461 622e6800  .h....hashtab.h.
 0aa0 05000072 69736376 2d6f7074 732e6800  ...riscv-opts.h.
 0ab0 06000069 6e736e2d 636f6e73 74616e74  ...insn-constant
 0ac0 732e6800 0700006c 69626763 63322e68  s.h....libgcc2.h
 0ad0 00080000 00050100 0502cc07 00000329  ...............)
 0ae0 01050303 01090000 01030109 00000103  ................
 0af0 01090000 01030109 00000105 0106037c  ...............|
 0b00 09000001 0300090c 0001050a 03040904  ................
 0b10 00010503 06030109 04000103 01090000  ................
 0b20 01030109 00000103 01090000 01030109  ................
 0b30 00000103 01090000 01050a06 037b0900  .............{..
 0b40 00010305 09040001 037f0904 0001037e  ...............~
 0b50 09040001 05030603 04090400 01030109  ................
 0b60 00000103 04090000 01050703 02090000  ................
 0b70 01030109 00000105 11060302 09000001  ................
 0b80 0514037e 09040001 05070603 01090400  ...~............
 0b90 01030109 00000105 0a060300 09000001  ................
 0ba0 0511037d 09040001 05040603 05090400  ...}............
 0bb0 01030109 00000103 01090000 01051606  ................
 0bc0 037e0900 00010512 037d0904 0001050b  .~.......}......
 0bd0 03050904 0001050a 037f0904 00010507  ................
 0be0 06030309 04000105 11060300 09000001  ................
 0bf0 05070603 01090400 01050d06 03000900  ................
 0c00 00010507 06030109 04000103 01090000  ................
 0c10 01051206 03000900 00010503 03020908  ................
 0c20 00010603 02090400 01030109 00000103  ................
 0c30 02090000 01050606 03000900 00010505  ................
 0c40 06030109 04000105 1b030009 00000103  ................
 0c50 00090400 01030009 00000103 00090400  ................
 0c60 01051906 03000900 00010503 06030209  ................
 0c70 04000105 06060300 09000001 05050603  ................
 0c80 01090400 01051103 00090000 01030009  ................
 0c90 04000103 00090400 01030009 04000105  ................
 0ca0 0e060300 09000001 05030603 02090400  ................
 0cb0 01050106 03010900 00010914 00000101  ................
 0cc0 8e000000 02004800 00000101 fb0e0d00  ......H.........
 0cd0 01010101 00000001 0000012e 2e2f2e2e  ............./..
 0ce0 2f2e2e2f 2e2f7269 7363762d 6763632f  /.././riscv-gcc/
 0cf0 6c696267 63632f63 6f6e6669 672f7269  libgcc/config/ri
 0d00 73637600 006d756c 6469332e 53000100  scv..muldi3.S...
 0d10 00000005 025c0800 00032401 03010904  .....\....$.....
 0d20 00010302 09040001 03010904 00010301  ................
 0d30 09040001 03020904 00010301 09040001  ................
 0d40 03010904 00010301 09040001 09040000  ................
 0d50 0101                                 ..              
Contents of section .debug_info:
 0000 22000000 02000000 00000401 00000000  "...............
 0010 00000000 10000000 00000000 0b000000  ................
 0020 2b000000 01802200 00000200 14000000  +.....".........
 0030 04014500 00003001 00005001 00003900  ..E...0...P...9.
 0040 00000b00 00002b00 00000180 820b0000  ......+.........
 0050 04002800 00000401 00040000 0c5a0000  ..(..........Z..
 0060 000b0000 00700000 00000000 00ac0000  .....p..........
 0070 00020106 da020000 020108d8 02000002  ................
 0080 0205f402 00000202 07040200 00033a00  ..............:.
 0090 00000204 05f40000 00020407 a3000000  ................
 00a0 020805ef 00000002 08079e00 00000404  ................
 00b0 05696e74 00020407 a8000000 0210046f  .int...........o
 00c0 05000005 b4020000 020c0d62 00000005  ...........b....
 00d0 a3020000 032c0e46 00000005 b0030000  .....,.F........
 00e0 03720e46 00000005 7e040000 03911762  .r.F....~......b
 00f0 00000006 47020000 04650117 69000000  ....G....e..i...
 0100 070403a6 03d60000 00084102 000003a8  ..........A.....
 0110 0ca70000 0008db01 000003a9 13d60000  ................
 0120 0000092c 000000e6 0000000a 69000000  ...,........i...
 0130 03000b08 03a3090a 0100000c 9a030000  ................
 0140 03a50762 00000000 0ca20300 0003aa05  ...b............
 0150 b4000000 0400051c 03000003 ab03e600  ................
 0160 0000059e 01000003 af1b7700 00000d04  ..........w.....
 0170 05340400 00051619 4d000000 0eaf0100  .4......M.......
 0180 0018052f 088a0100 000c3d03 00000531  .../......=....1
 0190 138a0100 00000f5f 6b000532 07620000  ......._k..2.b..
 01a0 00040c85 03000005 320b6200 0000080c  ........2.b.....
 01b0 98010000 05321462 0000000c 0c690400  .....2.b.....i..
 01c0 0005321b 62000000 100f5f78 0005330b  ..2.b....._x..3.
 01d0 90010000 14001004 30010000 09240100  ........0....$..
 01e0 00a00100 000a6900 00000000 0ed60100  ......i.........
 01f0 00240537 08230200 000ce600 00000539  .$.7.#.........9
 0200 09620000 00000cc9 03000005 3a096200  .b..........:.b.
 0210 0000040c 09010000 053b0962 00000008  .........;.b....
 0220 0cf30400 00053c09 62000000 0c0c7d02  ......<.b.....}.
 0230 0000053d 09620000 00100c63 02000005  ...=.b.....c....
 0240 3e096200 0000140c 6e040000 053f0962  >.b.....n....?.b
 0250 00000018 0cfe0200 00054009 62000000  ..........@.b...
 0260 1c0ca904 00000541 09620000 00200011  .......A.b... ..
 0270 18010000 0801054a 08680200 000c8b01  .......J.h......
 0280 0000054b 0a680200 00000c48 00000005  ...K.h.....H....
 0290 4c096802 00008012 f1030000 054e0a24  L.h..........N.$
 02a0 01000000 01124401 00000551 0a240100  ......D....Q.$..
 02b0 00040100 09220100 00780200 000a6900  ....."...x....i.
 02c0 00001f00 11860200 00900105 5d08bb02  ............]...
 02d0 00000c3d 03000005 5e12bb02 0000000c  ...=....^.......
 02e0 55030000 055f0662 00000004 0c930100  U...._.b........
 02f0 00056109 c1020000 080c1801 00000562  ..a............b
 0300 1e230200 00880010 04780200 0009d102  .#.......x......
 0310 0000d102 00000a69 0000001f 001004d7  .......i........
 0320 02000013 0e080300 00080575 08000300  ...........u....
 0330 000c0301 00000576 11000300 00000c54  .......v.......T
 0340 00000005 77066200 00000400 10042c00  ....w.b.......,.
 0350 00000e27 03000068 05b50849 0400000f  ...'...h...I....
 0360 5f700005 b6120003 0000000f 5f720005  _p.........._r..
 0370 b7076200 0000040f 5f770005 b8076200  ..b....._w....b.
 0380 0000080c 3d010000 05b90933 0000000c  ....=......3....
 0390 0cf20100 0005ba09 33000000 0e0f5f62  ........3....._b
 03a0 660005bb 11d80200 00100cb5 00000005  f...............
 03b0 bc076200 0000180c 2d010000 05c30a22  ..b.....-......"
 03c0 0100001c 0cc60100 0005c51d cd050000  ................
 03d0 200c5c02 000005c7 1df70500 00240caa   .\..........$..
 03e0 03000005 ca0d1b06 0000280c c3040000  ..........(.....
 03f0 05cb0935 0600002c 0f5f7562 0005ce11  ...5...,._ub....
 0400 d8020000 300f5f75 700005cf 12000300  ....0._up.......
 0410 00380f5f 75720005 d0076200 00003c0c  .8._ur....b...<.
 0420 fd000000 05d3113b 06000040 0c9b0400  .......;...@....
 0430 0005d411 4b060000 430f5f6c 620005d7  ....K...C._lb...
 0440 11d80200 00440c53 01000005 da076200  .....D.S......b.
 0450 00004c0c 64010000 05db0a83 00000050  ..L.d..........P
 0460 0c780000 0005de12 67040000 540c4e02  .x......g...T.N.
 0470 000005e2 0c160100 00580c2f 03000005  .........X./....
 0480 e40e0a01 00005c0c 54020000 05e50962  ......\.T......b
 0490 00000064 00149b00 00006704 00001567  ...d......g....g
 04a0 04000015 22010000 15bb0500 00156200  ....".........b.
 04b0 00000010 04720400 00166704 0000178d  .....r....g.....
 04c0 03000028 04053902 08bb0500 0018ed02  ...(..9.........
 04d0 0000053b 02076200 00000018 4c010000  ...;..b.....L...
 04e0 0540020b a7060000 0418e201 00000540  .@.............@
 04f0 0214a706 00000818 a7010000 0540021e  .............@..
 0500 a7060000 0c185003 00000542 02086200  ......P....B..b.
 0510 00001018 6d000000 05430208 a7080000  ....m....C......
 0520 14186c03 00000546 02076200 00003018  ..l....F..b...0.
 0530 5a030000 05470216 bc080000 34189802  Z....G......4...
 0540 00000549 02076200 00003818 62030000  ...I..b...8.b...
 0550 054b020a cd080000 3c183902 0000054e  .K......<.9....N
 0560 02138a01 00004018 cc010000 054f0207  ......@......O..
 0570 62000000 4418e904 00000550 02138a01  b...D......P....
 0580 00004818 aa020000 05510214 d3080000  ..H......Q......
 0590 4c18ea01 00000554 02076200 00005018  L......T..b...P.
 05a0 5c010000 05550209 bb050000 5418e602  \....U......T...
 05b0 00000578 02078208 00005819 86020000  ...x......X.....
 05c0 057c0213 bb020000 48011917 02000005  .|......H.......
 05d0 7d021278 0200004c 01199104 00000581  }..x...L........
 05e0 020ce408 0000dc02 19350100 00058602  .........5......
 05f0 10680600 00e00219 13010000 0588020a  .h..............
 0600 f0080000 ec020010 04c10500 00020108  ................
 0610 e1020000 16c10500 00100449 04000014  ...........I....
 0620 9b000000 f1050000 15670400 00152201  .........g....".
 0630 000015f1 05000015 62000000 001004c8  ........b.......
 0640 05000010 04d30500 00148f00 00001b06  ................
 0650 00001567 04000015 22010000 158f0000  ...g....".......
 0660 00156200 00000010 04fd0500 00146200  ..b...........b.
 0670 00003506 00001567 04000015 22010000  ..5....g...."...
 0680 00100421 06000009 2c000000 4b060000  ...!....,...K...
 0690 0a690000 00020009 2c000000 5b060000  .i......,...[...
 06a0 0a690000 00000006 15030000 051f011a  .i..............
 06b0 06030000 1a780400 000c0523 0108a106  .....x.....#....
 06c0 0000183d 03000005 250111a1 06000000  ...=....%.......
 06d0 18fd0100 00052601 07620000 0004180f  ......&..b......
 06e0 03000005 27010ba7 06000008 00100468  ....'..........h
 06f0 06000010 045b0600 001a6500 00000e05  .....[....e.....
 0700 3f0108e6 06000018 94030000 05400112  ?............@..
 0710 e6060000 0018de03 00000541 0112e606  ...........A....
 0720 00000618 2f040000 05420112 3a000000  ..../....B..:...
 0730 0c00093a 000000f6 0600000a 69000000  ...:........i...
 0740 02001bd0 05590207 0b080000 185c0400  .....Y.......\..
 0750 00055b02 18690000 000018e4 03000005  ..[..i..........
 0760 5c0212bb 05000004 182c0200 00055d02  \........,....].
 0770 100b0800 000818b4 04000005 5e0217a0  ............^...
 0780 01000024 18b70100 00055f02 0f620000  ...$......_..b..
 0790 00481838 03000005 60022c5b 00000050  .H.8....`.,[...P
 07a0 18ca0400 00056102 1aad0600 00581843  ......a......X.C
 07b0 03000005 6202160a 01000068 18db0400  ....b......h....
 07c0 00056302 160a0100 007018d8 00000005  ..c......p......
 07d0 6402160a 01000078 18870400 00056502  d......x......e.
 07e0 101b0800 00801820 02000005 6602102b  ....... ....f..+
 07f0 08000088 183c0400 00056702 0f620000  .....<....g..b..
 0800 00a0187d 01000005 6802160a 010000a4  ...}....h.......
 0810 18c90000 00056902 160a0100 00ac186c  ......i........l
 0820 01000005 6a02160a 010000b4 187e0000  ....j........~..
 0830 00056b02 160a0100 00bc188d 00000005  ..k.............
 0840 6c02160a 010000c4 18eb0200 00056d02  l.............m.
 0850 08620000 00cc0009 c1050000 1b080000  .b..............
 0860 0a690000 00190009 c1050000 2b080000  .i..........+...
 0870 0a690000 00070009 c1050000 3b080000  .i..........;...
 0880 0a690000 0017001b f0057202 07620800  .i........r..b..
 0890 00187602 00000575 021b6208 00000018  ..v....u..b.....
 08a0 6d020000 05760218 72080000 78000900  m....v..r...x...
 08b0 03000072 0800000a 69000000 1d000969  ...r....i......i
 08c0 00000082 0800000a 69000000 1d001cf0  ........i.......
 08d0 05570203 a7080000 1d8d0300 00056e02  .W............n.
 08e0 0bf60600 001da104 00000577 020b3b08  ...........w..;.
 08f0 00000009 c1050000 b7080000 0a690000  .............i..
 0900 0018001e be000000 1004b708 00001fcd  ................
 0910 08000015 67040000 001004c2 08000010  ....g...........
 0920 048a0100 001fe408 00001562 00000000  ...........b....
 0930 1004ea08 00001004 d9080000 095b0600  .............[..
 0940 00000900 000a6900 00000200 20500400  ......i..... P..
 0950 00050703 17670400 00204904 00000508  .....g... I.....
 0960 031d6d04 0000218e 02000006 630ebb05  ..m...!.....c...
 0970 000022f8 01000001 0a213e09 00000503  .."......!>.....
 0980 b8140000 10044100 00001638 09000009  ......A....8....
 0990 62000000 59090000 0a690000 00090a69  b...Y....i.....i
 09a0 00000009 0022b803 0000010c 05430900  .....".......C..
 09b0 000503d0 0e000022 26010000 010c1443  ......."&......C
 09c0 09000005 03380d00 0022d204 0000010c  .....8..."......
 09d0 24430900 000503a4 0b000023 6d00010d  $C.........#m...
 09e0 05620000 00050360 10000023 6e00010d  .b.....`...#n...
 09f0 08620000 000503a0 0b000023 7000010d  .b.........#p...
 0a00 0b620000 0005039c 0b000023 7100010d  .b.........#q...
 0a10 0e620000 00050364 10000023 6300010d  .b.....d...#c...
 0a20 11620000 000503c8 0e000023 6400010d  .b.........#d...
 0a30 14620000 000503cc 0e000023 6b00010d  .b.........#k...
 0a40 17620000 00050334 0d000023 73756d00  .b.....4...#sum.
 0a50 010d1a62 00000005 03980b00 0024cc02  ...b.........$..
 0a60 0000013a 0601430a 000025fa 03000001  ...:..C...%.....
 0a70 3a166200 00002673 756d0001 3c066200  :.b...&sum..<.b.
 0a80 00002726 6900013d 0a620000 00000028  ..'&i..=.b.....(
 0a90 cf040000 012d0601 29ee0400 00011305  .....-..).......
 0aa0 62000000 80080000 14030000 019c0c0b  b...............
 0ab0 00002a00 0000008e 0a00002b 69000124  ..*........+i..$
 0ac0 0d620000 00000000 002c430a 00007009  .b.......,C...p.
 0ad0 00001800 00000126 06002d11 0a000024  .......&..-....$
 0ae0 0b000040 00000001 2a05d30a 00002e1e  ...@....*.......
 0af0 0a00002a 0000002f 40000000 302a0a00  ...*.../@...0*..
 0b00 0031360a 00004000 00003237 0a000042  .16...@...27...B
 0b10 00000033 300b0000 550b0000 00000034  ...30...U......4
 0b20 d4080000 610b0000 e70a0000 35015a02  ....a.......5.Z.
 0b30 08640033 fc080000 550b0000 33280900  .d.3....U...3(..
 0b40 00550b00 00337009 00006d0b 00003324  .U...3p...m...3$
 0b50 0b000079 0b000000 36430a00 00500100  ...y....6C...P..
 0b60 00e00100 00019c37 110a0000 30030000  .......7....0...
 0b70 40000000 019c550b 00002e1e 0a000056  @.....U........V
 0b80 00000030 2a0a0000 2f580000 0032370a  ...0*.../X...27.
 0b90 00008d00 00003354 03000055 0b000000  ......3T...U....
 0ba0 00386404 00006404 0000068c 0538c602  .8d...d......8..
 0bb0 0000c602 0000069b 0638be03 0000be03  .........8......
 0bc0 0000010f 0638d203 0000d203 0000010e  .....8..........
 0bd0 0600e60c 00000400 2f030000 04019806  ......../.......
 0be0 00000c28 050000a2 070000cc 07000090  ...(............
 0bf0 000000b6 08000002 08079e00 00000304  ................
 0c00 05696e74 00020407 a8000000 020805ef  .int............
 0c10 00000002 10046f05 00000201 06da0200  ......o.........
 0c20 00020108 d8020000 020205f4 02000002  ................
 0c30 02070402 00000204 05f40000 00020407  ................
 0c40 a3000000 04b40200 00020c0d 2c000000  ............,...
 0c50 04a30200 00032c0e 64000000 04b00300  ......,.d.......
 0c60 0003720e 64000000 047e0400 00039117  ..r.d....~......
 0c70 2c000000 05470200 00046501 17330000  ,....G....e..3..
 0c80 00060403 a603d100 00000741 02000003  ...........A....
 0c90 a80ca200 000007db 01000003 a913d100  ................
 0ca0 00000008 4f000000 e1000000 09330000  ....O........3..
 0cb0 0003000a 0803a309 05010000 0b9a0300  ................
 0cc0 0003a507 2c000000 000ba203 000003aa  ....,...........
 0cd0 05af0000 00040004 1c030000 03ab03e1  ................
 0ce0 00000004 9e010000 03af1b72 0000000c  ...........r....
 0cf0 04043404 00000516 196b0000 000daf01  ..4......k......
 0d00 00001805 2f088501 00000b3d 03000005  ..../......=....
 0d10 31138501 0000000e 5f6b0005 32072c00  1......._k..2.,.
 0d20 0000040b 85030000 05320b2c 00000008  .........2.,....
 0d30 0b980100 00053214 2c000000 0c0b6904  ......2.,.....i.
 0d40 00000532 1b2c0000 00100e5f 78000533  ...2.,....._x..3
 0d50 0b8b0100 0014000f 042b0100 00081f01  .........+......
 0d60 00009b01 00000933 00000000 000dd601  .......3........
 0d70 00002405 37081e02 00000be6 00000005  ..$.7...........
 0d80 39092c00 0000000b c9030000 053a092c  9.,..........:.,
 0d90 00000004 0b090100 00053b09 2c000000  ..........;.,...
 0da0 080bf304 0000053c 092c0000 000c0b7d  .......<.,.....}
 0db0 02000005 3d092c00 0000100b 63020000  ....=.,.....c...
 0dc0 053e092c 00000014 0b6e0400 00053f09  .>.,.....n....?.
 0dd0 2c000000 180bfe02 00000540 092c0000  ,..........@.,..
 0de0 001c0ba9 04000005 41092c00 00002000  ........A.,... .
 0df0 10180100 00080105 4a086302 00000b8b  ........J.c.....
 0e00 01000005 4b0a6302 0000000b 48000000  ....K.c.....H...
 0e10 054c0963 02000080 11f10300 00054e0a  .L.c..........N.
 0e20 1f010000 00011144 01000005 510a1f01  .......D....Q...
 0e30 00000401 00081d01 00007302 00000933  ..........s....3
 0e40 0000001f 00108602 00009001 055d08b6  .............]..
 0e50 0200000b 3d030000 055e12b6 02000000  ....=....^......
 0e60 0b550300 00055f06 2c000000 040b9301  .U...._.,.......
 0e70 00000561 09bc0200 00080b18 01000005  ...a............
 0e80 621e1e02 00008800 0f047302 000008cc  b.........s.....
 0e90 020000cc 02000009 33000000 1f000f04  ........3.......
 0ea0 d2020000 120d0803 00000805 7508fb02  ............u...
 0eb0 00000b03 01000005 7611fb02 0000000b  ........v.......
 0ec0 54000000 0577062c 00000004 000f044f  T....w.,.......O
 0ed0 0000000d 27030000 6805b508 44040000  ....'...h...D...
 0ee0 0e5f7000 05b612fb 02000000 0e5f7200  ._p.........._r.
 0ef0 05b7072c 00000004 0e5f7700 05b8072c  ...,....._w....,
 0f00 00000008 0b3d0100 0005b909 56000000  .....=......V...
 0f10 0c0bf201 000005ba 09560000 000e0e5f  .........V....._
 0f20 62660005 bb11d302 0000100b b5000000  bf..............
 0f30 05bc072c 00000018 0b2d0100 0005c30a  ...,.....-......
 0f40 1d010000 1c0bc601 000005c5 1dc80500  ................
 0f50 00200b5c 02000005 c71df705 0000240b  . .\..........$.
 0f60 aa030000 05ca0d1b 06000028 0bc30400  ...........(....
 0f70 0005cb09 35060000 2c0e5f75 620005ce  ....5...,._ub...
 0f80 11d30200 00300e5f 75700005 cf12fb02  .....0._up......
 0f90 0000380e 5f757200 05d0072c 0000003c  ..8._ur....,...<
 0fa0 0bfd0000 0005d311 3b060000 400b9b04  ........;...@...
 0fb0 000005d4 114b0600 00430e5f 6c620005  .....K...C._lb..
 0fc0 d711d302 0000440b 53010000 05da072c  ......D.S......,
 0fd0 0000004c 0b640100 0005db0a 7e000000  ...L.d......~...
 0fe0 500b7800 000005de 12620400 00540b4e  P.x......b...T.N
 0ff0 02000005 e20c1101 0000580b 2f030000  ..........X./...
 1000 05e40e05 0100005c 0b540200 0005e509  .......\.T......
 1010 2c000000 64001396 00000062 04000014  ,...d......b....
 1020 62040000 141d0100 0014b605 0000142c  b..............,
 1030 00000000 0f046d04 00001562 04000016  ......m....b....
 1040 8d030000 28040539 0208b605 000017ed  ....(..9........
 1050 02000005 3b02072c 00000000 174c0100  ....;..,.....L..
 1060 00054002 0ba70600 000417e2 01000005  ..@.............
 1070 400214a7 06000008 17a70100 00054002  @.............@.
 1080 1ea70600 000c1750 03000005 4202082c  .......P....B..,
 1090 00000010 176d0000 00054302 08a70800  .....m....C.....
 10a0 0014176c 03000005 4602072c 00000030  ...l....F..,...0
 10b0 175a0300 00054702 16bc0800 00341798  .Z....G......4..
 10c0 02000005 4902072c 00000038 17620300  ....I..,...8.b..
 10d0 00054b02 0acd0800 003c1739 02000005  ..K......<.9....
 10e0 4e021385 01000040 17cc0100 00054f02  N......@......O.
 10f0 072c0000 004417e9 04000005 50021385  .,...D......P...
 1100 01000048 17aa0200 00055102 14d30800  ...H......Q.....
 1110 004c17ea 01000005 5402072c 00000050  .L......T..,...P
 1120 175c0100 00055502 09b60500 005417e6  .\....U......T..
 1130 02000005 78020782 08000058 18860200  ....x......X....
 1140 00057c02 13b60200 00480118 17020000  ..|......H......
 1150 057d0212 73020000 4c011891 04000005  .}..s...L.......
 1160 81020ce4 080000dc 02183501 00000586  ..........5.....
 1170 02106806 0000e002 18130100 00058802  ..h.............
 1180 0af00800 00ec0200 0f04bc05 00000201  ................
 1190 08e10200 0015bc05 00000f04 44040000  ............D...
 11a0 13960000 00ec0500 00146204 0000141d  ..........b.....
 11b0 01000014 ec050000 142c0000 00000f04  .........,......
 11c0 c3050000 15ec0500 000f04ce 05000013  ................
 11d0 8a000000 1b060000 14620400 00141d01  .........b......
 11e0 0000148a 00000014 2c000000 000f04fd  ........,.......
 11f0 05000013 2c000000 35060000 14620400  ....,...5....b..
 1200 00141d01 0000000f 04210600 00084f00  .........!....O.
 1210 00004b06 00000933 00000002 00084f00  ..K....3......O.
 1220 00005b06 00000933 00000000 00051503  ..[....3........
 1230 0000051f 011a0103 00001978 0400000c  ...........x....
 1240 05230108 a1060000 173d0300 00052501  .#.......=....%.
 1250 11a10600 000017fd 01000005 2601072c  ............&..,
 1260 00000004 170f0300 00052701 0ba70600  ..........'.....
 1270 0008000f 04680600 000f045b 06000019  .....h.....[....
 1280 65000000 0e053f01 08e60600 00179403  e.....?.........
 1290 00000540 0112e606 00000017 de030000  ...@............
 12a0 05410112 e6060000 06172f04 00000542  .A......../....B
 12b0 01125d00 00000c00 085d0000 00f60600  ..]......]......
 12c0 00093300 00000200 1ad00559 02070b08  ..3........Y....
 12d0 0000175c 04000005 5b021833 00000000  ...\....[..3....
 12e0 17e40300 00055c02 12b60500 0004172c  ......\........,
 12f0 02000005 5d02100b 08000008 17b40400  ....]...........
 1300 00055e02 179b0100 002417b7 01000005  ..^......$......
 1310 5f020f2c 00000048 17380300 00056002  _..,...H.8....`.
 1320 2c250000 005017ca 04000005 61021aad  ,%...P......a...
 1330 06000058 17430300 00056202 16050100  ...X.C....b.....
 1340 006817db 04000005 63021605 01000070  .h......c......p
 1350 17d80000 00056402 16050100 00781787  ......d......x..
 1360 04000005 6502101b 08000080 17200200  ....e........ ..
 1370 00056602 102b0800 0088173c 04000005  ..f..+.....<....
 1380 67020f2c 000000a0 177d0100 00056802  g..,.....}....h.
 1390 16050100 00a417c9 00000005 69021605  ............i...
 13a0 010000ac 176c0100 00056a02 16050100  .....l....j.....
 13b0 00b4177e 00000005 6b021605 010000bc  ...~....k.......
 13c0 178d0000 00056c02 16050100 00c417eb  ......l.........
 13d0 02000005 6d02082c 000000cc 0008bc05  ....m..,........
 13e0 00001b08 00000933 00000019 0008bc05  .......3........
 13f0 00002b08 00000933 00000007 0008bc05  ..+....3........
 1400 00003b08 00000933 00000017 001af005  ..;....3........
 1410 72020762 08000017 76020000 0575021b  r..b....v....u..
 1420 62080000 00176d02 00000576 02187208  b.....m....v..r.
 1430 00007800 08fb0200 00720800 00093300  ..x......r....3.
 1440 00001d00 08330000 00820800 00093300  .....3........3.
 1450 00001d00 1bf00557 0203a708 00001c8d  .......W........
 1460 03000005 6e020bf6 0600001c a1040000  ....n...........
 1470 0577020b 3b080000 0008bc05 0000b708  .w..;...........
 1480 00000933 00000018 001dbe00 00000f04  ...3............
 1490 b7080000 1ecd0800 00146204 0000000f  ..........b.....
 14a0 04c20800 000f0485 0100001e e4080000  ................
 14b0 142c0000 00000f04 ea080000 0f04d908  .,..............
 14c0 0000085b 06000000 09000009 33000000  ...[........3...
 14d0 02001f50 04000005 07031762 0400001f  ...P.......b....
 14e0 49040000 0508031d 68040000 08f20500  I.......h.......
 14f0 00250900 00200015 1a090000 21b60500  .%... ......!...
 1500 00061424 25090000 216a0700 00061515  ...$%...!j......
 1510 2c000000 0f044809 0000132c 0000005c  ,.....H....,...\
 1520 09000014 5c090000 145c0900 00000f04  ....\....\......
 1530 62090000 22218e02 00000763 0eb60500  b..."!.....c....
 1540 00211506 00000810 0f7b0900 000f04b6  .!.......{......
 1550 05000021 91020000 08fc0eb6 05000021  ...!...........!
 1560 7a060000 08fd0c2c 00000021 84070000  z......,...!....
 1570 08fd142c 00000021 1c080000 08fd1c2c  ...,...!.......,
 1580 00000021 55060000 08ff0c2c 00000021  ...!U......,...!
 1590 29070000 099a1664 00000021 0f050000  )......d...!....
 15a0 099b152c 00000008 b6050000 e5090000  ...,............
 15b0 09330000 00010021 85050000 099e17d5  .3.....!........
 15c0 09000004 e6050000 0a2a1633 00000004  .........*.3....
 15d0 60070000 0a2f1509 0a00000f 040f0a00  `..../..........
 15e0 0013f109 00001e0a 0000145c 09000000  ...........\....
 15f0 04350800 000a360f 42090000 21fd0400  .5....6.B...!...
 1600 000abb12 fd090000 21920700 000abe10  ........!.......
 1610 1e0a0000 23d70500 00070433 0000000b  ....#......3....
 1620 18067f0a 00002442 07000000 24280600  ......$B....$(..
 1630 0001245e 06000002 241d0600 00032439  ..$^....$.....$9
 1640 07000004 24230800 00052412 08000006  ....$#....$.....
 1650 00217b05 00000b21 1c420a00 00236906  .!{....!.B...#i.
 1660 00000704 33000000 0b2306b0 0a000024  ....3....#.....$
 1670 56070000 00244c07 00000124 8b070000  V....$L....$....
 1680 020021c3 0500000b 281e8b0a 0000213a  ..!.....(.....!:
 1690 0600000c 291a2509 0000219e 0500000c  ....).%...!.....
 16a0 381a2509 0000042d 0800000d 7b164f00  8.%....-....{.O.
 16b0 000015d4 0a000004 af050000 0d800f2c  ...............,
 16c0 00000004 ae050000 0d811633 00000004  ...........3....
 16d0 33060000 0d840f3a 00000002 04048906  3......:........
 16e0 00000208 03810600 00020804 74050000  ............t...
 16f0 02100319 05000002 20036705 0000198f  ........ .g.....
 1700 06000008 0ded010a 570b0000 256c6f77  ........W...%low
 1710 000ded01 1ae50a00 000017d2 0500000d  ................
 1720 ed011fe5 0a000004 001b080d f4010979  ...............y
 1730 0b000026 73000df6 01132c0b 0000266c  ...&s.....,...&l
 1740 6c000df7 010afd0a 00000005 f0050000  l...............
 1750 0df80103 570b0000 15790b00 0008e00a  ....W....y......
 1760 00009b0b 00000933 000000ff 00158b0b  .......3........
 1770 00001f03 0800000d fc01169b 0b00001f  ................
 1780 02060000 0d020216 9b0b0000 270c0600  ............'...
 1790 00012901 fd0a0000 cc070000 90000000  ..).............
 17a0 019c2875 00012912 fd0a0000 d0000000  ..(u..).........
 17b0 28760001 291cfd0a 0000f800 00002975  (v..).........)u
 17c0 7500012b 11860b00 00297676 00012c11  u..+.....)vv..,.
 17d0 860b0000 29770001 2d0b790b 00002a8d  ....)w..-.y...*.
 17e0 05000001 2e0af10a 00002001 00002a7e  .......... ...*~
 17f0 07000001 2f0af10a 00003e01 00002b74  ..../.....>...+t
 1800 07000001 300af10a 0000015e 2afc0500  ....0......^*...
 1810 0001310a f10a0000 5c010000 2af80500  ..1.....\...*...
 1820 0001320a f10a0000 91010000 2ad00500  ..2.........*...
 1830 0001330a f10a0000 b4010000 2a930500  ..3.........*...
 1840 0001340a f10a0000 de010000 2b5a0500  ..4.........+Z..
 1850 0001350a f10a0000 016d2a33 07000001  ..5......m*3....
 1860 360af10a 00002302 00002c28 08000008  6.....#...,(....
 1870 000000c2 0c00002b 49060000 01501bf1  .......+I....P..
 1880 0a000001 5a2b4f06 00000150 1bf10a00  ....Z+O....P....
 1890 00015b00 2d380800 000c0000 002b4906  ..[.-8.......+I.
 18a0 00000153 11f10a00 00015a2b 4f060000  ...S......Z+O...
 18b0 015311f1 0a000001 5b000000 22000000  .S......[..."...
 18c0 02009e05 00000401 c00c0000 5c080000  ............\...
 18d0 80080000 3d080000 a2070000 2b000000  ....=.......+...
 18e0 0180                                 ..              
Contents of section .debug_abbrev:
 0000 01110010 06110112 01030e1b 0e250e13  .............%..
 0010 05000000 01110010 06110112 01030e1b  ................
 0020 0e250e13 05000000 01110125 0e130b03  .%.........%....
 0030 0e1b0e55 17110110 17000002 24000b0b  ...U........$...
 0040 3e0b030e 00000335 00491300 00042400  >......5.I....$.
 0050 0b0b3e0b 03080000 05160003 0e3a0b3b  ..>..........:.;
 0060 0b390b49 13000006 1600030e 3a0b3b05  .9.I........:.;.
 0070 390b4913 00000717 010b0b3a 0b3b0b39  9.I........:.;.9
 0080 0b011300 00080d00 030e3a0b 3b0b390b  ..........:.;.9.
 0090 49130000 09010149 13011300 000a2100  I......I......!.
 00a0 49132f0b 00000b13 010b0b3a 0b3b0b39  I./........:.;.9
 00b0 0b011300 000c0d00 030e3a0b 3b0b390b  ..........:.;.9.
 00c0 4913380b 00000d0f 000b0b00 000e1301  I.8.............
 00d0 030e0b0b 3a0b3b0b 390b0113 00000f0d  ....:.;.9.......
 00e0 0003083a 0b3b0b39 0b491338 0b000010  ...:.;.9.I.8....
 00f0 0f000b0b 49130000 11130103 0e0b053a  ....I..........:
 0100 0b3b0b39 0b011300 00120d00 030e3a0b  .;.9..........:.
 0110 3b0b390b 49133805 00001315 00271900  ;.9.I.8......'..
 0120 00141501 27194913 01130000 15050049  ....'.I........I
 0130 13000016 26004913 00001713 01030e0b  ....&.I.........
 0140 053a0b3b 05390b01 13000018 0d00030e  .:.;.9..........
 0150 3a0b3b05 390b4913 380b0000 190d0003  :.;.9.I.8.......
 0160 0e3a0b3b 05390b49 13380500 001a1301  .:.;.9.I.8......
 0170 030e0b0b 3a0b3b05 390b0113 00001b13  ....:.;.9.......
 0180 010b0b3a 0b3b0539 0b011300 001c1701  ...:.;.9........
 0190 0b0b3a0b 3b05390b 01130000 1d0d0003  ..:.;.9.........
 01a0 0e3a0b3b 05390b49 1300001e 1300030e  .:.;.9.I........
 01b0 3c190000 1f150127 19011300 00203400  <......'..... 4.
 01c0 030e3a0b 3b05390b 49133f19 3c190000  ..:.;.9.I.?.<...
 01d0 21340003 0e3a0b3b 0b390b49 133f193c  !4...:.;.9.I.?.<
 01e0 19000022 3400030e 3a0b3b0b 390b4913  ..."4...:.;.9.I.
 01f0 3f190218 00002334 0003083a 0b3b0b39  ?.....#4...:.;.9
 0200 0b49133f 19021800 00242e01 3f19030e  .I.?.....$..?...
 0210 3a0b3b0b 390b2719 200b0113 00002505  :.;.9.'. .....%.
 0220 00030e3a 0b3b0b39 0b491300 00263400  ...:.;.9.I...&4.
 0230 03083a0b 3b0b390b 49130000 270b0100  ..:.;.9.I...'...
 0240 00282e00 3f19030e 3a0b3b0b 390b200b  .(..?...:.;.9. .
 0250 0000292e 013f1903 0e3a0b3b 0b390b49  ..)..?...:.;.9.I
 0260 13110112 06401897 42190113 00002a0b  .....@..B.....*.
 0270 01551701 1300002b 34000308 3a0b3b0b  .U.....+4...:.;.
 0280 390b4913 02170000 2c1d0031 13520155  9.I.....,..1.R.U
 0290 17580b59 0b570b00 002d1d01 31135201  .X.Y.W...-..1.R.
 02a0 5517580b 590b570b 01130000 2e050031  U.X.Y.W........1
 02b0 13021700 002f0b01 55170000 30340031  ...../..U...04.1
 02c0 13000031 0b013113 55170000 32340031  ...1..1.U...24.1
 02d0 13021700 00338982 01001101 31130000  .....3......1...
 02e0 34898201 01110131 13011300 00358a82  4......1.....5..
 02f0 01000218 91421800 00362e00 31131101  .....B...6..1...
 0300 12064018 97421900 00372e01 31131101  ..@..B...7..1...
 0310 12064018 97421901 13000038 2e003f19  ..@..B.....8..?.
 0320 3c196e0e 030e3a0b 3b0b390b 00000001  <.n...:.;.9.....
 0330 1101250e 130b030e 1b0e1101 12061017  ..%.............
 0340 00000224 000b0b3e 0b030e00 00032400  ...$...>......$.
 0350 0b0b3e0b 03080000 04160003 0e3a0b3b  ..>..........:.;
 0360 0b390b49 13000005 1600030e 3a0b3b05  .9.I........:.;.
 0370 390b4913 00000617 010b0b3a 0b3b0b39  9.I........:.;.9
 0380 0b011300 00070d00 030e3a0b 3b0b390b  ..........:.;.9.
 0390 49130000 08010149 13011300 00092100  I......I......!.
 03a0 49132f0b 00000a13 010b0b3a 0b3b0b39  I./........:.;.9
 03b0 0b011300 000b0d00 030e3a0b 3b0b390b  ..........:.;.9.
 03c0 4913380b 00000c0f 000b0b00 000d1301  I.8.............
 03d0 030e0b0b 3a0b3b0b 390b0113 00000e0d  ....:.;.9.......
 03e0 0003083a 0b3b0b39 0b491338 0b00000f  ...:.;.9.I.8....
 03f0 0f000b0b 49130000 10130103 0e0b053a  ....I..........:
 0400 0b3b0b39 0b011300 00110d00 030e3a0b  .;.9..........:.
 0410 3b0b390b 49133805 00001215 00271900  ;.9.I.8......'..
 0420 00131501 27194913 01130000 14050049  ....'.I........I
 0430 13000015 26004913 00001613 01030e0b  ....&.I.........
 0440 053a0b3b 05390b01 13000017 0d00030e  .:.;.9..........
 0450 3a0b3b05 390b4913 380b0000 180d0003  :.;.9.I.8.......
 0460 0e3a0b3b 05390b49 13380500 00191301  .:.;.9.I.8......
 0470 030e0b0b 3a0b3b05 390b0113 00001a13  ....:.;.9.......
 0480 010b0b3a 0b3b0539 0b011300 001b1701  ...:.;.9........
 0490 0b0b3a0b 3b05390b 01130000 1c0d0003  ..:.;.9.........
 04a0 0e3a0b3b 05390b49 1300001d 1300030e  .:.;.9.I........
 04b0 3c190000 1e150127 19011300 001f3400  <......'......4.
 04c0 030e3a0b 3b05390b 49133f19 3c190000  ..:.;.9.I.?.<...
 04d0 20210000 00213400 030e3a0b 3b0b390b   !...!4...:.;.9.
 04e0 49133f19 3c190000 22260000 00230401  I.?.<..."&...#..
 04f0 030e3e0b 0b0b4913 3a0b3b0b 390b0113  ..>...I.:.;.9...
 0500 00002428 00030e1c 0b000025 0d000308  ..$(.......%....
 0510 3a0b3b05 390b4913 380b0000 260d0003  :.;.9.I.8...&...
 0520 083a0b3b 05390b49 13000027 2e013f19  .:.;.9.I...'..?.
 0530 030e3a0b 3b0b390b 27194913 11011206  ..:.;.9.'.I.....
 0540 40189742 19000028 05000308 3a0b3b0b  @..B...(....:.;.
 0550 390b4913 02170000 29340003 083a0b3b  9.I.....)4...:.;
 0560 0b390b49 1300002a 3400030e 3a0b3b0b  .9.I...*4...:.;.
 0570 390b4913 02170000 2b340003 0e3a0b3b  9.I.....+4...:.;
 0580 0b390b49 13021800 002c0b01 11011206  .9.I.....,......
 0590 01130000 2d0b0111 01120600 00000111  ....-...........
 05a0 00100611 01120103 0e1b0e25 0e130500  ...........%....
 05b0 0000                                 ..              
Contents of section .debug_aranges:
 0000 1c000000 02000000 00000400 00000000  ................
 0010 00000000 10000000 00000000 00000000  ................
 0020 1c000000 02002600 00000400 00000000  ......&.........
 0030 30010000 20000000 00000000 00000000  0... ...........
 0040 24000000 02004c00 00000400 00000000  $.....L.........
 0050 50010000 20020000 80080000 14030000  P... ...........
 0060 00000000 00000000 1c000000 0200d20b  ................
 0070 00000400 00000000 cc070000 90000000  ................
 0080 00000000 00000000 1c000000 0200bc18  ................
 0090 00000400 00000000 5c080000 24000000  ........\...$...
 00a0 00000000 00000000                    ........        
Contents of section .debug_str:
 0000 7372632f 696e6974 2e73002f 686f6d65  src/init.s./home
 0010 2f737475 64656e74 2f6f7474 65722d70  /student/otter-p
 0020 726f6772 616d732f 6d6d0047 4e552041  rograms/mm.GNU A
 0030 5320322e 33312e31 00737263 2f6c6564  S 2.31.1.src/led
 0040 73747566 662e7300 5f64736f 5f68616e  stuff.s._dso_han
 0050 646c6500 5f73697a 65007372 632f6d61  dle._size.src/ma
 0060 696e2e63 005f7261 6e643438 005f656d  in.c._rand48._em
 0070 65726765 6e637900 5f646174 61005f77  ergency._data._w
 0080 6372746f 6d625f73 74617465 005f7763  crtomb_state._wc
 0090 7372746f 6d62735f 73746174 65006c6f  srtombs_state.lo
 00a0 6e67206c 6f6e6720 756e7369 676e6564  ng long unsigned
 00b0 20696e74 005f6c62 6673697a 65005f5f   int._lbfsize.__
 00c0 6c6f6361 6c655f74 005f6d62 72746f77  locale_t._mbrtow
 00d0 635f7374 61746500 5f776374 6f6d625f  c_state._wctomb_
 00e0 73746174 65005f5f 746d5f73 6563006c  state.__tm_sec.l
 00f0 6f6e6720 6c6f6e67 20696e74 005f7562  ong long int._ub
 0100 7566005f 62617365 005f5f74 6d5f686f  uf._base.__tm_ho
 0110 7572005f 5f736600 5f6f6e5f 65786974  ur.__sf._on_exit
 0120 5f617267 73007365 636f6e64 005f636f  _args.second._co
 0130 6f6b6965 005f5f73 676c7565 005f666c  okie.__sglue._fl
 0140 61677300 5f69735f 63786100 5f737464  ags._is_cxa._std
 0150 696e005f 626c6b73 697a6500 5f637674  in._blksize._cvt
 0160 62756600 5f6f6666 73657400 5f6d6273  buf._offset._mbs
 0170 72746f77 63735f73 74617465 005f6d62  rtowcs_state._mb
 0180 726c656e 5f737461 7465005f 666e6172  rlen_state._fnar
 0190 6773005f 666e7300 5f736967 6e005f66  gs._fns._sign._f
 01a0 6c6f636b 5f74005f 73746465 7272005f  lock_t._stderr._
 01b0 42696769 6e74005f 67616d6d 615f7369  Bigint._gamma_si
 01c0 676e6761 6d005f72 65616400 5f726573  gngam._read._res
 01d0 756c745f 6b005f5f 746d005f 5f776368  ult_k.__tm.__wch
 01e0 62005f73 74646f75 74005f63 76746c65  b._stdout._cvtle
 01f0 6e005f66 696c6500 73736567 005f6e69  n._file.sseg._ni
 0200 6f627300 73686f72 7420756e 7369676e  obs.short unsign
 0210 65642069 6e74005f 61746578 69743000  ed int._atexit0.
 0220 5f736967 6e616c5f 62756600 5f617363  _signal_buf._asc
 0230 74696d65 5f627566 005f7265 73756c74  time_buf._result
 0240 005f5f77 63680077 696e745f 74005f6c  .__wch.wint_t._l
 0250 6f636b00 5f666c61 67733200 5f777269  ock._flags2._wri
 0260 7465005f 5f746d5f 79656172 005f6e6d  te.__tm_year._nm
 0270 616c6c6f 63005f6e 65787466 005f5f74  alloc._nextf.__t
 0280 6d5f6d6f 6e005f61 74657869 74007375  m_mon._atexit.su
 0290 626f7074 61726700 5f5f7364 6964696e  boptarg.__sdidin
 02a0 6974005f 6f66665f 74005f66 7265656c  it._off_t._freel
 02b0 69737400 5f4c4f43 4b5f5245 43555253  ist._LOCK_RECURS
 02c0 4956455f 54007372 616e6400 6f747465  IVE_T.srand.otte
 02d0 725f736c 65657000 756e7369 676e6564  r_sleep.unsigned
 02e0 20636861 72005f6e 6577005f 685f6572   char._new._h_er
 02f0 726e6f00 73686f72 7420696e 74005f5f  rno.short int.__
 0300 746d5f79 64617900 5f5f7362 7566005f  tm_yday.__sbuf._
 0310 696f6273 005f5f46 494c4500 5f6d6273  iobs.__FILE._mbs
 0320 74617465 5f74005f 5f734649 4c45005f  tate_t.__sFILE._
 0330 6d627374 61746500 5f72616e 645f6e65  mbstate._rand_ne
 0340 7874005f 6d626c65 6e5f7374 61746500  xt._mblen_state.
 0350 5f696e63 005f696e 64005f6c 6f63616c  _inc._ind._local
 0360 65005f5f 636c6561 6e757000 5f756e73  e.__cleanup._uns
 0370 70656369 66696564 5f6c6f63 616c655f  pecified_locale_
 0380 696e666f 005f6d61 78776473 005f7265  info._maxwds._re
 0390 656e7400 5f736565 64005f5f 636f756e  ent._seed.__coun
 03a0 74005f5f 76616c75 65005f73 65656b00  t.__value._seek.
 03b0 5f66706f 735f7400 66697273 74007475  _fpos_t.first.tu
 03c0 726e4c45 44536f6e 005f5f74 6d5f6d69  rnLEDSon.__tm_mi
 03d0 6e007475 726e4c45 44536f66 66005f6d  n.turnLEDSoff._m
 03e0 756c7400 5f737472 746f6b5f 6c617374  ult._strtok_last
 03f0 005f666e 74797065 73007374 696d6500  ._fntypes.stime.
 0400 474e5520 43313720 382e322e 30202d6d  GNU C17 8.2.0 -m
 0410 61726368 3d727633 32696d20 2d6d6162  arch=rv32im -mab
 0420 693d696c 70333220 2d67202d 4f33005f  i=ilp32 -g -O3._
 0430 61646400 5f5f554c 6f6e6700 5f676574  add.__ULong._get
 0440 64617465 5f657272 005f676c 6f62616c  date_err._global
 0450 5f696d70 7572655f 70747200 5f756e75  _impure_ptr._unu
 0460 7365645f 72616e64 005f7764 73005f5f  sed_rand._wds.__
 0470 746d5f77 64617900 5f676c75 65005f73  tm_wday._glue._s
 0480 73697a65 5f74005f 6c363461 5f627566  size_t._l64a_buf
 0490 005f7369 675f6675 6e63005f 6e627566  ._sig_func._nbuf
 04a0 005f756e 75736564 005f5f74 6d5f6973  ._unused.__tm_is
 04b0 64737400 5f6c6f63 616c7469 6d655f62  dst._localtime_b
 04c0 7566005f 636c6f73 65005f72 3438006d  uf._close._r48.m
 04d0 61746d75 6c746970 6c79005f 6d62746f  atmultiply._mbto
 04e0 77635f73 74617465 005f7035 73006d61  wc_state._p5s.ma
 04f0 696e005f 5f746d5f 6d646179 00687461  in.__tm_mday.hta
 0500 625f6861 73685f70 6f696e74 6572005f  b_hash_pointer._
 0510 6461796c 69676874 00636f6d 706c6578  daylight.complex
 0520 20646f75 626c6500 2e2e2f2e 2e2f2e2e   double.../../..
 0530 2f2e2f72 69736376 2d676363 2f6c6962  /./riscv-gcc/lib
 0540 6763632f 636f6e66 69672f72 69736376  gcc/config/riscv
 0550 2f6d756c 7469332e 6300775f 68696768  /multi3.c.w_high
 0560 5f746d70 32780063 6f6d706c 6578206c  _tmp2x.complex l
 0570 6f6e6720 646f7562 6c650072 69736376  ong double.riscv
 0580 5f616269 005f747a 6e616d65 00755f6c  _abi._tzname.u_l
 0590 6f770077 5f686967 685f746d 7000756e  ow.w_high_tmp.un
 05a0 73706563 765f7374 72696e67 73005553  specv_strings.US
 05b0 49747970 65005f73 79735f65 72726c69  Itype._sys_errli
 05c0 73740072 69736376 5f636d6f 64656c00  st.riscv_cmodel.
 05d0 775f6869 67680072 69736376 5f616269  w_high.riscv_abi
 05e0 5f747970 65006861 73687661 6c5f7400  _type.hashval_t.
 05f0 4457756e 696f6e00 6e65775f 775f6c6f  DWunion.new_w_lo
 0600 77005f5f 636c7a5f 74616200 5f5f6d75  w.__clz_tab.__mu
 0610 6c646933 00656e76 69726f6e 00414249  ldi3.environ.ABI
 0620 5f494c50 33324400 4142495f 494c5033  _ILP32D.ABI_ILP3
 0630 32450044 49747970 6500756e 73706563  2E.DItype.unspec
 0640 5f737472 696e6773 005f5f6f 7030005f  _strings.__op0._
 0650 5f6f7031 006f7074 72657365 74004142  _op1.optreset.AB
 0660 495f494c 50333246 00726973 63765f63  I_ILP32F.riscv_c
 0670 6f64655f 6d6f6465 6c006f70 74696e64  ode_model.optind
 0680 00636f6d 706c6578 20666c6f 61740044  .complex float.D
 0690 57737472 75637400 474e5520 43313720  Wstruct.GNU C17 
 06a0 382e322e 30202d6d 636d6f64 656c3d6d  8.2.0 -mcmodel=m
 06b0 65646c6f 77202d6d 636d6f64 656c3d6d  edlow -mcmodel=m
 06c0 65646c6f 77202d6d 61726368 3d727633  edlow -march=rv3
 06d0 3269202d 6d616269 3d696c70 3332202d  2i -mabi=ilp32 -
 06e0 67202d4f 73202d4f 32202d4f 73202d66  g -Os -O2 -Os -f
 06f0 6275696c 64696e67 2d6c6962 67636320  building-libgcc 
 0700 2d666e6f 2d737461 636b2d70 726f7465  -fno-stack-prote
 0710 63746f72 202d6676 69736962 696c6974  ctor -fvisibilit
 0720 793d6869 6464656e 005f7469 6d657a6f  y=hidden._timezo
 0730 6e650063 61727279 00414249 5f4c5036  ne.carry.ABI_LP6
 0740 34004142 495f494c 50333200 434d5f4d  4.ABI_ILP32.CM_M
 0750 4544414e 5900434d 5f4d4544 4c4f5700  EDANY.CM_MEDLOW.
 0760 68746162 5f686173 68005f73 79735f6e  htab_hash._sys_n
 0770 65727200 755f6c6f 775f6d73 6200765f  err.u_low_msb.v_
 0780 6c6f7700 6f707465 72720043 4d5f5049  low.opterr.CM_PI
 0790 43006874 61625f65 715f706f 696e7465  C.htab_eq_pointe
 07a0 72002f68 6f6d652f 73747564 656e742f  r./home/student/
 07b0 72697363 762d746f 6f6c732f 72697363  riscv-tools/risc
 07c0 762d676e 752d746f 6f6c6368 61696e2f  v-gnu-toolchain/
 07d0 6275696c 642d6763 632d6e65 776c6962  build-gcc-newlib
 07e0 2d737461 6765322f 72697363 7633322d  -stage2/riscv32-
 07f0 756e6b6e 6f776e2d 656c662f 6c696267  unknown-elf/libg
 0800 6363005f 5f706f70 636f756e 745f7461  cc.__popcount_ta
 0810 62004142 495f4c50 36344400 6f70746f  b.ABI_LP64D.opto
 0820 70740041 42495f4c 50363446 00555149  pt.ABI_LP64F.UQI
 0830 74797065 00687461 625f6571 002e2e2f  type.htab_eq.../
 0840 2e2e2f2e 2e2f2e2f 72697363 762d6763  ../.././riscv-gc
 0850 632f6c69 62676363 2f636f6e 6669672f  c/libgcc/config/
 0860 72697363 762f6d75 6c646933 2e5300    riscv/muldi3.S. 
Contents of section .debug_loc:
 0000 70090000 b4090000 0200309f b4090000  p.........0.....
 0010 230b0000 01006074 0b00008c 0b000001  #.....`t........
 0020 00600000 00000000 0000240b 0000340b  .`........$...4.
 0030 00000600 0ca08601 009f0000 00000000  ................
 0040 0000240b 0000280b 00000200 309f0000  ..$...(.....0...
 0050 00000000 00003003 00004c03 00000100  ......0...L.....
 0060 5a4c0300 00640300 00010059 64030000  ZL...d.....Yd...
 0070 6c030000 0400f301 5a9f6c03 00007003  l.......Z.l...p.
 0080 00000100 5a000000 00000000 00300300  ....Z........0..
 0090 004c0300 00020030 9f4c0300 00500300  .L.....0.L...P..
 00a0 00010058 50030000 54030000 0300787f  ...XP...T.....x.
 00b0 9f540300 00600300 00010058 6c030000  .T...`.....Xl...
 00c0 70030000 0200309f 00000000 00000000  p.....0.........
 00d0 00000000 24000000 06005a93 045b9304  ....$.....Z..[..
 00e0 24000000 90000000 0600f303 f50a259f  $.............%.
 00f0 00000000 00000000 00000000 64000000  ............d...
 0100 06005c93 045d9304 64000000 90000000  ..\..]..d.......
 0110 0600f303 f50c259f 00000000 00000000  ......%.........
 0120 14000000 24000000 01005a24 00000054  ....$.....Z$...T
 0130 00000001 00610000 00000000 00001400  .....a..........
 0140 00002400 00000100 5c240000 00640000  ..$.....\$...d..
 0150 0001005d 00000000 00000000 14000000  ...]............
 0160 24000000 0200309f 24000000 34000000  $.....0.$...4...
 0170 01006034 00000044 00000001 005a4400  ..`4...D.....ZD.
 0180 00009000 00000100 60000000 00000000  ........`.......
 0190 00240000 00340000 00060081 00800022  .$...4........."
 01a0 9f340000 00440000 0001005a 00000000  .4...D.....Z....
 01b0 00000000 14000000 24000000 0200309f  ........$.....0.
 01c0 24000000 3c000000 01005f40 00000068  $...<....._@...h
 01d0 00000001 005f0000 00000000 00001400  ....._..........
 01e0 00002400 00000200 309f2400 00002c00  ..$.....0.$...,.
 01f0 00000100 5e2c0000 003c0000 0006007f  ....^,...<......
 0200 007e0022 9f3c0000 00400000 0001005f  .~.".<...@....._
 0210 54000000 90000000 01005e00 00000000  T.........^.....
 0220 00000034 00000038 00000011 00800040  ...4...8.......@
 0230 4b24227a 00404b24 222b08ff 1a9f0000  K$"z.@K$"+......
 0240 00000000 0000                        ......          
Contents of section .debug_ranges:
 0000 70090000 1c0b0000 740b0000 940b0000  p.......t.......
 0010 00000000 00000000 70090000 98090000  ........p.......
 0020 9c090000 b4090000 b4090000 e00a0000  ................
 0030 740b0000 940b0000 00000000 00000000  t...............
 0040 240b0000 240b0000 280b0000 340b0000  $...$...(...4...
 0050 00000000 00000000 30030000 34030000  ........0...4...
 0060 48030000 58030000 00000000 00000000  H...X...........
 0070 50010000 70030000 80080000 940b0000  P...p...........
 0080 00000000 00000000                    ........        
Contents of section .debug_frame:
 0000 0c000000 ffffffff 0100017c 010d0200  ...........|....
 0010 50000000 00000000 80080000 14030000  P...............
 0020 440e4050 93059406 97096c88 02810189  D.@P......l.....
 0030 03920495 07960898 0a990b9a 0c9b0d03  ................
 0040 78020ac1 44c844c9 44d244d3 44d444d5  x...D.D.D.D.D.D.
 0050 44d644d7 44d844d9 44da44db 480e0044  D.D.D.D.D.D.H..D
 0060 0b000000 44000000 00000000 50010000  ....D.......P...
 0070 e0010000 440e3044 94054896 07608801  ....D.0D..H..`..
 0080 89029203 93049506 97089809 990a0374  ...............t
 0090 010ac844 c944d244 d344d444 d544d644  ...D.D.D.D.D.D.D
 00a0 d744d844 d9440e00 440b0000 20000000  .D.D.D..D... ...
 00b0 00000000 30030000 40000000 480e104c  ....0...@...H..L
 00c0 88028903 810158c1 44c844c9 440e0000  ......X.D.D.D...
 00d0 0c000000 ffffffff 0100017c 010d0200  ...........|....
 00e0 18000000 d0000000 cc070000 90000000  ................
 00f0 440e1048 81010274 c14c0e00           D..H...t.L..    

Disassembly of section .text.init:

00000000 <entry>:
# This code is executed first.

.section .text.init
entry:

    la    sp, __sp-32   # set up the stack pointer, using a constant defined in the linker script.
   0:	auipc	sp,0x10
   4:	addi	sp,sp,-32 # ffe0 <__frame_dummy_init_array_entry+0xeb10>
  
    call _start		# use this if using C runtime, std c library
   8:	jal	ra,10 <_start>

0000000c <end>:
  
  #  call  main          # call the main function if barebones assembly/C

end:
    j end               # loop when finished if there is no environment to return to.
   c:	j	c <end>

Disassembly of section .text:

00000010 <_start>:
  10:	auipc	gp,0x1
  14:	addi	gp,gp,112 # 1080 <__global_pointer$>
  18:	addi	a0,gp,1096 # 14c8 <_edata>
  1c:	addi	a2,gp,1096 # 14c8 <_edata>
  20:	sub	a2,a2,a0
  24:	li	a1,0
  28:	jal	ra,4b8 <memset>
  2c:	auipc	a0,0x0
  30:	addi	a0,a0,904 # 3b4 <__libc_fini_array>
  34:	jal	ra,370 <atexit>
  38:	jal	ra,410 <__libc_init_array>
  3c:	lw	a0,0(sp)
  40:	addi	a1,sp,4
  44:	li	a2,0
  48:	jal	ra,880 <main>
  4c:	j	384 <exit>

00000050 <_fini>:
  50:	ret

00000054 <deregister_tm_clones>:
  54:	addi	a4,gp,1100 # 14cc <__TMC_END__>
  58:	addi	a5,gp,1100 # 14cc <__TMC_END__>
  5c:	beq	a5,a4,74 <deregister_tm_clones+0x20>
  60:	lui	t1,0x0
  64:	mv	t1,t1
  68:	beqz	t1,74 <deregister_tm_clones+0x20>
  6c:	addi	a0,gp,1100 # 14cc <__TMC_END__>
  70:	jr	t1 # 0 <entry>
  74:	ret

00000078 <register_tm_clones>:
  78:	addi	a1,gp,1100 # 14cc <__TMC_END__>
  7c:	addi	a5,gp,1100 # 14cc <__TMC_END__>
  80:	sub	a1,a1,a5
  84:	srai	a1,a1,0x2
  88:	srli	a5,a1,0x1f
  8c:	add	a1,a5,a1
  90:	srai	a1,a1,0x1
  94:	beqz	a1,ac <register_tm_clones+0x34>
  98:	lui	t1,0x0
  9c:	mv	t1,t1
  a0:	beqz	t1,ac <register_tm_clones+0x34>
  a4:	addi	a0,gp,1100 # 14cc <__TMC_END__>
  a8:	jr	t1 # 0 <entry>
  ac:	ret

000000b0 <__do_global_dtors_aux>:
  b0:	lbu	a4,-24(gp) # 1068 <completed.5430>
  b4:	bnez	a4,fc <__do_global_dtors_aux+0x4c>
  b8:	addi	sp,sp,-16
  bc:	sw	s0,8(sp)
  c0:	sw	ra,12(sp)
  c4:	mv	s0,a5
  c8:	jal	ra,54 <deregister_tm_clones>
  cc:	lui	a5,0x0
  d0:	mv	a5,a5
  d4:	beqz	a5,e4 <__do_global_dtors_aux+0x34>
  d8:	addi	a0,gp,1096 # 14c8 <_edata>
  dc:	auipc	ra,0x0
  e0:	jalr	zero # 0 <entry>
  e4:	li	a5,1
  e8:	sb	a5,-24(gp) # 1068 <completed.5430>
  ec:	lw	ra,12(sp)
  f0:	lw	s0,8(sp)
  f4:	addi	sp,sp,16
  f8:	ret
  fc:	ret

00000100 <frame_dummy>:
 100:	lui	a5,0x0
 104:	mv	a5,a5
 108:	beqz	a5,12c <frame_dummy+0x2c>
 10c:	addi	sp,sp,-16
 110:	addi	a1,gp,-20 # 106c <object.5435>
 114:	addi	a0,gp,1096 # 14c8 <_edata>
 118:	sw	ra,12(sp)
 11c:	auipc	ra,0x0
 120:	jalr	zero # 0 <entry>
 124:	lw	ra,12(sp)
 128:	addi	sp,sp,16
 12c:	j	78 <register_tm_clones>

00000130 <turnLEDSon>:

.global turnLEDSon
.type turnLEDSon, @function
turnLEDSon:
li x6, 0x11080000
 130:	lui	t1,0x11080
li x12, 4294967295
 134:	li	a2,-1
sw x12, 0(x6)
 138:	sw	a2,0(t1) # 11080000 <__sp+0x11070000>
ret
 13c:	ret

00000140 <turnLEDSoff>:

.global turnLEDSoff
.type turnLEDSoff, @function
turnLEDSoff:
li x6, 0x11080000
 140:	lui	t1,0x11080
li x12, 0
 144:	li	a2,0
sw x12, 0(x6)
 148:	sw	a2,0(t1) # 11080000 <__sp+0x11070000>
ret
 14c:	ret

00000150 <matmultiply>:
    turnLEDSoff();
    otter_sleep(100000);
}

void matmultiply()
{
 150:	addi	sp,sp,-48
 154:	sw	s4,28(sp)
    for (c = 0; c < m; c++) {
 158:	lw	s4,-32(gp) # 1060 <m>
{
 15c:	sw	s6,20(sp)
 160:	sw	s0,44(sp)
 164:	sw	s1,40(sp)
 168:	sw	s2,36(sp)
 16c:	sw	s3,32(sp)
 170:	sw	s5,24(sp)
 174:	sw	s7,16(sp)
 178:	sw	s8,12(sp)
 17c:	sw	s9,8(sp)
    for (c = 0; c < m; c++) {
 180:	sw	zero,-440(gp) # ec8 <c>
 184:	blez	s4,2f0 <matmultiply+0x1a0>
      for (d = 0; d < q; d++) {
 188:	lw	s3,-28(gp) # 1064 <q>
        for (k = 0; k < p; k++) {
 18c:	lw	a3,-1252(gp) # b9c <p>
 190:	lw	a5,-1256(gp) # b98 <sum>
 194:	lw	a1,-844(gp) # d34 <k>
 198:	addi	s5,gp,-840 # d38 <second>
 19c:	slli	a6,s3,0x2
 1a0:	addi	s0,gp,-1244 # ba4 <multiply>
 1a4:	addi	a2,gp,-432 # ed0 <first>
 1a8:	add	a6,a6,s5
 1ac:	li	s1,0
 1b0:	li	a4,0
 1b4:	li	a7,1
 1b8:	li	t1,2
 1bc:	li	t3,3
 1c0:	li	t4,4
 1c4:	li	t5,5
 1c8:	li	t6,6
 1cc:	li	t0,7
 1d0:	li	t2,8
 1d4:	li	s2,9
      for (d = 0; d < q; d++) {
 1d8:	blez	s3,328 <matmultiply+0x1d8>
 1dc:	mv	a4,s5
 1e0:	mv	a0,s0
        for (k = 0; k < p; k++) {
 1e4:	blez	a3,320 <matmultiply+0x1d0>
          sum = sum + first[c][k]*second[k][d];
 1e8:	lw	a1,0(a4)
 1ec:	lw	s9,0(a2)
 1f0:	mul	a1,a1,s9
 1f4:	add	a5,a5,a1
        for (k = 0; k < p; k++) {
 1f8:	beq	a3,a7,2ac <matmultiply+0x15c>
          sum = sum + first[c][k]*second[k][d];
 1fc:	lw	a1,4(a2)
 200:	lw	s9,40(a4)
 204:	mul	a1,a1,s9
 208:	add	a5,a5,a1
        for (k = 0; k < p; k++) {
 20c:	beq	a3,t1,2ac <matmultiply+0x15c>
          sum = sum + first[c][k]*second[k][d];
 210:	lw	a1,8(a2)
 214:	lw	s9,80(a4)
 218:	mul	a1,a1,s9
 21c:	add	a5,a5,a1
        for (k = 0; k < p; k++) {
 220:	beq	a3,t3,2ac <matmultiply+0x15c>
          sum = sum + first[c][k]*second[k][d];
 224:	lw	a1,120(a4)
 228:	lw	s9,12(a2)
 22c:	mul	a1,a1,s9
 230:	add	a5,a5,a1
        for (k = 0; k < p; k++) {
 234:	beq	a3,t4,2ac <matmultiply+0x15c>
          sum = sum + first[c][k]*second[k][d];
 238:	lw	a1,16(a2)
 23c:	lw	s9,160(a4)
 240:	mul	a1,a1,s9
 244:	add	a5,a5,a1
        for (k = 0; k < p; k++) {
 248:	beq	a3,t5,2ac <matmultiply+0x15c>
          sum = sum + first[c][k]*second[k][d];
 24c:	lw	a1,20(a2)
 250:	lw	s9,200(a4)
 254:	mul	a1,a1,s9
 258:	add	a5,a5,a1
        for (k = 0; k < p; k++) {
 25c:	beq	a3,t6,2ac <matmultiply+0x15c>
          sum = sum + first[c][k]*second[k][d];
 260:	lw	a1,24(a2)
 264:	lw	s9,240(a4)
 268:	mul	a1,a1,s9
 26c:	add	a5,a5,a1
        for (k = 0; k < p; k++) {
 270:	beq	a3,t0,2ac <matmultiply+0x15c>
          sum = sum + first[c][k]*second[k][d];
 274:	lw	a1,28(a2)
 278:	lw	s9,280(a4)
 27c:	mul	a1,a1,s9
 280:	add	a5,a5,a1
        for (k = 0; k < p; k++) {
 284:	beq	a3,t2,2ac <matmultiply+0x15c>
          sum = sum + first[c][k]*second[k][d];
 288:	lw	a1,32(a2)
 28c:	lw	s9,320(a4)
 290:	mul	a1,a1,s9
 294:	add	a5,a5,a1
        for (k = 0; k < p; k++) {
 298:	beq	a3,s2,2ac <matmultiply+0x15c>
          sum = sum + first[c][k]*second[k][d];
 29c:	lw	a1,36(a2)
 2a0:	lw	s9,360(a4)
 2a4:	mul	a1,a1,s9
 2a8:	add	a5,a5,a1
      for (d = 0; d < q; d++) {
 2ac:	mv	a1,a3
        }

        multiply[c][d] = sum;
 2b0:	sw	a5,0(a0)
        sum = 0;
 2b4:	addi	a4,a4,4
 2b8:	addi	a0,a0,4
 2bc:	li	a5,0
      for (d = 0; d < q; d++) {
 2c0:	bne	a6,a4,1e4 <matmultiply+0x94>
 2c4:	mv	a0,s3
 2c8:	li	a4,1
 2cc:	addi	s1,s1,1
 2d0:	addi	s0,s0,40
 2d4:	addi	a2,a2,40
    for (c = 0; c < m; c++) {
 2d8:	bne	s1,s4,1d8 <matmultiply+0x88>
 2dc:	sw	a0,-436(gp) # ecc <d>
 2e0:	beqz	a4,2ec <matmultiply+0x19c>
 2e4:	sw	a5,-1256(gp) # b98 <sum>
 2e8:	sw	a1,-844(gp) # d34 <k>
 2ec:	sw	s4,-440(gp) # ec8 <c>
      }
    }
}
 2f0:	lw	s0,44(sp)
 2f4:	lw	s1,40(sp)
 2f8:	lw	s2,36(sp)
 2fc:	lw	s3,32(sp)
 300:	lw	s4,28(sp)
 304:	lw	s5,24(sp)
 308:	lw	s6,20(sp)
 30c:	lw	s7,16(sp)
 310:	lw	s8,12(sp)
 314:	lw	s9,8(sp)
 318:	addi	sp,sp,48
 31c:	ret
        for (k = 0; k < p; k++) {
 320:	li	a1,0
 324:	j	2b0 <matmultiply+0x160>
      for (d = 0; d < q; d++) {
 328:	li	a0,0
 32c:	j	2cc <matmultiply+0x17c>

00000330 <otter_sleep>:
void otter_sleep(int stime)
{
	int sum=0;
	for(int i=0;i<stime;i++) 
 330:	blez	a0,36c <otter_sleep+0x3c>
{
 334:	addi	sp,sp,-16
 338:	sw	s0,8(sp)
 33c:	sw	s1,4(sp)
 340:	sw	ra,12(sp)
 344:	mv	s1,a0
	for(int i=0;i<stime;i++) 
 348:	li	s0,0
 34c:	addi	s0,s0,1
		sum+=rand();
 350:	jal	ra,5a4 <rand>
	for(int i=0;i<stime;i++) 
 354:	bne	s1,s0,34c <otter_sleep+0x1c>
}
 358:	lw	ra,12(sp)
 35c:	lw	s0,8(sp)
 360:	lw	s1,4(sp)
 364:	addi	sp,sp,16
 368:	ret
 36c:	ret

00000370 <atexit>:
 370:	mv	a1,a0
 374:	li	a3,0
 378:	li	a2,0
 37c:	li	a0,0
 380:	j	5f8 <__register_exitproc>

00000384 <exit>:
 384:	addi	sp,sp,-16
 388:	li	a1,0
 38c:	sw	s0,8(sp)
 390:	sw	ra,12(sp)
 394:	mv	s0,a0
 398:	jal	ra,674 <__call_exitprocs>
 39c:	lw	a0,1084(gp) # 14bc <_global_impure_ptr>
 3a0:	lw	a5,60(a0)
 3a4:	beqz	a5,3ac <exit+0x28>
 3a8:	jalr	a5 # 0 <entry>
 3ac:	mv	a0,s0
 3b0:	jal	ra,780 <_exit>

000003b4 <__libc_fini_array>:
 3b4:	addi	sp,sp,-16
 3b8:	lui	a5,0x0
 3bc:	sw	s0,8(sp)
 3c0:	lui	s0,0x0
 3c4:	mv	a4,a5
 3c8:	mv	s0,s0
 3cc:	sub	s0,s0,a4
 3d0:	sw	s1,4(sp)
 3d4:	sw	ra,12(sp)
 3d8:	srai	s0,s0,0x2
 3dc:	mv	s1,a5
 3e0:	bnez	s0,3f8 <__libc_fini_array+0x44>
 3e4:	lw	s0,8(sp)
 3e8:	lw	ra,12(sp)
 3ec:	lw	s1,4(sp)
 3f0:	addi	sp,sp,16
 3f4:	j	50 <_fini>
 3f8:	addi	s0,s0,-1
 3fc:	slli	a5,s0,0x2
 400:	add	a5,s1,a5
 404:	lw	a5,0(a5) # 0 <entry>
 408:	jalr	a5
 40c:	j	3e0 <__libc_fini_array+0x2c>

00000410 <__libc_init_array>:
 410:	addi	sp,sp,-16
 414:	lui	a5,0x0
 418:	sw	s0,8(sp)
 41c:	lui	s0,0x0
 420:	mv	a4,a5
 424:	mv	s0,s0
 428:	sub	s0,s0,a4
 42c:	sw	s1,4(sp)
 430:	sw	s2,0(sp)
 434:	sw	ra,12(sp)
 438:	srai	s0,s0,0x2
 43c:	li	s1,0
 440:	mv	s2,a5
 444:	bne	s1,s0,488 <__libc_init_array+0x78>
 448:	jal	ra,50 <_fini>
 44c:	lui	a5,0x0
 450:	lui	s0,0x0
 454:	mv	a4,a5
 458:	mv	s0,s0
 45c:	sub	s0,s0,a4
 460:	srai	s0,s0,0x2
 464:	li	s1,0
 468:	mv	s2,a5
 46c:	bne	s1,s0,4a0 <__libc_init_array+0x90>
 470:	lw	ra,12(sp)
 474:	lw	s0,8(sp)
 478:	lw	s1,4(sp)
 47c:	lw	s2,0(sp)
 480:	addi	sp,sp,16
 484:	ret
 488:	slli	a5,s1,0x2
 48c:	add	a5,s2,a5
 490:	lw	a5,0(a5) # 0 <entry>
 494:	addi	s1,s1,1
 498:	jalr	a5
 49c:	j	444 <__libc_init_array+0x34>
 4a0:	slli	a5,s1,0x2
 4a4:	add	a5,s2,a5
 4a8:	lw	a5,0(a5)
 4ac:	addi	s1,s1,1
 4b0:	jalr	a5
 4b4:	j	46c <__libc_init_array+0x5c>

000004b8 <memset>:
 4b8:	li	t1,15
 4bc:	mv	a4,a0
 4c0:	bgeu	t1,a2,4fc <memset+0x44>
 4c4:	andi	a5,a4,15
 4c8:	bnez	a5,568 <memset+0xb0>
 4cc:	bnez	a1,550 <memset+0x98>
 4d0:	andi	a3,a2,-16
 4d4:	andi	a2,a2,15
 4d8:	add	a3,a3,a4
 4dc:	sw	a1,0(a4)
 4e0:	sw	a1,4(a4)
 4e4:	sw	a1,8(a4)
 4e8:	sw	a1,12(a4)
 4ec:	addi	a4,a4,16
 4f0:	bltu	a4,a3,4dc <memset+0x24>
 4f4:	bnez	a2,4fc <memset+0x44>
 4f8:	ret
 4fc:	sub	a3,t1,a2
 500:	slli	a3,a3,0x2
 504:	auipc	t0,0x0
 508:	add	a3,a3,t0
 50c:	jr	12(a3)
 510:	sb	a1,14(a4)
 514:	sb	a1,13(a4)
 518:	sb	a1,12(a4)
 51c:	sb	a1,11(a4)
 520:	sb	a1,10(a4)
 524:	sb	a1,9(a4)
 528:	sb	a1,8(a4)
 52c:	sb	a1,7(a4)
 530:	sb	a1,6(a4)
 534:	sb	a1,5(a4)
 538:	sb	a1,4(a4)
 53c:	sb	a1,3(a4)
 540:	sb	a1,2(a4)
 544:	sb	a1,1(a4)
 548:	sb	a1,0(a4)
 54c:	ret
 550:	andi	a1,a1,255
 554:	slli	a3,a1,0x8
 558:	or	a1,a1,a3
 55c:	slli	a3,a1,0x10
 560:	or	a1,a1,a3
 564:	j	4d0 <memset+0x18>
 568:	slli	a3,a5,0x2
 56c:	auipc	t0,0x0
 570:	add	a3,a3,t0
 574:	mv	t0,ra
 578:	jalr	-96(a3)
 57c:	mv	ra,t0
 580:	addi	a5,a5,-16
 584:	sub	a4,a4,a5
 588:	add	a2,a2,a5
 58c:	bgeu	t1,a2,4fc <memset+0x44>
 590:	j	4cc <memset+0x14>

00000594 <srand>:
 594:	lw	a5,1076(gp) # 14b4 <_impure_ptr>
 598:	sw	a0,168(a5)
 59c:	sw	zero,172(a5)
 5a0:	ret

000005a4 <rand>:
 5a4:	addi	sp,sp,-16
 5a8:	sw	s0,8(sp)
 5ac:	lw	s0,1076(gp) # 14b4 <_impure_ptr>
 5b0:	lui	a5,0x1
 5b4:	lw	a2,1216(a5) # 14c0 <_global_impure_ptr+0x4>
 5b8:	lw	a0,168(s0) # a8 <register_tm_clones+0x30>
 5bc:	lw	a1,172(s0)
 5c0:	lw	a3,1220(a5)
 5c4:	sw	ra,12(sp)
 5c8:	jal	ra,7cc <__muldi3>
 5cc:	addi	a5,a0,1
 5d0:	sltu	a0,a5,a0
 5d4:	add	a0,a0,a1
 5d8:	sw	a0,172(s0)
 5dc:	sw	a5,168(s0)
 5e0:	lw	ra,12(sp)
 5e4:	lw	s0,8(sp)
 5e8:	slli	a0,a0,0x1
 5ec:	srli	a0,a0,0x1
 5f0:	addi	sp,sp,16
 5f4:	ret

000005f8 <__register_exitproc>:
 5f8:	lw	a4,1084(gp) # 14bc <_global_impure_ptr>
 5fc:	mv	t1,a0
 600:	lw	a5,328(a4)
 604:	bnez	a5,610 <__register_exitproc+0x18>
 608:	addi	a5,a4,332
 60c:	sw	a5,328(a4)
 610:	lw	a4,4(a5)
 614:	li	a6,31
 618:	li	a0,-1
 61c:	blt	a6,a4,670 <__register_exitproc+0x78>
 620:	slli	a7,a4,0x2
 624:	beqz	t1,65c <__register_exitproc+0x64>
 628:	add	a0,a5,a7
 62c:	sw	a2,136(a0)
 630:	lw	a6,392(a5)
 634:	li	a2,1
 638:	sll	a2,a2,a4
 63c:	or	a6,a6,a2
 640:	sw	a6,392(a5)
 644:	sw	a3,264(a0)
 648:	li	a3,2
 64c:	bne	t1,a3,65c <__register_exitproc+0x64>
 650:	lw	a3,396(a5)
 654:	or	a2,a3,a2
 658:	sw	a2,396(a5)
 65c:	addi	a4,a4,1
 660:	sw	a4,4(a5)
 664:	add	a5,a5,a7
 668:	sw	a1,8(a5)
 66c:	li	a0,0
 670:	ret

00000674 <__call_exitprocs>:
 674:	addi	sp,sp,-48
 678:	sw	s3,28(sp)
 67c:	lw	s3,1084(gp) # 14bc <_global_impure_ptr>
 680:	sw	s4,24(sp)
 684:	sw	s5,20(sp)
 688:	sw	s6,16(sp)
 68c:	sw	ra,44(sp)
 690:	sw	s0,40(sp)
 694:	sw	s1,36(sp)
 698:	sw	s2,32(sp)
 69c:	sw	s7,12(sp)
 6a0:	mv	s5,a0
 6a4:	mv	s4,a1
 6a8:	li	s6,1
 6ac:	lw	s1,328(s3)
 6b0:	beqz	s1,6c8 <__call_exitprocs+0x54>
 6b4:	lw	s0,4(s1)
 6b8:	addi	s2,s0,-1
 6bc:	slli	s0,s0,0x2
 6c0:	add	s0,s1,s0
 6c4:	bgez	s2,6f4 <__call_exitprocs+0x80>
 6c8:	lw	ra,44(sp)
 6cc:	lw	s0,40(sp)
 6d0:	lw	s1,36(sp)
 6d4:	lw	s2,32(sp)
 6d8:	lw	s3,28(sp)
 6dc:	lw	s4,24(sp)
 6e0:	lw	s5,20(sp)
 6e4:	lw	s6,16(sp)
 6e8:	lw	s7,12(sp)
 6ec:	addi	sp,sp,48
 6f0:	ret
 6f4:	beqz	s4,70c <__call_exitprocs+0x98>
 6f8:	lw	a5,260(s0)
 6fc:	beq	a5,s4,70c <__call_exitprocs+0x98>
 700:	addi	s2,s2,-1
 704:	addi	s0,s0,-4
 708:	j	6c4 <__call_exitprocs+0x50>
 70c:	lw	a4,4(s1)
 710:	lw	a5,4(s0)
 714:	addi	a4,a4,-1
 718:	bne	a4,s2,750 <__call_exitprocs+0xdc>
 71c:	sw	s2,4(s1)
 720:	beqz	a5,700 <__call_exitprocs+0x8c>
 724:	lw	a3,392(s1)
 728:	sll	a4,s6,s2
 72c:	lw	s7,4(s1)
 730:	and	a3,a4,a3
 734:	bnez	a3,758 <__call_exitprocs+0xe4>
 738:	jalr	a5
 73c:	lw	a5,4(s1)
 740:	bne	a5,s7,6ac <__call_exitprocs+0x38>
 744:	lw	a5,328(s3)
 748:	beq	a5,s1,700 <__call_exitprocs+0x8c>
 74c:	j	6ac <__call_exitprocs+0x38>
 750:	sw	zero,4(s0)
 754:	j	720 <__call_exitprocs+0xac>
 758:	lw	a3,396(s1)
 75c:	lw	a1,132(s0)
 760:	and	a4,a4,a3
 764:	bnez	a4,774 <__call_exitprocs+0x100>
 768:	mv	a0,s5
 76c:	jalr	a5
 770:	j	73c <__call_exitprocs+0xc8>
 774:	mv	a0,a1
 778:	jalr	a5
 77c:	j	73c <__call_exitprocs+0xc8>

00000780 <_exit>:
 780:	li	a1,0
 784:	li	a2,0
 788:	li	a3,0
 78c:	li	a4,0
 790:	li	a5,0
 794:	li	a7,93
 798:	ecall
 79c:	bgez	a0,7c0 <_exit+0x40>
 7a0:	addi	sp,sp,-16
 7a4:	sw	s0,8(sp)
 7a8:	mv	s0,a0
 7ac:	sw	ra,12(sp)
 7b0:	neg	s0,s0
 7b4:	jal	ra,7c4 <__errno>
 7b8:	sw	s0,0(a0)
 7bc:	j	7bc <_exit+0x3c>
 7c0:	j	7c0 <_exit+0x40>

000007c4 <__errno>:
 7c4:	lw	a0,1076(gp) # 14b4 <_impure_ptr>
 7c8:	ret

000007cc <__muldi3>:
# define __multi3 __muldi3
#endif

DWtype
__multi3 (DWtype u, DWtype v)
{
 7cc:	addi	sp,sp,-16
 7d0:	mv	t1,a3
 7d4:	sw	ra,12(sp)
 7d8:	mv	t3,a0
  const DWunion uu = {.ll = u};
  const DWunion vv = {.ll = v};
  DWunion w;
  UWtype u_low = uu.s.low;
 7dc:	mv	a7,a0
  UWtype v_low = vv.s.low;
 7e0:	mv	a3,a2
  UWtype u_low_msb;
  UWtype w_low = 0;
  UWtype new_w_low;
  UWtype w_high = 0;
  UWtype w_high_tmp = 0;
 7e4:	li	a4,0
  UWtype w_high = 0;
 7e8:	li	a5,0
  UWtype w_low = 0;
 7ec:	li	a6,0
  do
    {
      new_w_low = w_low + u_low;
      w_high_tmp2x = w_high_tmp << 1;
      w_high_tmp += w_high;
      if (v_low & 1)
 7f0:	andi	a0,a3,1
      w_high_tmp2x = w_high_tmp << 1;
 7f4:	slli	t4,a4,0x1
      if (v_low & 1)
 7f8:	beqz	a0,810 <__muldi3+0x44>
      new_w_low = w_low + u_low;
 7fc:	add	a0,a7,a6
	{
	  carry = new_w_low < w_low;
 800:	sltu	a6,a0,a6
      w_high_tmp += w_high;
 804:	add	a5,a5,a4
	  w_low = new_w_low;
	  w_high = carry + w_high_tmp;
 808:	add	a5,a6,a5
	  w_low = new_w_low;
 80c:	mv	a6,a0
	}
      u_low_msb = (u_low >> ((sizeof (UWtype) * 8) - 1));
 810:	srli	a4,a7,0x1f
      v_low >>= 1;
 814:	srli	a3,a3,0x1
      u_low <<= 1;
      w_high_tmp = u_low_msb | w_high_tmp2x;
 818:	or	a4,t4,a4
 81c:	slli	a7,a7,0x1
    }
  while (v_low);
 820:	bnez	a3,7f0 <__muldi3+0x24>

  w.s.low = w_low;
  w.s.high = w_high;

  if (uu.s.high)
 824:	beqz	a1,834 <__muldi3+0x68>
    w.s.high = w.s.high + __muluw3(vv.s.low, uu.s.high);
 828:	mv	a0,a2
 82c:	jal	ra,85c <__mulsi3>
 830:	add	a5,a5,a0

  if (vv.s.high)
 834:	beqz	t1,848 <__muldi3+0x7c>
    w.s.high += __muluw3(uu.s.low, vv.s.high);
 838:	mv	a0,t3
 83c:	mv	a1,t1
 840:	jal	ra,85c <__mulsi3>
 844:	add	a5,a0,a5

  return w.ll;
}
 848:	lw	ra,12(sp)
 84c:	mv	a0,a6
 850:	mv	a1,a5
 854:	addi	sp,sp,16
 858:	ret

0000085c <__mulsi3>:
/* Our RV64 64-bit routine is equivalent to our RV32 32-bit routine.  */
# define __muldi3 __mulsi3
#endif

FUNC_BEGIN (__muldi3)
  mv     a2, a0
 85c:	mv	a2,a0
  li     a0, 0
 860:	li	a0,0
.L1:
  andi   a3, a1, 1
 864:	andi	a3,a1,1
  beqz   a3, .L2
 868:	beqz	a3,870 <__mulsi3+0x14>
  add    a0, a0, a2
 86c:	add	a0,a0,a2
.L2:
  srli   a1, a1, 1
 870:	srli	a1,a1,0x1
  slli   a2, a2, 1
 874:	slli	a2,a2,0x1
  bnez   a1, .L1
 878:	bnez	a1,864 <__mulsi3+0x8>
  ret
 87c:	ret

Disassembly of section .text.startup:

00000880 <main>:
{
 880:	addi	sp,sp,-64
        m = 10;
 884:	li	a5,10
{
 888:	sw	s3,44(sp)
 88c:	sw	s4,40(sp)
 890:	sw	s7,28(sp)
  srand(100);
 894:	li	a0,100
{
 898:	sw	s0,56(sp)
 89c:	sw	ra,60(sp)
 8a0:	sw	s1,52(sp)
 8a4:	sw	s2,48(sp)
 8a8:	sw	s5,36(sp)
 8ac:	sw	s6,32(sp)
 8b0:	sw	s8,24(sp)
 8b4:	sw	s9,20(sp)
 8b8:	sw	s10,16(sp)
 8bc:	sw	s11,12(sp)
        m = 10;
 8c0:	sw	a5,-32(gp) # 1060 <m>
        q=10;
 8c4:	sw	a5,-28(gp) # 1064 <q>
        n=10;
 8c8:	sw	a5,-1248(gp) # ba0 <n>
        p=10;
 8cc:	sw	a5,-1252(gp) # b9c <p>
  srand(100);
 8d0:	jal	ra,594 <srand>
    for (c = 0; c < m; c++)
 8d4:	lw	a2,-32(gp) # 1060 <m>
 8d8:	sw	zero,-440(gp) # ec8 <c>
 8dc:	blez	a2,b8c <main+0x30c>
 8e0:	li	a3,0
 8e4:	addi	s2,gp,-840 # d38 <second>
 8e8:	addi	s6,gp,-432 # ed0 <first>
        first[c][d]=(int) rand()*1000;
 8ec:	li	s5,1000
      for (d = 0; d < m; d++) {
 8f0:	sw	zero,-436(gp) # ecc <d>
 8f4:	blez	a2,960 <main+0xe0>
        first[c][d]=(int) rand()*1000;
 8f8:	jal	ra,5a4 <rand>
 8fc:	mul	a0,a0,s5
 900:	lw	a4,-440(gp) # ec8 <c>
 904:	lw	a3,-436(gp) # ecc <d>
 908:	slli	a5,a4,0x2
 90c:	add	a5,a5,a4
 910:	slli	a5,a5,0x1
 914:	add	a5,a5,a3
 918:	slli	a5,a5,0x2
 91c:	add	a5,s6,a5
 920:	sw	a0,0(a5)
        second[c][d]=(int) rand()*1000;
 924:	jal	ra,5a4 <rand>
 928:	mul	a0,a0,s5
 92c:	lw	a3,-440(gp) # ec8 <c>
 930:	lw	a4,-436(gp) # ecc <d>
      for (d = 0; d < m; d++) {
 934:	lw	a2,-32(gp) # 1060 <m>
        second[c][d]=(int) rand()*1000;
 938:	slli	a5,a3,0x2
 93c:	add	a5,a5,a3
 940:	slli	a5,a5,0x1
 944:	add	a5,a5,a4
 948:	slli	a5,a5,0x2
 94c:	add	a5,s2,a5
      for (d = 0; d < m; d++) {
 950:	addi	a4,a4,1
        second[c][d]=(int) rand()*1000;
 954:	sw	a0,0(a5)
      for (d = 0; d < m; d++) {
 958:	sw	a4,-436(gp) # ecc <d>
 95c:	blt	a4,a2,8f8 <main+0x78>
    for (c = 0; c < m; c++)
 960:	addi	a3,a3,1
 964:	sw	a3,-440(gp) # ec8 <c>
 968:	blt	a3,a2,8f0 <main+0x70>
        turnLEDSon();
 96c:	jal	ra,130 <turnLEDSon>
      for (d = 0; d < q; d++) {
 970:	lw	t4,-28(gp) # 1064 <q>
 974:	lw	a5,-1256(gp) # b98 <sum>
 978:	lw	a0,-844(gp) # d34 <k>
 97c:	lw	a4,-436(gp) # ecc <d>
 980:	slli	t5,t4,0x2
    for (c = 0; c < m; c++) {
 984:	lw	t3,-32(gp) # 1060 <m>
        for (k = 0; k < p; k++) {
 988:	lw	a2,-1252(gp) # b9c <p>
 98c:	add	t5,s2,t5
 990:	li	s4,0
 994:	li	a1,0
    for(int i=0;i<10000;i++)
 998:	li	a6,0
        for (k = 0; k < p; k++) {
 99c:	li	t2,1
 9a0:	li	t0,2
 9a4:	li	t6,3
 9a8:	li	s8,4
 9ac:	li	s9,5
 9b0:	mv	s7,s1
    for (c = 0; c < m; c++) {
 9b4:	blez	t3,b84 <main+0x304>
 9b8:	addi	t1,gp,-1244 # ba4 <multiply>
 9bc:	addi	a3,gp,-432 # ed0 <first>
 9c0:	li	a7,0
        for (k = 0; k < p; k++) {
 9c4:	li	s1,6
 9c8:	li	s6,7
 9cc:	li	s5,8
      for (d = 0; d < q; d++) {
 9d0:	blez	t4,b7c <main+0x2fc>
 9d4:	mv	a4,s2
 9d8:	mv	a1,t1
        for (k = 0; k < p; k++) {
 9dc:	blez	a2,b74 <main+0x2f4>
          sum = sum + first[c][k]*second[k][d];
 9e0:	lw	a0,0(a4)
 9e4:	lw	s4,0(a3)
 9e8:	mul	a0,a0,s4
 9ec:	add	a5,a5,a0
        for (k = 0; k < p; k++) {
 9f0:	beq	a2,t2,aa8 <main+0x228>
          sum = sum + first[c][k]*second[k][d];
 9f4:	lw	a0,4(a3)
 9f8:	lw	s4,40(a4)
 9fc:	mul	a0,a0,s4
 a00:	add	a5,a5,a0
        for (k = 0; k < p; k++) {
 a04:	beq	a2,t0,aa8 <main+0x228>
          sum = sum + first[c][k]*second[k][d];
 a08:	lw	a0,8(a3)
 a0c:	lw	s4,80(a4)
 a10:	mul	a0,a0,s4
 a14:	add	a5,a5,a0
        for (k = 0; k < p; k++) {
 a18:	beq	a2,t6,aa8 <main+0x228>
          sum = sum + first[c][k]*second[k][d];
 a1c:	lw	a0,12(a3)
 a20:	lw	s4,120(a4)
 a24:	mul	a0,a0,s4
 a28:	add	a5,a5,a0
        for (k = 0; k < p; k++) {
 a2c:	beq	a2,s8,aa8 <main+0x228>
          sum = sum + first[c][k]*second[k][d];
 a30:	lw	a0,16(a3)
 a34:	lw	s4,160(a4)
 a38:	mul	a0,a0,s4
 a3c:	add	a5,a5,a0
        for (k = 0; k < p; k++) {
 a40:	beq	a2,s9,aa8 <main+0x228>
          sum = sum + first[c][k]*second[k][d];
 a44:	lw	a0,20(a3)
 a48:	lw	s4,200(a4)
 a4c:	mul	a0,a0,s4
 a50:	add	a5,a5,a0
        for (k = 0; k < p; k++) {
 a54:	beq	a2,s1,aa8 <main+0x228>
          sum = sum + first[c][k]*second[k][d];
 a58:	lw	a0,24(a3)
 a5c:	lw	s4,240(a4)
 a60:	mul	a0,a0,s4
 a64:	add	a5,a5,a0
        for (k = 0; k < p; k++) {
 a68:	beq	a2,s6,aa8 <main+0x228>
          sum = sum + first[c][k]*second[k][d];
 a6c:	lw	a0,28(a3)
 a70:	lw	s4,280(a4)
 a74:	mul	a0,a0,s4
 a78:	add	a5,a5,a0
        for (k = 0; k < p; k++) {
 a7c:	beq	a2,s5,aa8 <main+0x228>
          sum = sum + first[c][k]*second[k][d];
 a80:	lw	a0,32(a3)
 a84:	lw	s4,320(a4)
 a88:	mul	a0,a0,s4
 a8c:	add	a5,a5,a0
        for (k = 0; k < p; k++) {
 a90:	li	a0,9
 a94:	beq	a2,a0,aa8 <main+0x228>
          sum = sum + first[c][k]*second[k][d];
 a98:	lw	a0,36(a3)
 a9c:	lw	s4,360(a4)
 aa0:	mul	a0,a0,s4
 aa4:	add	a5,a5,a0
      for (d = 0; d < q; d++) {
 aa8:	mv	a0,a2
        multiply[c][d] = sum;
 aac:	sw	a5,0(a1)
        sum = 0;
 ab0:	addi	a4,a4,4
 ab4:	addi	a1,a1,4
 ab8:	li	a5,0
      for (d = 0; d < q; d++) {
 abc:	bne	t5,a4,9dc <main+0x15c>
 ac0:	mv	a4,t4
 ac4:	li	a1,1
 ac8:	addi	a7,a7,1
 acc:	addi	t1,t1,40
 ad0:	addi	a3,a3,40
    for (c = 0; c < m; c++) {
 ad4:	bne	a7,t3,9d0 <main+0x150>
 ad8:	mv	t1,t3
 adc:	li	s4,1
	*sseg=i;
 ae0:	slli	a7,a6,0x10
 ae4:	lui	a3,0x110c0
 ae8:	srli	a7,a7,0x10
 aec:	sh	a7,0(a3) # 110c0000 <__sp+0x110b0000>
    for(int i=0;i<10000;i++)
 af0:	lui	a3,0x2
 af4:	addi	a6,a6,1
 af8:	addi	a3,a3,1808 # 2710 <__frame_dummy_init_array_entry+0x1240>
 afc:	bne	a6,a3,9b4 <main+0x134>
 b00:	sw	t1,-440(gp) # ec8 <c>
 b04:	mv	s1,s7
 b08:	beqz	a1,b14 <main+0x294>
 b0c:	sw	a5,-1256(gp) # b98 <sum>
 b10:	sw	a0,-844(gp) # d34 <k>
 b14:	beqz	s4,b1c <main+0x29c>
 b18:	sw	a4,-436(gp) # ecc <d>
    turnLEDSoff();
 b1c:	lui	s0,0x18
 b20:	jal	ra,140 <turnLEDSoff>
 b24:	addi	s0,s0,1696 # 186a0 <__sp+0x86a0>
		sum+=rand();
 b28:	addi	s0,s0,-1
 b2c:	jal	ra,5a4 <rand>
	for(int i=0;i<stime;i++) 
 b30:	bnez	s0,b28 <main+0x2a8>
}
 b34:	lw	ra,60(sp)
 b38:	lw	s0,56(sp)
 b3c:	lw	s1,52(sp)
 b40:	lw	s2,48(sp)
 b44:	lw	s3,44(sp)
 b48:	lw	s4,40(sp)
 b4c:	lw	s5,36(sp)
 b50:	lw	s6,32(sp)
 b54:	lw	s7,28(sp)
 b58:	lw	s8,24(sp)
 b5c:	lw	s9,20(sp)
 b60:	lw	s10,16(sp)
 b64:	lw	s11,12(sp)
 b68:	li	a0,0
 b6c:	addi	sp,sp,64
 b70:	ret
        for (k = 0; k < p; k++) {
 b74:	li	a0,0
 b78:	j	aac <main+0x22c>
      for (d = 0; d < q; d++) {
 b7c:	li	a4,0
 b80:	j	ac8 <main+0x248>
    for (c = 0; c < m; c++) {
 b84:	li	t1,0
 b88:	j	ae0 <main+0x260>
 b8c:	addi	s2,gp,-840 # d38 <second>
 b90:	j	96c <main+0xec>
